C51 COMPILER V9.51   COMMAND_PROCESSING                                                    02/09/2021 12:42:36 PAGE 1   


C51 COMPILER V9.51, COMPILATION OF MODULE COMMAND_PROCESSING
OBJECT MODULE PLACED IN .\DP8051_Keil_951\Debug\command_processing.obj
COMPILER INVOKED BY: C:\Program Files (x86)\Cypress\PSoC Creator\4.4\PSoC Creator\import\keil\pk51\9.51\C51\BIN\c51.exe 
                    -command_processing.c NOIV LARGE MODDP2 OMF2 VB(1) NOIP INCDIR(.,Generated_Source\PSoC3) FF(3) DB WL(2) PR(.\DP8051_Keil_
                    -951\Debug/command_processing.lst) CD OT(2,SIZE) OJ(.\DP8051_Keil_951\Debug\command_processing.obj)

line level    source

   1          // ----------------------------------------------------------------------------
   2          // BSD 3-Clause License
   3          
   4          // Copyright (c) 2016, qbrobotics
   5          // Copyright (c) 2017, Centro "E.Piaggio"
   6          // All rights reserved.
   7          
   8          // Redistribution and use in source and binary forms, with or without
   9          // modification, are permitted provided that the following conditions are met:
  10          
  11          // * Redistributions of source code must retain the above copyright notice, this
  12          //   list of conditions and the following disclaimer.
  13          
  14          // * Redistributions in binary form must reproduce the above copyright notice,
  15          //   this list of conditions and the following disclaimer in the documentation
  16          //   and/or other materials provided with the distribution.
  17          
  18          // * Neither the name of the copyright holder nor the names of its
  19          //   contributors may be used to endorse or promote products derived from
  20          //   this software without specific prior written permission.
  21          
  22          // THIS SOFTWARE IS PROVIDED BY THE COPYRIGHT HOLDERS AND CONTRIBUTORS "AS IS"
  23          // AND ANY EXPRESS OR IMPLIED WARRANTIES, INCLUDING, BUT NOT LIMITED TO, THE
  24          // IMPLIED WARRANTIES OF MERCHANTABILITY AND FITNESS FOR A PARTICULAR PURPOSE ARE
  25          // DISCLAIMED. IN NO EVENT SHALL THE COPYRIGHT HOLDER OR CONTRIBUTORS BE LIABLE
  26          // FOR ANY DIRECT, INDIRECT, INCIDENTAL, SPECIAL, EXEMPLARY, OR CONSEQUENTIAL
  27          // DAMAGES (INCLUDING, BUT NOT LIMITED TO, PROCUREMENT OF SUBSTITUTE GOODS OR
  28          // SERVICES; LOSS OF USE, DATA, OR PROFITS; OR BUSINESS INTERRUPTION) HOWEVER
  29          // CAUSED AND ON ANY THEORY OF LIABILITY, WHETHER IN CONTRACT, STRICT LIABILITY,
  30          // OR TORT (INCLUDING NEGLIGENCE OR OTHERWISE) ARISING IN ANY WAY OUT OF THE USE
  31          // OF THIS SOFTWARE, EVEN IF ADVISED OF THE POSSIBILITY OF SUCH DAMAGE.
  32          // POSSIBILITY OF SUCH DAMAGE.
  33          // ----------------------------------------------------------------------------
  34          
  35          
  36          
  37          /**
  38          * \file         command_processing.c
  39          *
  40          
  41          * \brief        Command processing functions.
  42          * \date         October 01, 2017
  43          * \author       _Centro "E.Piaggio"_
  44          * \copyright    (C) 2012-2016 qbrobotics. All rights reserved.
  45          * \copyright    (C) 2017 Centro "E.Piaggio". All rights reserved.
  46          */
  47          
  48          //=================================================================     includes
  49          #include <command_processing.h>
  50          #include <interruptions.h>
  51          #include <stdio.h>
  52          #include <utils.h>
  53          
C51 COMPILER V9.51   COMMAND_PROCESSING                                                    02/09/2021 12:42:36 PAGE 2   

  54          #include "commands.h"
  55          
  56          //================================================================     variables
  57          
  58          reg8 * EEPROM_ADDR = (reg8 *) CYDEV_EE_BASE;
  59          
  60          //==============================================================================
  61          //                                                            RX DATA PROCESSING
  62          //==============================================================================
  63          //  This function checks for the availability of a data packet and process it:
  64          //      - Verify checksum;
  65          //      - Process commands;
  66          //==============================================================================
  67          
  68          void commProcess(void){
  69   1      
  70   1          uint8 CYDATA rx_cmd;
  71   1      
  72   1          rx_cmd = g_rx.buffer[0];
  73   1      
  74   1      //==========================================================     verify checksum
  75   1      
  76   1          if (!(LCRChecksum(g_rx.buffer, g_rx.length - 1) == g_rx.buffer[g_rx.length - 1])){
  77   2              // Wrong checksum
  78   2              g_rx.ready = 0;
  79   2              return;
  80   2          }
  81   1      
  82   1          switch(rx_cmd) {
  83   2      
  84   2      //=============================================================     CMD_ACTIVATE
  85   2              case CMD_ACTIVATE:
  86   2                  cmd_activate();
  87   2                  break;
  88   2      
  89   2      //===========================================================     CMD_SET_INPUTS
  90   2      
  91   2              case CMD_SET_INPUTS:
  92   2                  cmd_set_inputs();
  93   2                  break;
  94   2      
  95   2      //=====================================================     CMD_GET_MEASUREMENTS
  96   2      
  97   2              case CMD_GET_MEASUREMENTS:
  98   2                  cmd_get_measurements();
  99   2                  break;
 100   2      
 101   2      //=========================================================     CMD_GET_CURRENTS
 102   2      
 103   2              case CMD_GET_CURRENTS:
 104   2                  cmd_get_currents();
 105   2                  break;
 106   2      
 107   2      //=========================================================     CMD_GET_CURR_AND_MEAS
 108   2      
 109   2              case CMD_GET_CURR_AND_MEAS:
 110   2                  cmd_get_curr_and_meas();
 111   2                  break;
 112   2                  
 113   2      //=========================================================     CMD_GET_CURR_DIFF
 114   2               
 115   2              case CMD_GET_CURR_DIFF:
C51 COMPILER V9.51   COMMAND_PROCESSING                                                    02/09/2021 12:42:36 PAGE 3   

 116   2                  cmd_get_currents_for_cuff();
 117   2                  break;
 118   2                  
 119   2      //=========================================================     CMD_GET_CURR_DIFF
 120   2              
 121   2              case CMD_GET_VELOCITIES:
 122   2                  cmd_get_velocities();
 123   2                  break;
 124   2                  
 125   2      //=========================================================     CMD_GET_CURR_DIFF
 126   2      
 127   2              case CMD_GET_ACCEL:
 128   2                  cmd_get_accelerations();
 129   2                  break;
 130   2                  
 131   2      //=========================================================     CMD_GET_EMG
 132   2      
 133   2              case CMD_GET_EMG:
 134   2                  cmd_get_emg();
 135   2                  break;
 136   2      
 137   2      //=============================================================     CMD_WATCHDOG
 138   2                  
 139   2              case CMD_SET_WATCHDOG:
 140   2                  cmd_set_watchdog();
 141   2                  break;
 142   2                  
 143   2      //=========================================================     CMD_GET_ACTIVATE
 144   2                  
 145   2              case CMD_GET_ACTIVATE:
 146   2                  cmd_get_activate();
 147   2                  break;
 148   2                  
 149   2      //=========================================================     CMD_SET_BAUDRATE
 150   2                  
 151   2              case CMD_SET_BAUDRATE:
 152   2                  cmd_set_baudrate();
 153   2                  break;  
 154   2                  
 155   2      //============================================================     CMD_GET_INPUT
 156   2      
 157   2              case CMD_GET_INPUTS:
 158   2                  cmd_get_inputs();
 159   2                  break;
 160   2      
 161   2      //=============================================================     CMD_GET_INFO
 162   2      
 163   2              case CMD_GET_INFO:
 164   2                  infoGet( *((uint16 *) &g_rx.buffer[1]));
 165   2                  break;
 166   2      
 167   2      //============================================================     CMD_SET_PARAM
 168   2      
 169   2              case CMD_SET_ZEROS:
 170   2                  setZeros();
 171   2                  break;
 172   2      
 173   2      //============================================================     CMD_GET_PARAM
 174   2      
 175   2              case CMD_GET_PARAM_LIST:
 176   2                  get_param_list( *((uint16 *) &g_rx.buffer[1]) );
 177   2                  break;
C51 COMPILER V9.51   COMMAND_PROCESSING                                                    02/09/2021 12:42:36 PAGE 4   

 178   2      
 179   2      //=================================================================     CMD_PING
 180   2                  
 181   2              case CMD_PING:
 182   2                  cmd_ping();
 183   2                  break;
 184   2      
 185   2      //=========================================================     CMD_STORE_PARAMS
 186   2                  
 187   2              case CMD_STORE_PARAMS:
 188   2                  cmd_store_params();
 189   2                  break;
 190   2      
 191   2      //=================================================     CMD_STORE_DEFAULT_PARAMS
 192   2      
 193   2              case CMD_STORE_DEFAULT_PARAMS:
 194   2                  if(memStore(DEFAULT_EEPROM_DISPLACEMENT))
 195   2                      sendAcknowledgment(ACK_OK);
 196   2                  else
 197   2                      sendAcknowledgment(ACK_ERROR);
 198   2                  break;
 199   2      
 200   2      //=======================================================     CMD_RESTORE_PARAMS
 201   2      
 202   2              case CMD_RESTORE_PARAMS:
 203   2                  if(memRestore())
 204   2                      sendAcknowledgment(ACK_OK);
 205   2                  else
 206   2                      sendAcknowledgment(ACK_ERROR);
 207   2                  break;
 208   2      
 209   2      //=============================================================     CMD_INIT_MEM
 210   2      
 211   2              case CMD_INIT_MEM:
 212   2                  if(memInit())
 213   2                      sendAcknowledgment(ACK_OK);
 214   2                  else
 215   2                      sendAcknowledgment(ACK_ERROR);
 216   2                  break;
 217   2      
 218   2      //===========================================================     CMD_BOOTLOADER
 219   2      
 220   2              case CMD_BOOTLOADER:
 221   2                  //Not sure if ACK_OK is correct, should check
 222   2                  sendAcknowledgment(ACK_OK);
 223   2                  CyDelay(1000);
 224   2                  FTDI_ENABLE_REG_Write(0x00);
 225   2                  CyDelay(1000);
 226   2                  Bootloadable_Load();
 227   2                  break;
 228   2      
 229   2      //============================================================     CMD_CALIBRATE
 230   2      
 231   2              case CMD_HAND_CALIBRATE:
 232   2                  calib.speed = *((int16 *) &g_rx.buffer[1]);
 233   2                  calib.repetitions = *((int16 *) &g_rx.buffer[3]);
 234   2                  
 235   2                              if(calib.speed == -1 && calib.repetitions == -1) {
 236   3                      calib.enabled = FALSE;
 237   3                      calib.speed = 0;
 238   3                      calib.repetitions = 0;
 239   3                      break;
C51 COMPILER V9.51   COMMAND_PROCESSING                                                    02/09/2021 12:42:36 PAGE 5   

 240   3                  }
 241   2                              // Speed & repetitions saturations
 242   2                  if (calib.speed < 0) {
 243   3                      calib.speed = 0;
 244   3                  } else if (calib.speed > 200) {
 245   3                      calib.speed = 200;
 246   3                  }
 247   2                  if (calib.repetitions < 0) {
 248   3                      calib.repetitions = 0;
 249   3                  } else if (calib.repetitions > 32767) {
 250   3                      calib.repetitions = 32767;
 251   3                  }
 252   2                  
 253   2                  g_refNew.pos[0] = 0;
 254   2                  calib.enabled = TRUE;
 255   2                  
 256   2                  sendAcknowledgment(ACK_OK);
 257   2                  break;
 258   2      
 259   2      //=========================================================== ALL OTHER COMMANDS
 260   2              default:
 261   2                  break;
 262   2      
 263   2          }
 264   1      }
 265          
 266          
 267          //==============================================================================
 268          //                                                                     INFO SEND
 269          //==============================================================================
 270          
 271          void infoSend(void){
 272   1          char packet_string[1500];
 273   1           
 274   1          prepare_generic_info(packet_string);
 275   1          UART_RS485_PutString(packet_string);
 276   1      }
 277          
 278          
 279          //==============================================================================
 280          //                                                              COMMAND GET INFO
 281          //==============================================================================
 282          
 283          void infoGet(uint16 info_type) {
 284   1          unsigned char packet_string[1500] = "";
 285   1      
 286   1          //==================================     choose info type and prepare string
 287   1      
 288   1          switch (info_type) {
 289   2              case INFO_ALL:
 290   2                  prepare_generic_info(packet_string);
 291   2                  UART_RS485_ClearTxBuffer();
 292   2                  UART_RS485_PutString(packet_string);
 293   2                  break;
 294   2              case CYCLES_INFO:
 295   2                  prepare_counter_info(packet_string);
 296   2                  UART_RS485_ClearTxBuffer();
 297   2                  UART_RS485_PutString(packet_string);
 298   2                  break;
 299   2              default:
 300   2                  break;
 301   2          }
C51 COMPILER V9.51   COMMAND_PROCESSING                                                    02/09/2021 12:42:36 PAGE 6   

 302   1      }
 303          
 304          //==============================================================================
 305          //                                                                GET PARAM LIST
 306          //==============================================================================
 307          
 308          void get_param_list(uint16 index) {
 309   1          //Package to be sent variables
 310   1          uint8 packet_data[1901] = "";
 311   1          uint16 packet_lenght = 1901;
 312   1      
 313   1          //Auxiliary variables
 314   1          uint8 CYDATA i;
 315   1          uint8 CYDATA string_lenght;
 316   1          int32 aux_int;
 317   1          uint8 aux_uchar;
 318   1      
 319   1          //Parameters menu string definitions
 320   1          char id_str[15] = "1 - Device ID:";
 321   1          char pos_pid_str[28] = "2 - Position PID [P, I, D]:";
 322   1          char curr_pid_str[27] = "3 - Current PID [P, I, D]:";
 323   1          char startup_str[28] = "4 - Startup Activation:";
 324   1          char input_str[34] = "5 - Input mode:";
 325   1          char contr_str[39] = "6 - Control mode:";
 326   1          char res_str[17] = "7 - Resolutions:";
 327   1          char m_off_str[25] = "8 - Measurement Offsets:";
 328   1          char mult_str[17] = "9 - Multipliers:";
 329   1          char pos_lim_flag_str[28] = "10 - Pos. limit active:";
 330   1          char pos_lim_str[29] = "11 - Pos. limits [inf, sup]:";
 331   1          char max_step_str[27] = "12 - Max steps [neg, pos]:";
 332   1          char curr_limit_str[20] = "13 - Current limit:";
 333   1          char emg_flag_str[37] = "14 - EMG calibration on startup:";
 334   1          char emg_thr_str[21] = "15 - EMG thresholds:";
 335   1          char emg_max_val_str[21] = "16 - EMG max values:";
 336   1          char emg_max_speed_str[20] = "17 - EMG max speed:";
 337   1          char abs_enc_str[36] = "18 - Absolute encoder position:";
 338   1          char handle_ratio_str[25] = "19 - Motor handle ratio:"; 
 339   1          char motor_type_str[24] = "20 - PWM rescaling:";
 340   1          char rest_pos_str[20] = "21 - Rest position:";
 341   1          char rest_pos_delay_str[36] = "22 - Rest position time delay (ms):";
 342   1          char rest_vel_str[35] = "23 - Rest vel closure (ticks/sec):";
 343   1          char curr_lookup_str[21] = "24 - Current lookup:";
 344   1          char rest_pos_flag_str[29] = "25 - Rest position flag:";
 345   1          char emg_inversion_str[24] = "26 - EMG inversion:";
 346   1          char reset_counters_str[25] = "27 - Reset counters:";
 347   1          char date_maint_str[37] = "28 - Date of maintenance [DD/MM/YY]:";
 348   1      
 349   1          //Parameters menus
 350   1          const char input_mode_menu[99] = "0 -> Usb\n1 -> Handle\n2 -> EMG proportional\n3 -> EMG Integral\n4 -
             -> EMG FCFS\n5 -> EMG FCFS Advanced\n";
 351   1          const char control_mode_menu[64] = "0 -> Position\n1 -> PWM\n2 -> Current\n3 -> Position and Current\n
             -";
 352   1          const char yes_no_menu[42] = "0 -> Deactivate [NO]\n1 -> Activate [YES]\n";
 353   1      
 354   1          //Strings lenghts
 355   1          uint8 CYDATA id_str_len = strlen(id_str);
 356   1          uint8 CYDATA pos_pid_str_len = strlen(pos_pid_str);
 357   1          uint8 CYDATA curr_pid_str_len = strlen(curr_pid_str);
 358   1      
 359   1          uint8 CYDATA res_str_len = strlen(res_str);
 360   1          uint8 CYDATA m_off_str_len = strlen(m_off_str);
 361   1          uint8 CYDATA mult_str_len = strlen(mult_str);
C51 COMPILER V9.51   COMMAND_PROCESSING                                                    02/09/2021 12:42:36 PAGE 7   

 362   1      
 363   1          uint8 CYDATA pos_lim_str_len = strlen(pos_lim_str);
 364   1          uint8 CYDATA max_step_str_len = strlen(max_step_str);
 365   1          uint8 CYDATA curr_limit_str_len = strlen(curr_limit_str);
 366   1      
 367   1          uint8 CYDATA emg_thr_str_len = strlen(emg_thr_str);
 368   1          uint8 CYDATA emg_max_val_str_len = strlen(emg_max_val_str);
 369   1          uint8 CYDATA emg_max_speed_str_len = strlen(emg_max_speed_str);
 370   1      
 371   1          uint8 CYDATA handle_ratio_str_len = strlen(handle_ratio_str);
 372   1          uint8 CYDATA curr_lookup_str_len = strlen(curr_lookup_str);
 373   1          uint8 CYDATA input_mode_menu_len = strlen(input_mode_menu);
 374   1          uint8 CYDATA control_mode_menu_len = strlen(control_mode_menu);
 375   1          uint8 CYDATA yes_no_menu_len = strlen(yes_no_menu);
 376   1          uint8 CYDATA rest_pos_str_len = strlen(rest_pos_str);
 377   1          uint8 CYDATA rest_pos_delay_str_len = strlen(rest_pos_delay_str);
 378   1          uint8 CYDATA rest_vel_str_len = strlen(rest_vel_str);
 379   1          uint8 CYDATA date_maint_str_len = strlen(date_maint_str);
 380   1      
 381   1          packet_data[0] = CMD_GET_PARAM_LIST;
 382   1          packet_data[1] = NUM_OF_PARAMS;
 383   1      
 384   1          switch(index) {
 385   2              case 0:         //List of all parameters with relative types
 386   2                  /*-----------------ID-----------------*/
 387   2      
 388   2                  packet_data[2] = TYPE_UINT8;
 389   2                  packet_data[3] = 1;
 390   2                  packet_data[4] = c_mem.id;
 391   2                  for(i = id_str_len; i != 0; i--)
 392   2                      packet_data[5 + id_str_len - i] = id_str[id_str_len - i];
 393   2      
 394   2                  /*-------------POSITION PID-----------*/
 395   2      
 396   2                  packet_data[52] = TYPE_FLOAT;
 397   2                  packet_data[53] = 3;
 398   2                  if(c_mem.control_mode != CURR_AND_POS_CONTROL) {
 399   3                      *((float *) (packet_data + 54)) = (float) c_mem.k_p / 65536;
 400   3                      *((float *) (packet_data + 58)) = (float) c_mem.k_i / 65536;
 401   3                      *((float *) (packet_data + 62)) = (float) c_mem.k_d / 65536;
 402   3                  }
 403   2                  else {
 404   3                      *((float *) (packet_data + 54)) = (float) c_mem.k_p_dl / 8192;
 405   3                      *((float *) (packet_data + 58)) = (float) c_mem.k_i_dl / 8192;
 406   3                      *((float *) (packet_data + 62)) = (float) c_mem.k_d_dl / 8192;
 407   3                  }
 408   2      
 409   2                  for(i = pos_pid_str_len; i != 0; i--)
 410   2                      packet_data[66 + pos_pid_str_len - i] = pos_pid_str[pos_pid_str_len - i];
 411   2      
 412   2                  /*--------------CURRENT PID-----------*/
 413   2      
 414   2                  packet_data[102] = TYPE_FLOAT;
 415   2                  packet_data[103] = 3;
 416   2                  if(c_mem.control_mode != CURR_AND_POS_CONTROL) {
 417   3                      *((float *) (packet_data + 104)) = (float) c_mem.k_p_c / 65536;
 418   3                      *((float *) (packet_data + 108)) = (float) c_mem.k_i_c / 65536;
 419   3                      *((float *) (packet_data + 112)) = (float) c_mem.k_d_c / 65536;
 420   3                  }
 421   2                  else {
 422   3                      *((float *) (packet_data + 104)) = (float) c_mem.k_p_c_dl / 8192;
 423   3                      *((float *) (packet_data + 108)) = (float) c_mem.k_i_c_dl / 8192;
C51 COMPILER V9.51   COMMAND_PROCESSING                                                    02/09/2021 12:42:36 PAGE 8   

 424   3                      *((float *) (packet_data + 112)) = (float) c_mem.k_d_c_dl / 8192;
 425   3                  }
 426   2                  
 427   2                  for(i = curr_pid_str_len; i != 0; i--)
 428   2                      packet_data[116 + curr_pid_str_len - i] = curr_pid_str[curr_pid_str_len - i];
 429   2      
 430   2                  /*----------STARTUP ACTIVATION--------*/
 431   2      
 432   2                  packet_data[152] = TYPE_FLAG;
 433   2                  packet_data[153] = 1;
 434   2                  packet_data[154] = c_mem.activ;
 435   2                  if(c_mem.activ) {
 436   3                      strcat(startup_str, " YES\0");
 437   3                      string_lenght = 28;
 438   3                  }
 439   2                  else {
 440   3                      strcat(startup_str, " NO\0");
 441   3                      string_lenght = 27;
 442   3                  }
 443   2                  for(i = string_lenght; i != 0; i--)
 444   2                      packet_data[155 + string_lenght - i] = startup_str[string_lenght - i];
 445   2                  //The following byte indicates the number of menus at the end of the packet to send
 446   2                  packet_data[155 + string_lenght] = 3;
 447   2      
 448   2                  /*--------------INPUT MODE------------*/
 449   2                  
 450   2                  packet_data[202] = TYPE_FLAG;
 451   2                  packet_data[203] = 1;
 452   2                  packet_data[204] = c_mem.input_mode;
 453   2                  switch(c_mem.input_mode) {
 454   3                      case INPUT_MODE_EXTERNAL:
 455   3                          strcat(input_str, " Usb\0");
 456   3                          string_lenght = 20;
 457   3                      break;
 458   3                      case INPUT_MODE_ENCODER3:
 459   3                          strcat(input_str, " Handle\0");
 460   3                          string_lenght = 23;
 461   3                      break;
 462   3                      case INPUT_MODE_EMG_PROPORTIONAL:
 463   3                          strcat(input_str, " EMG proportional\0");
 464   3                          string_lenght = 33;
 465   3                      break;
 466   3                      case INPUT_MODE_EMG_INTEGRAL:
 467   3                          strcat(input_str, " EMG integral\0");
 468   3                          string_lenght = 29;
 469   3                      break;
 470   3                      case INPUT_MODE_EMG_FCFS:
 471   3                          strcat(input_str, " EMG FCFS\0");
 472   3                          string_lenght = 25;
 473   3                      break;
 474   3                      case INPUT_MODE_EMG_FCFS_ADV:
 475   3                          strcat(input_str, " EMG FCFS Advanced\0");
 476   3                          string_lenght = 34;
 477   3                      break;
 478   3                  }
 479   2                  for(i = string_lenght; i != 0; i--)
 480   2                      packet_data[205 + string_lenght - i] = input_str[string_lenght - i];
 481   2                  //The following byte indicates the number of menus at the end of the packet to send
 482   2                  packet_data[205 + string_lenght] = 1;
 483   2                  
 484   2                  /*-------------CONTROL MODE-----------*/
 485   2                  
C51 COMPILER V9.51   COMMAND_PROCESSING                                                    02/09/2021 12:42:36 PAGE 9   

 486   2                  packet_data[252] = TYPE_FLAG;
 487   2                  packet_data[253] = 1;
 488   2                  packet_data[254] = c_mem.control_mode;
 489   2                  switch(c_mem.control_mode){
 490   3                      case CONTROL_ANGLE:
 491   3                          strcat(contr_str, " Position\0");
 492   3                          string_lenght = 27;
 493   3                      break;
 494   3                      case CONTROL_PWM:
 495   3                          strcat(contr_str, " PWM\0");
 496   3                          string_lenght = 22;
 497   3                      break;
 498   3                      case CONTROL_CURRENT:
 499   3                          strcat(contr_str, " Current\0");
 500   3                          string_lenght = 26;
 501   3                      break;
 502   3                      case CURR_AND_POS_CONTROL:
 503   3                          strcat(contr_str, " Position and Current\0");
 504   3                          string_lenght = 39;
 505   3                      break;
 506   3                  }
 507   2                  for(i = string_lenght; i != 0; i--)
 508   2                      packet_data[255 + string_lenght - i] = contr_str[string_lenght - i];
 509   2                  //The following byte indicates the number of menus at the end of the packet to send
 510   2                  packet_data[255 + string_lenght] = 2;
 511   2                  
 512   2                  /*-------------RESOLUTIONS------------*/
 513   2                  
 514   2                  packet_data[302] = TYPE_UINT8;
 515   2                  packet_data[303] = 3;
 516   2                  for(i = 0; i < NUM_OF_SENSORS; i++)
 517   2                      packet_data[i + 304] = c_mem.res[i];
 518   2                  for(i = res_str_len; i != 0; i--)
 519   2                      packet_data[307 + res_str_len - i] = res_str[res_str_len - i];
 520   2                  
 521   2                  /*----------MEASUREMENT OFFSET--------*/
 522   2                  
 523   2                  packet_data[352] = TYPE_INT16;
 524   2                  packet_data[353] = 3;
 525   2                  for(i = 0; i < NUM_OF_SENSORS; i++) 
 526   2                      *((int16 *) ( packet_data + 354 + (i * 2) )) = (int16) (c_mem.m_off[i] >> c_mem.res[i]);
 527   2                  for(i = m_off_str_len; i != 0; i--)
 528   2                      packet_data[360 + m_off_str_len - i] = m_off_str[m_off_str_len - i];
 529   2                  
 530   2                  /*------------MULTIPLIERS-------------*/
 531   2                  
 532   2                  packet_data[402] = TYPE_FLOAT;
 533   2                  packet_data[403] = 3;
 534   2                  for(i = 0; i < NUM_OF_SENSORS; i++)
 535   2                      *((float *) ( packet_data + 404 + (i * 4) )) = c_mem.m_mult[i];
 536   2                  for(i = mult_str_len; i != 0; i--)
 537   2                      packet_data[416 + mult_str_len - i] = mult_str[mult_str_len - i];
 538   2      
 539   2                  /*-----------POS LIMIT FLAG-----------*/
 540   2                  
 541   2                  packet_data[452] = TYPE_FLAG;
 542   2                  packet_data[453] = 1;
 543   2                  packet_data[454] = c_mem.pos_lim_flag;
 544   2                  if(c_mem.pos_lim_flag) {
 545   3                      strcat(pos_lim_flag_str, " YES\0");
 546   3                      string_lenght = 28;
 547   3                  }
C51 COMPILER V9.51   COMMAND_PROCESSING                                                    02/09/2021 12:42:36 PAGE 10  

 548   2                  else {
 549   3                      strcat(pos_lim_flag_str, " NO\0");
 550   3                      string_lenght = 27;
 551   3                  }
 552   2                  for(i = string_lenght; i != 0; i--)
 553   2                      packet_data[455 + string_lenght - i] = pos_lim_flag_str[string_lenght - i];
 554   2                  //The following byte indicates the number of menus at the end of the packet to send
 555   2                  packet_data[455 + string_lenght] = 3;
 556   2                  
 557   2                  /*-----------POSITION LIMITS----------*/
 558   2                  
 559   2                  packet_data[502] = TYPE_INT32;
 560   2                  packet_data[503] = 2;
 561   2                  for (i = 0; i < NUM_OF_MOTORS - 1; i++) {
 562   3                      *((int32 *)( packet_data + 504 + (i * 2 * 4) )) = (c_mem.pos_lim_inf[i] >> c_mem.res[i]);
 563   3                      *((int32 *)( packet_data + 504 + (i * 2 * 4) + 4)) = (c_mem.pos_lim_sup[i] >> c_mem.res[i]
             -);
 564   3                  }
 565   2                  for(i = pos_lim_str_len; i != 0; i--)
 566   2                      packet_data[512 + pos_lim_str_len - i] = pos_lim_str[pos_lim_str_len - i];
 567   2      
 568   2                  /*--------------MAX STEPS-------------*/
 569   2                  
 570   2                  packet_data[552] = TYPE_INT32;
 571   2                  packet_data[553] = 2;
 572   2                  *((int32 *)(packet_data + 554)) = c_mem.max_step_neg;
 573   2                  *((int32 *)(packet_data + 558)) = c_mem.max_step_pos;
 574   2                  for(i = max_step_str_len; i != 0; i--)
 575   2                      packet_data[562 + max_step_str_len - i] = max_step_str[max_step_str_len - i];
 576   2      
 577   2                  /*------------CURRENT LIMIT-----------*/
 578   2      
 579   2                  packet_data[602] = TYPE_INT16;
 580   2                  packet_data[603] = 1;
 581   2                  *((int16 *)(packet_data + 604)) = c_mem.current_limit;
 582   2                  for(i = curr_limit_str_len; i != 0; i--)
 583   2                      packet_data[606 + curr_limit_str_len - i] = curr_limit_str[curr_limit_str_len - i];
 584   2      
 585   2                  /*-----------EMG CALIB FLAG-----------*/            
 586   2                  
 587   2                  packet_data[652] = TYPE_FLAG;
 588   2                  packet_data[653] = 1;
 589   2                  packet_data[654] = c_mem.emg_calibration_flag;
 590   2                  if(c_mem.emg_calibration_flag) {
 591   3                      strcat(emg_flag_str, " YES\0");
 592   3                      string_lenght = 37;
 593   3                  }
 594   2                  else {
 595   3                      strcat(emg_flag_str, " NO\0");
 596   3                      string_lenght = 36;
 597   3                  }
 598   2                  for(i = string_lenght; i != 0; i--)
 599   2                      packet_data[655 + string_lenght - i] = emg_flag_str[string_lenght - i];
 600   2                  //The following byte indicates the number of menus at the end of the packet to send
 601   2                  packet_data[655 + string_lenght] = 3;
 602   2                  
 603   2                  /*-----------EMG THRESHOLDS-----------*/
 604   2              
 605   2                  packet_data[702] = TYPE_UINT16;
 606   2                  packet_data[703] = 2;
 607   2                  *((uint16 *)(packet_data + 704)) = c_mem.emg_threshold[0];
 608   2                  *((uint16 *)(packet_data + 706)) = c_mem.emg_threshold[1];
C51 COMPILER V9.51   COMMAND_PROCESSING                                                    02/09/2021 12:42:36 PAGE 11  

 609   2                  for(i = emg_thr_str_len; i != 0; i--)
 610   2                      packet_data[708 + emg_thr_str_len - i] = emg_thr_str[emg_thr_str_len - i];
 611   2                  
 612   2                  /*------------EMG MAX VALUE-----------*/
 613   2                  
 614   2                  packet_data[752] = TYPE_UINT32;
 615   2                  packet_data[753] = 2;
 616   2                  *((uint32 *)(packet_data + 754)) = c_mem.emg_max_value[0];
 617   2                  *((uint32 *)(packet_data + 758)) = c_mem.emg_max_value[1];
 618   2                  for(i = emg_max_val_str_len; i != 0; i--)
 619   2                      packet_data[762 + emg_max_val_str_len - i] = emg_max_val_str[emg_max_val_str_len - i];
 620   2      
 621   2                  /*--------------EMG SPEED-------------*/
 622   2                  
 623   2                  packet_data[802] = TYPE_UINT8;
 624   2                  packet_data[803] = 1;
 625   2                  packet_data[804] = c_mem.emg_speed;
 626   2                  for(i = emg_max_speed_str_len; i != 0; i--)
 627   2                      packet_data[805 + emg_max_speed_str_len - i] = emg_max_speed_str[emg_max_speed_str_len - i
             -];
 628   2                  
 629   2                  /*------------DOUBLE ENCODER----------*/
 630   2                  
 631   2                  packet_data[852] = TYPE_FLAG;
 632   2                  packet_data[853] = 1;
 633   2                  packet_data[854] = c_mem.double_encoder_on_off;
 634   2                  if(c_mem.double_encoder_on_off) {
 635   3                      strcat(abs_enc_str, " YES\0");
 636   3                      string_lenght = 36;
 637   3                  }
 638   2                  else {
 639   3                      strcat(abs_enc_str, " NO\0");
 640   3                      string_lenght = 35;
 641   3                  }
 642   2                  for(i = string_lenght; i != 0; i--)
 643   2                      packet_data[855 + string_lenght - i] = abs_enc_str[string_lenght - i];
 644   2                  //The following byte indicates the number of menus at the end of the packet to send
 645   2                  packet_data[855 + string_lenght] = 3;
 646   2                  
 647   2                  /*-------------HANDLE RATIO-----------*/
 648   2                  
 649   2                  packet_data[902] = TYPE_INT8;
 650   2                  packet_data[903] = 1;
 651   2                  *((int8 *)(packet_data + 904)) = c_mem.motor_handle_ratio;
 652   2                  for(i = handle_ratio_str_len; i != 0; i--)
 653   2                      packet_data[905 + handle_ratio_str_len - i] = handle_ratio_str[handle_ratio_str_len - i];
 654   2                  
 655   2                  /*-------------MOTOR SUPPLY-----------*/
 656   2                  
 657   2                  packet_data[952] = TYPE_FLAG;
 658   2                  packet_data[953] = 1;
 659   2                  packet_data[954] = c_mem.activate_pwm_rescaling;
 660   2                  if(c_mem.activate_pwm_rescaling) {
 661   3                      strcat(motor_type_str, " YES\0");
 662   3                      string_lenght = 24;
 663   3                  }
 664   2                  else {
 665   3                      strcat(motor_type_str, " NO\0");
 666   3                      string_lenght = 23;
 667   3                  }
 668   2                  for(i = string_lenght; i != 0; i--)
 669   2                      packet_data[955 + string_lenght - i] = motor_type_str[string_lenght - i];
C51 COMPILER V9.51   COMMAND_PROCESSING                                                    02/09/2021 12:42:36 PAGE 12  

 670   2                  //The following byte indicates the number of menus at the end of the packet to send
 671   2                  packet_data[955 + string_lenght] = 3;
 672   2      
 673   2                  /*-----------REST POSITION----------*/
 674   2                  
 675   2                  packet_data[1002] = TYPE_INT32;
 676   2                  packet_data[1003] = 1;
 677   2                  *((int32 *)( packet_data + 1004 )) = (c_mem.rest_pos >> c_mem.res[0]);
 678   2                  for(i = rest_pos_str_len; i != 0; i--)
 679   2                      packet_data[1008 + rest_pos_str_len - i] = rest_pos_str[rest_pos_str_len - i];
 680   2                      
 681   2                  /*-----------REST POSITION TIME DELAY----------*/
 682   2                  
 683   2                  packet_data[1052] = TYPE_INT32;
 684   2                  packet_data[1053] = 1;
 685   2                  *((int32 *)( packet_data + 1054 )) = c_mem.rest_delay;
 686   2                  for(i = rest_pos_delay_str_len; i != 0; i--)
 687   2                      packet_data[1058 + rest_pos_delay_str_len - i] = rest_pos_delay_str[rest_pos_delay_str_len
             - - i];
 688   2                      
 689   2                  /*-----------REST POSITION VELOCITY----------*/
 690   2                  
 691   2                  packet_data[1102] = TYPE_INT32;
 692   2                  packet_data[1103] = 1;
 693   2                  *((int32 *)( packet_data + 1104 )) = c_mem.rest_vel;
 694   2                  for(i = rest_vel_str_len; i != 0; i--)
 695   2                      packet_data[1108 + rest_vel_str_len - i] = rest_vel_str[rest_vel_str_len - i];   
 696   2                      
 697   2                      
 698   2                  /*---------CURRENT LOOKUP TABLE---------*/
 699   2      
 700   2                  packet_data[1152] = TYPE_FLOAT;
 701   2                  packet_data[1153] = 6;
 702   2                  for(i = 0; i < LOOKUP_DIM; i++)
 703   2                      *((float *) ( packet_data + 1154 + (i * 4) )) = c_mem.curr_lookup[i];
 704   2                  for(i = curr_lookup_str_len; i != 0; i--)
 705   2                      packet_data[1178 + curr_lookup_str_len - i] = curr_lookup_str[curr_lookup_str_len - i];
 706   2                  
 707   2                  /*-----------REST POSITION FLAG-----------*/            
 708   2                  
 709   2                  packet_data[1202] = TYPE_FLAG;
 710   2                  packet_data[1203] = 1;
 711   2                  packet_data[1204] = c_mem.rest_position_flag;
 712   2                  if(c_mem.rest_position_flag) {
 713   3                      strcat(rest_pos_flag_str, " YES\0");
 714   3                      string_lenght = 29;
 715   3                  }
 716   2                  else {
 717   3                      strcat(rest_pos_flag_str, " NO\0");
 718   3                      string_lenght = 28;
 719   3                  }
 720   2                  for(i = string_lenght; i != 0; i--)
 721   2                      packet_data[1205 + string_lenght - i] = rest_pos_flag_str[string_lenght - i];
 722   2                  //The following byte indicates the number of menus at the end of the packet to send
 723   2                  packet_data[1205 + string_lenght] = 3;
 724   2                  
 725   2                  /*-----------EMG INVERSION FLAG-----------*/            
 726   2                  
 727   2                  packet_data[1252] = TYPE_FLAG;
 728   2                  packet_data[1253] = 1;
 729   2                  packet_data[1254] = c_mem.switch_emg;
 730   2                  if(c_mem.switch_emg) {
C51 COMPILER V9.51   COMMAND_PROCESSING                                                    02/09/2021 12:42:36 PAGE 13  

 731   3                      strcat(emg_inversion_str, " YES\0");
 732   3                      string_lenght = 24;
 733   3                  }
 734   2                  else {
 735   3                      strcat(emg_inversion_str, " NO\0");
 736   3                      string_lenght = 23;
 737   3                  }
 738   2                  for(i = string_lenght; i != 0; i--)
 739   2                      packet_data[1255 + string_lenght - i] = emg_inversion_str[string_lenght - i];
 740   2                  //The following byte indicates the number of menus at the end of the packet to send
 741   2                  packet_data[1255 + string_lenght] = 3;
 742   2                  
 743   2                  /*-----------RESET COUNTERS FLAG-----------*/            
 744   2                  
 745   2                  packet_data[1302] = TYPE_FLAG;
 746   2                  packet_data[1303] = 1;
 747   2                  packet_data[1304] = 1;
 748   2                  strcat(reset_counters_str, " NO\0");
 749   2                  string_lenght = 24;
 750   2                 
 751   2                  for(i = string_lenght; i != 0; i--)
 752   2                      packet_data[1305 + string_lenght - i] = reset_counters_str[string_lenght - i];
 753   2                  //The following byte indicates the number of menus at the end of the packet to send
 754   2                  packet_data[1305 + string_lenght] = 3;
 755   2                  
 756   2                  /*-------------DATE OF MAINTENANCE------------*/
 757   2                  
 758   2                  packet_data[1352] = TYPE_UINT8;
 759   2                  packet_data[1353] = 3;
 760   2                  packet_data[i + 1354] = c_mem.maint_day;
 761   2                  packet_data[i + 1355] = c_mem.maint_month;
 762   2                  packet_data[i + 1356] = c_mem.maint_year;
 763   2                  for(i = date_maint_str_len; i != 0; i--)
 764   2                      packet_data[1357 + date_maint_str_len - i] = date_maint_str[date_maint_str_len - i];
 765   2                      
 766   2                  /*------------PARAMETERS MENU-----------*/
 767   2      
 768   2                  for(i = input_mode_menu_len; i != 0; i--)
 769   2                      packet_data[1402 + input_mode_menu_len - i] = input_mode_menu[input_mode_menu_len - i];
 770   2      
 771   2                  for(i = control_mode_menu_len; i != 0; i--)
 772   2                      packet_data[1552 + control_mode_menu_len - i] = control_mode_menu[control_mode_menu_len - 
             -i];
 773   2      
 774   2                  for(i = yes_no_menu_len; i!= 0; i--)
 775   2                      packet_data[1702 + yes_no_menu_len - i] = yes_no_menu[yes_no_menu_len - i];
 776   2      
 777   2                  packet_data[packet_lenght - 1] = LCRChecksum(packet_data,packet_lenght - 1);
 778   2                  commWrite(packet_data, packet_lenght);
 779   2              break;
 780   2      
 781   2      //===================================================================     set_id
 782   2              case 1:         //ID - uint8
 783   2                  g_mem.id = g_rx.buffer[3];
 784   2              break;
 785   2              
 786   2      //=======================================================     set_pid_parameters
 787   2              case 2:         //Position PID - float[3]
 788   2                  if(c_mem.control_mode != CURR_AND_POS_CONTROL) {
 789   3                      g_mem.k_p = *((float *) &g_rx.buffer[3]) * 65536;
 790   3                      g_mem.k_i = *((float *) &g_rx.buffer[3 + 4]) * 65536;
 791   3                      g_mem.k_d = *((float *) &g_rx.buffer[3 + 8]) * 65536;
C51 COMPILER V9.51   COMMAND_PROCESSING                                                    02/09/2021 12:42:36 PAGE 14  

 792   3                  }
 793   2                  else {
 794   3                      g_mem.k_p_dl = *((float *) &g_rx.buffer[3]) * 8192;
 795   3                      g_mem.k_i_dl = *((float *) &g_rx.buffer[3 + 4]) * 8192;
 796   3                      g_mem.k_d_dl = *((float *) &g_rx.buffer[3 + 8]) * 8192;
 797   3                      
 798   3                      if (g_mem.k_p_dl > 8192 * (0.6)) g_mem.k_p_dl = 8192 * (0.6);
 799   3                  }
 800   2              break;
 801   2      
 802   2      //==================================================     set_curr_pid_parameters
 803   2              case 3:         //Current PID - float[3]
 804   2                  if(c_mem.control_mode != CURR_AND_POS_CONTROL) {
 805   3                      g_mem.k_p_c = *((float *) &g_rx.buffer[3]) * 65536;
 806   3                      g_mem.k_i_c = *((float *) &g_rx.buffer[3 + 4]) * 65536;
 807   3                      g_mem.k_d_c = *((float *) &g_rx.buffer[3 + 8]) * 65536;
 808   3                  }
 809   2                  else {
 810   3                      g_mem.k_p_c_dl = *((float *) &g_rx.buffer[3]) * 8192;
 811   3                      g_mem.k_i_c_dl = *((float *) &g_rx.buffer[3 + 4]) * 8192;
 812   3                      g_mem.k_d_c_dl = *((float *) &g_rx.buffer[3 + 8]) * 8192;
 813   3                  }
 814   2                  
 815   2              break;
 816   2      
 817   2      //===================================================     set_startup_activation        
 818   2              case 4:         //Startup flag - uint8
 819   2                  if(g_rx.buffer[3])
 820   2                      g_mem.activ = 0x03;
 821   2                  else
 822   2                      g_mem.activ = 0x00;
 823   2              break;
 824   2      
 825   2      //===========================================================     set_input_mode        
 826   2              case 5:         //Input mode - uint8
 827   2                  g_mem.input_mode = g_rx.buffer[3];
 828   2              break;
 829   2              
 830   2      //=========================================================     set_control_mode
 831   2              case 6:         //Control mode - uint8
 832   2                  g_mem.control_mode = g_rx.buffer[3];
 833   2              break;
 834   2              
 835   2      //===========================================================     set_resolution
 836   2              case 7:         //Resolution - uint8[3]
 837   2                  for (i =0; i < NUM_OF_SENSORS; i++) {
 838   3                      g_mem.res[i] = g_rx.buffer[i+3];
 839   3                  }
 840   2              break;
 841   2              
 842   2      //===============================================================     set_offset
 843   2              case 8:         //Measurement Offset - int32[3] 
 844   2                  for(i = 0; i < NUM_OF_SENSORS; ++i) {
 845   3                      g_mem.m_off[i] = *((int16 *) &g_rx.buffer[3 + i * 2]);
 846   3                      g_mem.m_off[i] = g_mem.m_off[i] << g_mem.res[i];
 847   3      
 848   3                      g_meas.rot[i] = 0;
 849   3                  }
 850   2                  reset_last_value_flag = 1;
 851   2              break;
 852   2              
 853   2      //===========================================================     set_multiplier
C51 COMPILER V9.51   COMMAND_PROCESSING                                                    02/09/2021 12:42:36 PAGE 15  

 854   2              case 9:         //Multipliers - float[3]
 855   2                  for(i = 0; i < NUM_OF_SENSORS; ++i)
 856   2                      g_mem.m_mult[i] = *((float *) &g_rx.buffer[3 + i * 4]);
 857   2              break;
 858   2              
 859   2      //=====================================================     set_pos_limit_enable
 860   2              case 10:        //Position limit flag - uint8
 861   2                  g_mem.pos_lim_flag = *((uint8 *) &g_rx.buffer[3]);
 862   2              break;
 863   2      
 864   2      //============================================================     set_pos_limit
 865   2              case 11:        //Position limits - int32[4]
 866   2                  for (i = 0; i < NUM_OF_MOTORS; i++) {
 867   3                      g_mem.pos_lim_inf[i] = *((int32 *) &g_rx.buffer[3 + (i * 2 * 4)]);
 868   3                      g_mem.pos_lim_sup[i] = *((int32 *) &g_rx.buffer[3 + (i * 2 * 4) + 4]);
 869   3      
 870   3                      g_mem.pos_lim_inf[i] = g_mem.pos_lim_inf[i] << g_mem.res[i];
 871   3                      g_mem.pos_lim_sup[i] = g_mem.pos_lim_sup[i] << g_mem.res[i];
 872   3                  }
 873   2              break;
 874   2      
 875   2      //==================================================     set_max_steps_per_cycle
 876   2              case 12:        //Max steps - int32[2]
 877   2                  aux_int = *((int32 *) &g_rx.buffer[3]);
 878   2                  if (aux_int <= 0)
 879   2                      g_mem.max_step_neg = aux_int;
 880   2      
 881   2                  aux_int = *((int32 *) &g_rx.buffer[3 + 4]);
 882   2                  if (aux_int >= 0) 
 883   2                      g_mem.max_step_pos = aux_int;
 884   2                  
 885   2              break;
 886   2              
 887   2      //========================================================     set_current_limit
 888   2              case 13:        //Current limit - int16
 889   2                  g_mem.current_limit = *((int16*) &g_rx.buffer[3]);
 890   2              break;
 891   2              
 892   2      //=======================================================     set_emg_calib_flag
 893   2              case 14:        //Emg calibration flag - int8
 894   2                  g_mem.emg_calibration_flag = *((uint8*) &g_rx.buffer[3]);
 895   2              break;
 896   2              
 897   2      //========================================================     set_emg_threshold
 898   2              case 15:        //Emg threshold - uint16[2]
 899   2                  g_mem.emg_threshold[0] = *((uint16*) &g_rx.buffer[3]);
 900   2                  g_mem.emg_threshold[1] = *((uint16*) &g_rx.buffer[5]);
 901   2              break;
 902   2              
 903   2      //========================================================     set_emg_max_value
 904   2              case 16:        //Emg max value - uint32[2]
 905   2                  g_mem.emg_max_value[0] = *((uint32*) &g_rx.buffer[3]);
 906   2                  g_mem.emg_max_value[1] = *((uint32*) &g_rx.buffer[7]);
 907   2              break;
 908   2              
 909   2      //============================================================     set_emg_speed
 910   2              case 17:        //Emg max speed - uint8
 911   2                  g_mem.emg_speed = *((uint8*) &g_rx.buffer[3]);
 912   2              break;
 913   2              
 914   2      //================================================     set_double_encoder_on_off
 915   2              case 18:        //Absolute encoder flag - uint8
C51 COMPILER V9.51   COMMAND_PROCESSING                                                    02/09/2021 12:42:36 PAGE 16  

 916   2                  aux_uchar = *((uint8*) &g_rx.buffer[3]);
 917   2                  if (aux_uchar) {
 918   3                      g_mem.double_encoder_on_off = 1;
 919   3                  } else {
 920   3                      g_mem.double_encoder_on_off = 0;
 921   3                  }
 922   2              break;
 923   2              
 924   2      //===================================================     set_motor_handle_ratio
 925   2              case 19:        //Motor handle ratio - int8
 926   2                  g_mem.motor_handle_ratio = *((int8*) &g_rx.buffer[3]);
 927   2              break;
 928   2              
 929   2      //===================================================     set_motor_supply_type
 930   2              case 20:        //Motor type - uint8
 931   2                  g_mem.activate_pwm_rescaling = g_rx.buffer[3];
 932   2              break;
 933   2      //============================================================     set_rest_pos
 934   2              case 21:        //Rest Position - int32
 935   2                  g_mem.rest_pos = *((int32 *) &g_rx.buffer[3]);
 936   2                  g_mem.rest_pos = g_mem.rest_pos << g_mem.res[0];
 937   2              break;   
 938   2      //============================================================     set_rest_delay_pos
 939   2              case 22:        //Rest Position Time Delay - int32
 940   2                  g_mem.rest_delay = *((int32 *) &g_rx.buffer[3]);
 941   2                  if (g_mem.rest_delay < 10) g_mem.rest_delay = 10;
 942   2              break;   
 943   2      //============================================================     set_rest_vel
 944   2              case 23:       //Rest Position Velocity - int32
 945   2                  g_mem.rest_vel = *((int32 *) &g_rx.buffer[3]);
 946   2              break;                    
 947   2      //===================================================     set_curr_lookup_table
 948   2              case 24:        //Current lookup table - float
 949   2                  for(i = 0; i < LOOKUP_DIM; i++)
 950   2                      g_mem.curr_lookup[i] = *((float *) &g_rx.buffer[3 + i*4]);
 951   2              break;
 952   2      //=======================================================     set_rest_position_flag
 953   2              case 25:        //Rest position flag - int8
 954   2                  g_mem.rest_position_flag = *((uint8*) &g_rx.buffer[3]);
 955   2              break; 
 956   2      //===================================================     set_switch_emg
 957   2              case 26:        //EMG inversion - uint8
 958   2                  g_mem.switch_emg = g_rx.buffer[3];
 959   2              break;             
 960   2      //===================================================     reset_counters
 961   2              case 27:        //Reset counters - uint8
 962   2                  aux_uchar = *((uint8*) &g_rx.buffer[3]);
 963   2                  if (aux_uchar) {
 964   3                      reset_counters();
 965   3                  }
 966   2              break;
 967   2      //========================================================    set_maintenance_date
 968   2              case 28:         //Maintenance date - uint8[3]
 969   2                  g_mem.maint_day     = g_rx.buffer[3];
 970   2                  g_mem.maint_month   = g_rx.buffer[4];
 971   2                  g_mem.maint_year    = g_rx.buffer[5];
 972   2              break;                   
 973   2          }
 974   1      }
 975          
 976          //==============================================================================
 977          //                                                            COMMAND SET ZEROS
C51 COMPILER V9.51   COMMAND_PROCESSING                                                    02/09/2021 12:42:36 PAGE 17  

 978          //==============================================================================
 979          
 980          void setZeros()
 981          {
 982   1          uint8 CYDATA i;        // iterator
 983   1      
 984   1          for(i = 0; i < NUM_OF_SENSORS; ++i) {
 985   2              g_mem.m_off[i] = *((int16 *) &g_rx.buffer[1 + i * 2]);
 986   2              g_mem.m_off[i] = g_mem.m_off[i] << g_mem.res[i];
 987   2      
 988   2              g_meas.rot[i] = 0;
 989   2          }
 990   1          reset_last_value_flag = 1;
 991   1      
 992   1          sendAcknowledgment(ACK_OK);
 993   1      }
 994          
 995          //==============================================================================
 996          //                                                   PREPARE GENERIC DEVICE INFO
 997          //==============================================================================
 998          
 999          void prepare_generic_info(char *info_string)
1000          {
1001   1          int i;
1002   1                  
1003   1          if(c_mem.id != 250){                //To avoid dummy board ping
1004   2              char str[100];
1005   2              strcpy(info_string, "");
1006   2              strcat(info_string, "\r\n");
1007   2              strcat(info_string, "Firmware version: ");
1008   2              strcat(info_string, VERSION);
1009   2              strcat(info_string, ".\r\n\r\n");
1010   2      
1011   2              strcat(info_string, "DEVICE INFO\r\n");
1012   2              sprintf(str, "ID: %d\r\n", (int) c_mem.id);
1013   2              strcat(info_string, str);
1014   2              strcat(info_string, "PWM rescaling activation: ");
1015   2              if(c_mem.activate_pwm_rescaling == MAXON_12V)
1016   2                  strcat(info_string, "YES\n");
1017   2              else
1018   2                  strcat(info_string, "NO\n");
1019   2              
1020   2              sprintf(str, "PWM Limit: %d\r\n", (int) dev_pwm_limit);
1021   2              strcat(info_string, str);
1022   2              strcat(info_string, "\r\n");
1023   2      
1024   2              strcat(info_string, "MOTOR INFO\r\n");
1025   2              strcat(info_string, "Motor reference");
1026   2              
1027   2              if(g_mem.control_mode == CONTROL_CURRENT)
1028   2                  strcat(info_string," - Currents: ");
1029   2              else {
1030   3                  if (g_mem.control_mode == CONTROL_PWM)
1031   3                      strcat(info_string," - Pwm: ");
1032   3                  else
1033   3                      strcat(info_string," - Position: ");
1034   3              }
1035   2          
1036   2              for (i = 0; i < NUM_OF_MOTORS; i++) {
1037   3                  if(g_mem.control_mode == CONTROL_CURRENT) {
1038   4                      sprintf(str, "%d ", (int)(g_ref.curr[i]));
1039   4                      strcat(info_string,str);
C51 COMPILER V9.51   COMMAND_PROCESSING                                                    02/09/2021 12:42:36 PAGE 18  

1040   4                  }
1041   3                  else {
1042   4                      if(g_mem.control_mode == CONTROL_PWM) {
1043   5                          sprintf(str, "%d ", (int)(g_ref.pwm[i]));
1044   5                          strcat(info_string,str);
1045   5                      }
1046   4                      else {
1047   5                          sprintf(str, "%d ", (int)(g_ref.pos[i] >> c_mem.res[i]));
1048   5                          strcat(info_string,str);
1049   5                      }
1050   4                  }
1051   3              }
1052   2              strcat(info_string,"\r\n");
1053   2              strcat(info_string, "\r\n");
1054   2      
1055   2              sprintf(str, "Motor enabled: ");
1056   2              if (g_ref.onoff & 0x03) {
1057   3                  strcat(str, "YES\r\n");
1058   3              } else {
1059   3                  strcat(str, "NO\r\n");
1060   3              }
1061   2              strcat(info_string, str);
1062   2      
1063   2              strcat(info_string, "\r\nMEASUREMENTS INFO\r\n");
1064   2              strcat(info_string, "Sensor value:\r\n");
1065   2              for (i = 0; i < NUM_OF_SENSORS; i++) {
1066   3                  sprintf(str, "%d -> %d", i+1,
1067   3                  (int)(g_meas.pos[i] >> c_mem.res[i]));
1068   3                  strcat(info_string, str);
1069   3                  strcat(info_string, "\r\n");
1070   3              }
1071   2      
1072   2              sprintf(str, "Battery Voltage (mV): %ld", (int32) dev_tension );
1073   2              strcat(info_string, str);
1074   2              strcat(info_string, "\r\n");
1075   2              
1076   2              sprintf(str, "Full charge power tension (mV): %ld", (int32) pow_tension );
1077   2              strcat(info_string, str);
1078   2              strcat(info_string, "\r\n");
1079   2      
1080   2              sprintf(str, "Current (mA): %ld", (int32) g_meas.curr[0] );
1081   2              strcat(info_string, str);
1082   2              strcat(info_string, "\r\n");
1083   2      
1084   2      
1085   2              strcat(info_string, "\r\nDEVICE PARAMETERS\r\n");
1086   2      
1087   2              strcat(info_string, "PID Controller:\r\n");
1088   2              if(c_mem.control_mode != CURR_AND_POS_CONTROL) {
1089   3                  sprintf(str, "P -> %f  ", ((double) c_mem.k_p / 65536));
1090   3                  strcat(info_string, str);
1091   3                  sprintf(str, "I -> %f  ", ((double) c_mem.k_i / 65536));
1092   3                  strcat(info_string, str);
1093   3                  sprintf(str, "D -> %f\r\n", ((double) c_mem.k_d / 65536));
1094   3                  strcat(info_string, str);
1095   3              }
1096   2              else { 
1097   3                  sprintf(str, "P -> %f  ", ((double) c_mem.k_p_dl / 8192));
1098   3                  strcat(info_string, str);
1099   3                  sprintf(str, "I -> %f  ", ((double) c_mem.k_i_dl / 8192));
1100   3                  strcat(info_string, str);
1101   3                  sprintf(str, "D -> %f\r\n", ((double) c_mem.k_d_dl / 8192));
C51 COMPILER V9.51   COMMAND_PROCESSING                                                    02/09/2021 12:42:36 PAGE 19  

1102   3                  strcat(info_string, str);
1103   3              }
1104   2      
1105   2              strcat(info_string, "Current PID Controller:\r\n");
1106   2              if(c_mem.control_mode != CURR_AND_POS_CONTROL) {
1107   3                  sprintf(str, "P -> %f  ", ((double) c_mem.k_p_c / 65536));
1108   3                  strcat(info_string, str);
1109   3                  sprintf(str, "I -> %f  ", ((double) c_mem.k_i_c / 65536));
1110   3                  strcat(info_string, str);
1111   3                  sprintf(str, "D -> %f\r\n", ((double) c_mem.k_d_c / 65536));
1112   3                  strcat(info_string, str);
1113   3              }
1114   2              else {
1115   3                  sprintf(str, "P -> %f  ", ((double) c_mem.k_p_c_dl / 8192));
1116   3                  strcat(info_string, str);
1117   3                  sprintf(str, "I -> %f  ", ((double) c_mem.k_i_c_dl / 8192));
1118   3                  strcat(info_string, str);
1119   3                  sprintf(str, "D -> %f\r\n", ((double) c_mem.k_d_c_dl / 8192));
1120   3                  strcat(info_string, str);
1121   3              }
1122   2      
1123   2              strcat(info_string, "\r\n");
1124   2      
1125   2              if (c_mem.activ == 0x03)
1126   2                  strcat(info_string, "Startup activation: YES\r\n");
1127   2              else
1128   2                  strcat(info_string, "Startup activation: NO\r\n");
1129   2      
1130   2              switch(c_mem.input_mode) {
1131   3                  case INPUT_MODE_EXTERNAL:
1132   3                      strcat(info_string, "Input mode: USB\r\n");
1133   3                      break;
1134   3                  case INPUT_MODE_ENCODER3:
1135   3                      strcat(info_string, "Input mode: Handle\r\n");
1136   3                      break;
1137   3                  case INPUT_MODE_EMG_PROPORTIONAL:
1138   3                      strcat(info_string, "Input mode: EMG proportional\r\n");
1139   3                      break;
1140   3                  case INPUT_MODE_EMG_INTEGRAL:
1141   3                      strcat(info_string, "Input mode: EMG integral\r\n");
1142   3                      break;
1143   3                  case INPUT_MODE_EMG_FCFS:
1144   3                      strcat(info_string, "Input mode: EMG FCFS\r\n");
1145   3                      break;
1146   3                  case INPUT_MODE_EMG_FCFS_ADV:
1147   3                      strcat(info_string, "Input mode: EMG FCFS ADV\r\n");
1148   3                      break;
1149   3              }
1150   2      
1151   2              switch(c_mem.control_mode) {
1152   3                  case CONTROL_ANGLE:
1153   3                      strcat(info_string, "Control mode: Position\r\n");
1154   3                      break;
1155   3                  case CONTROL_PWM:
1156   3                      strcat(info_string, "Control mode: PWM\r\n");
1157   3                      break;
1158   3                  case CONTROL_CURRENT:
1159   3                      strcat(info_string, "Control mode: Current\r\n");
1160   3                      break;
1161   3                  case CURR_AND_POS_CONTROL:
1162   3                      strcat(info_string, "Control mode: Position and Current\r\n");
1163   3                      break;
C51 COMPILER V9.51   COMMAND_PROCESSING                                                    02/09/2021 12:42:36 PAGE 20  

1164   3                  default:
1165   3                      break;
1166   3              }
1167   2      
1168   2              if (c_mem.double_encoder_on_off)
1169   2                  strcat(info_string, "Absolute encoder position: YES\r\n");
1170   2              else
1171   2                  strcat(info_string, "Absolute encoder position: NO\r\n");
1172   2      
1173   2              sprintf(str, "Motor-Handle Ratio: %d\r\n", (int)c_mem.motor_handle_ratio);
1174   2              strcat(info_string, str);
1175   2      
1176   2              strcat(info_string, "Sensor resolution:\r\n");
1177   2              for (i = 0; i < NUM_OF_SENSORS; ++i) {
1178   3                  sprintf(str, "%d -> %d", (int) (i + 1), (int) c_mem.res[i]);
1179   3                  strcat(info_string, str);
1180   3                  strcat(info_string, "\r\n");
1181   3              }
1182   2      
1183   2              strcat(info_string, "Measurement Offset:\r\n");
1184   2              for (i = 0; i < NUM_OF_SENSORS; ++i) {
1185   3                  sprintf(str, "%d -> %ld", (int) (i + 1), (int32) c_mem.m_off[i] >> c_mem.res[i]);
1186   3                  strcat(info_string, str);
1187   3                  strcat(info_string, "\r\n");
1188   3              }
1189   2      
1190   2              strcat(info_string, "Measurement Multiplier:\r\n");
1191   2              for (i = 0; i < NUM_OF_SENSORS; ++i) {
1192   3                  sprintf(str,"%d -> %f", (int)(i + 1), (double) c_mem.m_mult[i]);
1193   3                  strcat(info_string, str);
1194   3                  strcat(info_string,"\r\n");
1195   3              }
1196   2              
1197   2              strcat(info_string, "Current lookup table:\r\n");
1198   2              sprintf(str, "p[0] - p[2]: %f, %f, %f\n", c_mem.curr_lookup[0], c_mem.curr_lookup[1], c_mem.curr_l
             -ookup[2]);
1199   2              strcat(info_string, str);
1200   2              sprintf(str, "p[3] - p[5]: %f, %f, %f\n", c_mem.curr_lookup[3], c_mem.curr_lookup[4], c_mem.curr_l
             -ookup[5]);
1201   2              strcat(info_string, str);
1202   2              strcat(info_string,"\r\n");
1203   2              
1204   2      
1205   2              sprintf(str, "Position limit active: %d", (int)g_mem.pos_lim_flag);
1206   2              strcat(info_string, str);
1207   2              strcat(info_string, "\r\n");
1208   2      
1209   2              for (i = 0; i < NUM_OF_MOTORS - 1; i++) {
1210   3                  sprintf(str, "Position limit motor %d: inf -> %ld  ", (int)(i + 1),
1211   3                  (int32)g_mem.pos_lim_inf[i] >> g_mem.res[i]);
1212   3                  strcat(info_string, str);
1213   3      
1214   3                  sprintf(str, "sup -> %ld\r\n",
1215   3                  (int32)g_mem.pos_lim_sup[i] >> g_mem.res[i]);
1216   3                  strcat(info_string, str);
1217   3              }
1218   2      
1219   2              sprintf(str, "Max step pos and neg: %d %d", (int)g_mem.max_step_pos, (int)g_mem.max_step_neg);
1220   2              strcat(info_string, str);
1221   2              strcat(info_string, "\r\n");
1222   2      
1223   2              sprintf(str, "Current limit: %d", (int)g_mem.current_limit);
C51 COMPILER V9.51   COMMAND_PROCESSING                                                    02/09/2021 12:42:36 PAGE 21  

1224   2              strcat(info_string, str);
1225   2              strcat(info_string, "\r\n");
1226   2      
1227   2              sprintf(str, "EMG thresholds [0 - 1024]: %u, %u", g_mem.emg_threshold[0], g_mem.emg_threshold[1]);
1228   2              strcat(info_string, str);
1229   2              strcat(info_string, "\r\n");
1230   2      
1231   2              sprintf(str, "EMG max values [0 - 4096]: %lu, %lu", g_mem.emg_max_value[0], g_mem.emg_max_value[1]
             -);
1232   2              strcat(info_string, str);
1233   2              strcat(info_string, "\r\n");
1234   2      
1235   2              if (g_mem.emg_calibration_flag)
1236   2                  strcat(info_string, "Calibration enabled: YES\r\n");
1237   2              else
1238   2                  strcat(info_string, "Calibration enabled: NO\r\n");
1239   2      
1240   2              sprintf(str, "EMG max speed: %d", (int)g_mem.emg_speed);
1241   2              strcat(info_string, str);
1242   2              strcat(info_string, "\r\n");
1243   2          
1244   2              if (g_mem.rest_position_flag == TRUE) {
1245   3                  sprintf(str, "Rest time delay (ms): %d", (int)g_mem.rest_delay);
1246   3                  strcat(info_string, str);
1247   3                  strcat(info_string, "\r\n");
1248   3                  
1249   3                  sprintf(str, "Rest velocity closure (ticks/sec): %d", (int)g_mem.rest_vel);
1250   3                  strcat(info_string, str);
1251   3                  strcat(info_string, "\r\n");
1252   3                  
1253   3                  sprintf(str, "Rest position: %d", (int)(g_mem.rest_pos >> c_mem.res[0]));
1254   3                  strcat(info_string, str);
1255   3                  strcat(info_string, "\r\n");   
1256   3              }
1257   2              
1258   2              sprintf(str, "debug: %ld", (uint32)timer_value0 - (uint32)timer_value); //5000001
1259   2              strcat(info_string, str);
1260   2              strcat(info_string, "\r\n");
1261   2          }
1262   1      }
1263          
1264          //==============================================================================
1265          //                                                   PREPARE GENERIC DEVICE INFO
1266          //==============================================================================
1267          
1268          void prepare_counter_info(char *info_string)
1269          {
1270   1          char str[100];  
1271   1          int i;
1272   1          int step;
1273   1      
1274   1          strcat(info_string, "\r\nUSAGE STATISTICS\r\n");
1275   1          strcat(info_string, "\r\n");
1276   1          
1277   1          sprintf(str, "Date of maintenance: %d/%d/20%d\r\n", (int)g_mem.maint_day, (int)g_mem.maint_month, (int
             -)g_mem.maint_year);
1278   1          strcat(info_string, str);
1279   1          
1280   1          sprintf(str, "Positions histogram (ticks):\r\n");
1281   1          strcat(info_string, str);
1282   1          step = ( (int)(g_mem.pos_lim_sup[0] >> g_mem.res[0]) / 10);
1283   1          for (i=1; i<=10;i++){
C51 COMPILER V9.51   COMMAND_PROCESSING                                                    02/09/2021 12:42:36 PAGE 22  

1284   2              sprintf(str, "Bin %d [%d-%d]: %lu\r\n", i, step*(i-1)+1, step*(i), g_mem.position_hist[i-1]); 
1285   2              strcat(info_string, str);
1286   2          }
1287   1          strcat(info_string, "\r\n");
1288   1          
1289   1          sprintf(str, "Current histogram (mA):\r\n");
1290   1          strcat(info_string, str);
1291   1          step = ( (int)(g_mem.current_limit) / 4);
1292   1          for (i=1; i<=4;i++){
1293   2              sprintf(str, "Threshold %d [%d-%d]: %lu\r\n", i, step*(i-1), step*(i), g_mem.current_hist[i-1]); 
1294   2              strcat(info_string, str);
1295   2          }
1296   1          strcat(info_string, "\r\n");
1297   1                  
1298   1          sprintf(str, "EMG activations counter: %lu, %lu", g_mem.emg_counter[0], g_mem.emg_counter[1]);
1299   1          strcat(info_string, str);
1300   1          strcat(info_string, "\r\n");
1301   1          
1302   1          sprintf(str, "Rest position occurrences: %lu", g_mem.rest_counter);
1303   1          strcat(info_string, str);
1304   1          strcat(info_string, "\r\n");
1305   1          
1306   1          sprintf(str, "Angle total displacement (ticks): %lu", g_mem.wire_disp);
1307   1          strcat(info_string, str);
1308   1          strcat(info_string, "\r\n");
1309   1          
1310   1          sprintf(str, "Total power on time (sec): %lu", g_mem.total_time_on);
1311   1          strcat(info_string, str);
1312   1          strcat(info_string, "\r\n");
1313   1          
1314   1          sprintf(str, "Total rest position time (sec): %lu", g_mem.total_time_rest);
1315   1          strcat(info_string, str);
1316   1          strcat(info_string, "\r\n");
1317   1      
1318   1      }
1319          
1320          //==============================================================================
1321          //                                                     WRITE FUNCTIONS FOR RS485
1322          //==============================================================================
1323          
1324          void commWrite_old_id(uint8 *packet_data, uint16 packet_lenght, uint8 old_id)
1325          {
1326   1          uint16 CYDATA index;    // iterator
1327   1      
1328   1          // frame - start
1329   1          UART_RS485_PutChar(':');
1330   1          UART_RS485_PutChar(':');
1331   1          // frame - ID
1332   1          //if(old_id)
1333   1              UART_RS485_PutChar(old_id);
1334   1          //else
1335   1              //UART_RS485_PutChar(g_mem.id);
1336   1              
1337   1          // frame - length
1338   1          UART_RS485_PutChar((uint8)packet_lenght);
1339   1          // frame - packet data
1340   1          for(index = 0; index < packet_lenght; ++index) {
1341   2              UART_RS485_PutChar(packet_data[index]);
1342   2          }
1343   1      
1344   1          index = 0;
1345   1      
C51 COMPILER V9.51   COMMAND_PROCESSING                                                    02/09/2021 12:42:36 PAGE 23  

1346   1          while(!(UART_RS485_ReadTxStatus() & UART_RS485_TX_STS_COMPLETE) && index++ <= 1000){}
1347   1      
1348   1          RS485_CTS_Write(1);
1349   1          RS485_CTS_Write(0);
1350   1      }
1351          
1352          void commWrite(uint8 *packet_data, uint16 packet_lenght)
1353          {
1354   1          uint16 CYDATA index;    // iterator
1355   1      
1356   1          // frame - start
1357   1          UART_RS485_PutChar(':');
1358   1          UART_RS485_PutChar(':');
1359   1          // frame - ID
1360   1          UART_RS485_PutChar(g_mem.id);
1361   1          // frame - length
1362   1          UART_RS485_PutChar((uint8)packet_lenght);
1363   1          // frame - packet data
1364   1          for(index = 0; index < packet_lenght; ++index) {
1365   2              UART_RS485_PutChar(packet_data[index]);
1366   2          }
1367   1      
1368   1          index = 0;
1369   1      
1370   1          while(!(UART_RS485_ReadTxStatus() & UART_RS485_TX_STS_COMPLETE) && index++ <= 1000){}
1371   1      
1372   1          RS485_CTS_Write(1);
1373   1          RS485_CTS_Write(0);
1374   1      }
1375          
1376          void commWrite_to_cuff(uint8 *packet_data, uint16 packet_lenght)
1377          {
1378   1          uint16 CYDATA index;    // iterator
1379   1      
1380   1          // frame - start
1381   1          UART_RS485_PutChar(':');
1382   1          UART_RS485_PutChar(':');
1383   1          // frame - ID
1384   1          UART_RS485_PutChar(g_mem.id - 1);
1385   1          // frame - length
1386   1          UART_RS485_PutChar((uint8)packet_lenght);
1387   1          // frame - packet data
1388   1          for(index = 0; index < packet_lenght; ++index) {
1389   2              UART_RS485_PutChar(packet_data[index]);
1390   2          }
1391   1      
1392   1          index = 0;
1393   1      
1394   1          while(!(UART_RS485_ReadTxStatus() & UART_RS485_TX_STS_COMPLETE) && index++ <= 1000){}
1395   1      }
1396          
1397          //==============================================================================
1398          //                                                             CHECKSUM FUNCTION
1399          //==============================================================================
1400          
1401          // Performs a XOR byte by byte on the entire vector
1402          
1403          uint8 LCRChecksum(uint8 *data_array, uint8 data_length) {
1404   1          
1405   1          uint8 CYDATA i;
1406   1          uint8 CYDATA checksum = 0x00;
1407   1          
C51 COMPILER V9.51   COMMAND_PROCESSING                                                    02/09/2021 12:42:36 PAGE 24  

1408   1          for(i = 0; i < data_length; ++i)
1409   1             checksum ^= data_array[i];
1410   1        
1411   1          return checksum;
1412   1      }
1413          
1414          
1415          //==============================================================================
1416          //                                                       ACKNOWLEDGMENT FUNCTION
1417          //==============================================================================
1418          
1419          void sendAcknowledgment(uint8 value) {
1420   1          int packet_lenght = 2;
1421   1          uint8 packet_data[2];
1422   1      
1423   1          packet_data[0] = value;
1424   1          packet_data[1] = value;
1425   1      
1426   1          commWrite(packet_data, packet_lenght);
1427   1      }
1428          
1429          //==============================================================================
1430          //                                                                  STORE MEMORY
1431          //==============================================================================
1432          
1433          
1434          uint8 memStore(int displacement)
1435          {
1436   1          int i;  // iterator
1437   1          uint8 writeStatus;
1438   1          int pages;
1439   1          uint8 ret_val = 1;
1440   1      
1441   1          // Disable Interrupt
1442   1          ISR_RS485_RX_Disable();
1443   1      
1444   1          // Stop motors
1445   1          PWM_MOTORS_WriteCompare1(0);
1446   1          PWM_MOTORS_WriteCompare2(0);
1447   1      
1448   1          // Retrieve temperature for better writing performance
1449   1          CySetTemp();
1450   1      
1451   1          memcpy( &c_mem, &g_mem, sizeof(g_mem) );
1452   1      
1453   1          pages = sizeof(g_mem) / 16 + (sizeof(g_mem) % 16 > 0);
1454   1      
1455   1          for(i = 0; i < pages; ++i) {
1456   2              writeStatus = EEPROM_Write(&g_mem.flag + 16 * i, i + displacement);
1457   2              if(writeStatus != CYRET_SUCCESS) {
1458   3                  ret_val = 0;
1459   3                  break;
1460   3              }
1461   2          }
1462   1      
1463   1          memcpy( &g_mem, &c_mem, sizeof(g_mem) );
1464   1      
1465   1          // Re-Enable Interrupt
1466   1          ISR_RS485_RX_Enable();
1467   1      
1468   1          return ret_val;
1469   1      }
C51 COMPILER V9.51   COMMAND_PROCESSING                                                    02/09/2021 12:42:36 PAGE 25  

1470          
1471          
1472          //==============================================================================
1473          //                                                                 RECALL MEMORY
1474          //==============================================================================
1475          
1476          
1477          void memRecall(void)
1478          {
1479   1          uint16 i;
1480   1      
1481   1          for (i = 0; i < sizeof(g_mem); i++) {
1482   2              ((reg8 *) &g_mem.flag)[i] = EEPROM_ADDR[i];
1483   2          }
1484   1      
1485   1          //check for initialization
1486   1          if (g_mem.flag == FALSE) {
1487   2              memRestore();
1488   2          } else {
1489   2              memcpy( &c_mem, &g_mem, sizeof(g_mem) );
1490   2          }
1491   1      }
1492          
1493          
1494          //==============================================================================
1495          //                                                                RESTORE MEMORY
1496          //==============================================================================
1497          
1498          
1499          uint8 memRestore(void) {
1500   1          uint16 i;
1501   1      
1502   1          for (i = 0; i < sizeof(g_mem); i++) {
1503   2              ((reg8 *) &g_mem.flag)[i] = EEPROM_ADDR[i + (DEFAULT_EEPROM_DISPLACEMENT * 16)];
1504   2          }
1505   1      
1506   1          //check for initialization
1507   1          if (g_mem.flag == FALSE) {
1508   2              return memInit();
1509   2          } else {
1510   2              return memStore(0);
1511   2          }
1512   1      }
1513          
1514          //==============================================================================
1515          //                                                                   MEMORY INIT
1516          //==============================================================================
1517          
1518          uint8 memInit(void)
1519          {
1520   1          uint8 i;
1521   1      
1522   1          //initialize memory settings
1523   1          g_mem.id            = 1;
1524   1      
1525   1          g_mem.k_p           = 0.015 * 65536;
1526   1          g_mem.k_i           =     0 * 65536;
1527   1          g_mem.k_d           = 0.007 * 65536;  //Changed in order to avoid metallic clatter previous value 0.2
1528   1          g_mem.k_p_c         =     1 * 65536;
1529   1          g_mem.k_i_c         = 0.001 * 65536;
1530   1          g_mem.k_d_c         =     0 * 65536;
1531   1      
C51 COMPILER V9.51   COMMAND_PROCESSING                                                    02/09/2021 12:42:36 PAGE 26  

1532   1          g_mem.k_p_dl        =   0.1 * 8192;
1533   1          g_mem.k_i_dl        =     0 * 8192;
1534   1          g_mem.k_d_dl        =     0 * 8192;
1535   1          g_mem.k_p_c_dl      =   0.3 * 8192;
1536   1          g_mem.k_i_c_dl      =0.0002 * 8192;
1537   1          g_mem.k_d_c_dl      =     0 * 8192;
1538   1      
1539   1          g_mem.activ         = 0;
1540   1          g_mem.input_mode    = INPUT_MODE_EXTERNAL;
1541   1          g_mem.control_mode  = CONTROL_ANGLE;
1542   1      
1543   1          g_mem.pos_lim_flag = 1;
1544   1      
1545   1          g_mem.activate_pwm_rescaling = MAXON_24V;           //rescaling active for 12V motors
1546   1      
1547   1          g_mem.res[0] = 3;
1548   1          g_mem.res[1] = 3;
1549   1          g_mem.res[2] = 3;
1550   1      
1551   1          for (i = 0; i < NUM_OF_MOTORS; i++) {
1552   2              g_mem.pos_lim_inf[i] = 0;
1553   2              g_mem.pos_lim_sup[i] = (int32)19000 << g_mem.res[0];
1554   2          }
1555   1      
1556   1          for(i = 0; i < NUM_OF_SENSORS; ++i)
1557   1          {
1558   2              g_mem.m_mult[i] = 1;
1559   2              g_mem.m_off[i] = (int32)0 << g_mem.res[i];
1560   2          }
1561   1      
1562   1          g_mem.max_step_pos = 0;
1563   1          g_mem.max_step_neg = 0;
1564   1      
1565   1          g_mem.current_limit = DEFAULT_CURRENT_LIMIT;
1566   1      
1567   1          // EMG calibration enabled by default
1568   1          g_mem.emg_calibration_flag = 0;
1569   1      
1570   1          g_mem.emg_max_value[0] = 1024;
1571   1          g_mem.emg_max_value[1] = 1024;
1572   1      
1573   1          g_mem.emg_threshold[0] = 100;
1574   1          g_mem.emg_threshold[1] = 100;
1575   1      
1576   1          g_mem.emg_speed = 100;
1577   1          
1578   1          g_mem.watchdog_period = 0;
1579   1      
1580   1          g_mem.double_encoder_on_off = 1;
1581   1          g_mem.motor_handle_ratio = 22;
1582   1      
1583   1          //Initialize rest position parameters        
1584   1          g_mem.rest_position_flag = FALSE;
1585   1          g_mem.rest_pos = (int32)7000 << g_mem.res[0]; // 56000
1586   1          g_mem.rest_delay = 10;
1587   1          g_mem.rest_vel = 10000;
1588   1          g_mem.switch_emg = 0;
1589   1          
1590   1          for(i=0; i<9; i++) {
1591   2              g_mem.unused_bytes[i] = 0;
1592   2          }
1593   1          
C51 COMPILER V9.51   COMMAND_PROCESSING                                                    02/09/2021 12:42:36 PAGE 27  

1594   1          //Initialize counters        
1595   1          g_mem.emg_counter[0] = g_mem.emg_counter[1] = 0;
1596   1          for(i = 0; i< 10; i++){
1597   2              g_mem.position_hist[i] = 0;
1598   2          }
1599   1          for(i = 0; i< 4; i++){
1600   2              g_mem.current_hist[i] = 0;
1601   2          }
1602   1          g_mem.rest_counter = 0;
1603   1          g_mem.wire_disp = 0;
1604   1          g_mem.total_time_on = 0;
1605   1          g_mem.total_time_rest = 0;
1606   1          
1607   1          // set the initialized flag to show EEPROM has been populated
1608   1          g_mem.flag = TRUE;
1609   1          
1610   1          //write that configuration to EEPROM
1611   1          return ( memStore(0) && memStore(DEFAULT_EEPROM_DISPLACEMENT) );
1612   1      }
1613          
1614          //==============================================================================
1615          //                                                    ROUTINE INTERRUPT FUNCTION
1616          //==============================================================================
1617          /**
1618          * Bunch of functions used on request from UART communication
1619          **/
1620          
1621          void cmd_get_measurements(){
1622   1       
1623   1          uint8 CYDATA index;
1624   1         
1625   1          // Packet: header + measure(int16) + crc
1626   1          
1627   1          uint8 packet_data[8]; 
1628   1          
1629   1          //Header package
1630   1          packet_data[0] = CMD_GET_MEASUREMENTS;   
1631   1          
1632   1          for (index = NUM_OF_SENSORS; index--;) 
1633   1              *((int16 *) &packet_data[(index << 1) + 1]) = (int16)(g_measOld.pos[index] >> g_mem.res[index]);
1634   1                  
1635   1          // Calculate Checksum and send message to UART 
1636   1      
1637   1          packet_data[7] = LCRChecksum (packet_data, 7);
1638   1      
1639   1          commWrite(packet_data, 8);
1640   1         
1641   1      }
1642          
1643          void cmd_get_velocities(){
1644   1       
1645   1          uint8 CYDATA index;
1646   1         
1647   1          // Packet: header + measure(int16) + crc
1648   1          
1649   1          uint8 packet_data[8]; 
1650   1          
1651   1          //Header package
1652   1          packet_data[0] = CMD_GET_VELOCITIES;   
1653   1          
1654   1          for (index = NUM_OF_SENSORS; index--;) 
1655   1              *((int16 *) &packet_data[(index << 1) + 1]) = (int16) (g_measOld.vel[index] >> g_mem.res[index]);
C51 COMPILER V9.51   COMMAND_PROCESSING                                                    02/09/2021 12:42:36 PAGE 28  

1656   1                  
1657   1          // Calculate Checksum and send message to UART 
1658   1      
1659   1          packet_data[7] = LCRChecksum (packet_data, 7);
1660   1      
1661   1          commWrite(packet_data, 8);
1662   1         
1663   1      }
1664          
1665          void cmd_get_accelerations(){
1666   1       
1667   1          uint8 CYDATA index;
1668   1         
1669   1          // Packet: header + measure(int16) + crc
1670   1          
1671   1          uint8 packet_data[8]; 
1672   1          
1673   1          //Header package
1674   1          packet_data[0] = CMD_GET_ACCEL;   
1675   1          
1676   1          for (index = NUM_OF_SENSORS; index--;) 
1677   1              *((int16 *) &packet_data[(index << 1) + 1]) = (int16)(g_measOld.acc[index] >> g_mem.res[index]);
1678   1                  
1679   1          // Calculate Checksum and send message to UART 
1680   1      
1681   1          packet_data[7] = LCRChecksum (packet_data, 7);
1682   1      
1683   1          commWrite(packet_data, 8);
1684   1         
1685   1      }
1686          
1687          void cmd_set_inputs(){
1688   1          
1689   1          // Store position setted in right variables
1690   1      
1691   1          if(g_mem.control_mode == CONTROL_CURRENT) {
1692   2              g_refNew.curr[0] = *((int16 *) &g_rx.buffer[1]);
1693   2              g_refNew.curr[1] = *((int16 *) &g_rx.buffer[3]);
1694   2          }
1695   1          else {
1696   2              if(g_mem.control_mode == CONTROL_PWM) {
1697   3                  g_refNew.pwm[0] = *((int16 *) &g_rx.buffer[1]);
1698   3                  g_refNew.pwm[1] = *((int16 *) &g_rx.buffer[3]);
1699   3              }
1700   2              else {
1701   3                  if(g_mem.control_mode == CURR_AND_POS_CONTROL) {
1702   4                      // first input: position, second input: current_offset
1703   4                      g_refNew.pos[0] = *((int16 *) &g_rx.buffer[1]);   // motor 1
1704   4                      g_refNew.pos[0] = g_refNew.pos[0] << g_mem.res[0];
1705   4                      
1706   4                      g_refNew.curr_offset = *((int16 *) &g_rx.buffer[3]);
1707   4                      if (g_refNew.curr_offset < 0) {
1708   5                          g_refNew.curr_offset = 0;
1709   5                      }
1710   4                  }
1711   3                  else {
1712   4                      // CONTROL_ANGLE
1713   4                      g_refNew.pos[0] = *((int16 *) &g_rx.buffer[1]);   // motor 1
1714   4                      g_refNew.pos[0] = g_refNew.pos[0] << g_mem.res[0];
1715   4      
1716   4                      g_refNew.pos[1] = *((int16 *) &g_rx.buffer[3]);   // motor 2
1717   4                      g_refNew.pos[1] = g_refNew.pos[1] << g_mem.res[1];
C51 COMPILER V9.51   COMMAND_PROCESSING                                                    02/09/2021 12:42:36 PAGE 29  

1718   4                  }
1719   3              }
1720   2          }
1721   1      
1722   1          // Check Position Limit cmd
1723   1      
1724   1          // Check if the reference is nor higher or lower than the position limits
1725   1          if (c_mem.pos_lim_flag && (g_mem.control_mode == CURR_AND_POS_CONTROL || g_mem.control_mode == CONTROL
             -_ANGLE)) { 
1726   2              
1727   2              if (g_refNew.pos[0] < c_mem.pos_lim_inf[0]) 
1728   2                  g_refNew.pos[0] = c_mem.pos_lim_inf[0];
1729   2              if (g_refNew.pos[1] < c_mem.pos_lim_inf[1]) 
1730   2                  g_refNew.pos[1] = c_mem.pos_lim_inf[1];
1731   2      
1732   2              if (g_refNew.pos[0] > c_mem.pos_lim_sup[0]) 
1733   2                  g_refNew.pos[0] = c_mem.pos_lim_sup[0];
1734   2              if (g_refNew.pos[1] > c_mem.pos_lim_sup[1]) 
1735   2                  g_refNew.pos[1] = c_mem.pos_lim_sup[1];
1736   2          }
1737   1      }
1738          
1739          void cmd_activate(){
1740   1          
1741   1          // Store new value reads
1742   1          g_refNew.onoff = g_rx.buffer[1];
1743   1          
1744   1          // Check type of control mode enabled
1745   1          if ((g_mem.control_mode == CONTROL_ANGLE) || (g_mem.control_mode == CURR_AND_POS_CONTROL)) {
1746   2              g_refNew.pos[0] = g_meas.pos[0];
1747   2              g_refNew.pos[1] = g_meas.pos[1];
1748   2          }
1749   1      
1750   1          // Activate/Disactivate motors
1751   1          MOTOR_ON_OFF_Write(g_refNew.onoff);
1752   1      }
1753          
1754          void cmd_get_activate(){
1755   1          
1756   1          uint8 packet_data[3];
1757   1      
1758   1          // Header        
1759   1          packet_data[0] = CMD_GET_ACTIVATE;
1760   1          
1761   1          // Fill payload
1762   1          packet_data[1] = g_ref.onoff;
1763   1          
1764   1          // Calculate checksum
1765   1          packet_data[2] = LCRChecksum(packet_data, 2);
1766   1          
1767   1          // Send package to UART
1768   1          commWrite(packet_data, 3);
1769   1      
1770   1      }
1771          
1772          void cmd_get_curr_and_meas(){
1773   1          
1774   1          uint8 CYDATA index;
1775   1         
1776   1          //Packet: header + curr_meas(int16) + pos_meas(int16) + CRC
1777   1          
1778   1          uint8 packet_data[12]; 
C51 COMPILER V9.51   COMMAND_PROCESSING                                                    02/09/2021 12:42:36 PAGE 30  

1779   1      
1780   1          //Header package
1781   1          packet_data[0] = CMD_GET_CURR_AND_MEAS;
1782   1          
1783   1          // Currents
1784   1          *((int16 *) &packet_data[1]) = (int16) g_measOld.curr[0]; //Real current.
1785   1          *((int16 *) &packet_data[3]) = (int16) g_measOld.curr[1]; //Estimated current.
1786   1      
1787   1          // Positions
1788   1          for (index = NUM_OF_SENSORS; index--;) 
1789   1              *((int16 *) &packet_data[(index << 1) + 5]) = (int16) (g_measOld.pos[index] >> g_mem.res[index]);
1790   1              
1791   1          // Calculate Checksum and send message to UART 
1792   1              
1793   1          packet_data[11] = LCRChecksum (packet_data, 11);
1794   1          commWrite(packet_data, 12);
1795   1         
1796   1      }
1797          
1798          void cmd_get_currents(){
1799   1          
1800   1          // Packet: header + motor_measure(int16) + crc
1801   1          
1802   1          uint8 packet_data[6]; 
1803   1          
1804   1          //Header package
1805   1      
1806   1          packet_data[0] = CMD_GET_CURRENTS;
1807   1      
1808   1          *((int16 *) &packet_data[1]) = (int16) g_measOld.curr[0]; //Real Current.
1809   1          *((int16 *) &packet_data[3]) = (int16) g_measOld.curr[1]; //Estimated Current.
1810   1      
1811   1          // Calculate Checksum and send message to UART 
1812   1      
1813   1          packet_data[5] = LCRChecksum (packet_data, 5);
1814   1          
1815   1          commWrite(packet_data, 6);
1816   1      }
1817          
1818          void cmd_get_currents_for_cuff(){
1819   1          
1820   1          // Packet: header + motor_measure(int16) + crc
1821   1          
1822   1          uint8 packet_data[4]; 
1823   1          
1824   1          //Header package
1825   1      
1826   1          packet_data[0] = CMD_SET_CUFF_INPUTS;
1827   1      
1828   1          *((int16 *) &packet_data[1]) = (int16) g_measOld.curr[1]; //Estimated Current.
1829   1      
1830   1          // Calculate Checksum and send message to UART 
1831   1      
1832   1          packet_data[3] = LCRChecksum (packet_data, 3);
1833   1          
1834   1          commWrite_to_cuff(packet_data, 4);
1835   1      }
1836          
1837          void cmd_set_baudrate(){
1838   1          
1839   1          // Set BaudRate
1840   1          c_mem.baud_rate = g_rx.buffer[1];
C51 COMPILER V9.51   COMMAND_PROCESSING                                                    02/09/2021 12:42:36 PAGE 31  

1841   1          
1842   1          switch(g_rx.buffer[1]){
1843   2              case 13:
1844   2                  CLOCK_UART_SetDividerValue(13);
1845   2                  break;
1846   2              default:
1847   2                  CLOCK_UART_SetDividerValue(3);
1848   2          }
1849   1      }
1850          
1851          void cmd_ping(){
1852   1      
1853   1          uint8 packet_data[2];
1854   1      
1855   1          // Header
1856   1          packet_data[0] = CMD_PING;
1857   1          
1858   1          // Load Payload
1859   1          packet_data[1] = CMD_PING;
1860   1      
1861   1          // Send Package to uart
1862   1          commWrite(packet_data, 2);
1863   1      }
1864          
1865          void cmd_set_watchdog(){
1866   1            
1867   1          if (g_rx.buffer[1] <= 0){
1868   2              // Deactivate Watchdog
1869   2              WATCHDOG_ENABLER_Write(1); 
1870   2              g_mem.watchdog_period = 0;   
1871   2          }
1872   1          else{
1873   2              // Activate Watchdog        
1874   2              if (g_rx.buffer[1] > MAX_WATCHDOG_TIMER)
1875   2                  g_rx.buffer[1] = MAX_WATCHDOG_TIMER;
1876   2                  
1877   2              // Period * Time_CLK = WDT
1878   2              // Period = WTD / Time_CLK =     (WTD    )  / ( ( 1 / Freq_CLK ) )
1879   2              // Set request watchdog period - (WTD * 2)  * (250 / 1024        )
1880   2              g_mem.watchdog_period = (uint8) (((uint32) g_rx.buffer[1] * 2 * 250 ) >> 10);   
1881   2              WATCHDOG_COUNTER_WritePeriod(g_mem.watchdog_period); 
1882   2              WATCHDOG_ENABLER_Write(0); 
1883   2          }
1884   1      }
1885          
1886          void cmd_get_inputs(){
1887   1      
1888   1          // Packet: header + motor_measure(int16) + crc
1889   1      
1890   1          uint8 packet_data[6]; 
1891   1          
1892   1          //Header package
1893   1      
1894   1          packet_data[0] = CMD_GET_INPUTS;
1895   1          
1896   1          *((int16 *) &packet_data[1]) = (int16) (g_refOld.pos[0]  >> g_mem.res[0]);
1897   1          *((int16 *) &packet_data[3]) = (int16) (g_refOld.pos[1]  >> g_mem.res[1]);
1898   1          
1899   1          // Calculate Checksum and send message to UART 
1900   1      
1901   1          packet_data[5] = LCRChecksum(packet_data, 5);
1902   1      
C51 COMPILER V9.51   COMMAND_PROCESSING                                                    02/09/2021 12:42:36 PAGE 32  

1903   1          commWrite(packet_data, 6);
1904   1      }
1905          
1906          void cmd_store_params(){
1907   1          
1908   1          // Check input mode enabled
1909   1          uint32 off_1, off_2;
1910   1          float mult_1, mult_2;
1911   1          uint8 CYDATA packet_lenght = 2;
1912   1          uint8 CYDATA packet_data[2];
1913   1          uint8 CYDATA old_id;
1914   1          
1915   1          if( c_mem.input_mode == INPUT_MODE_EXTERNAL ) {
1916   2              off_1 = c_mem.m_off[0];
1917   2              off_2 = c_mem.m_off[1];
1918   2              mult_1 = c_mem.m_mult[0];
1919   2              mult_2 = c_mem.m_mult[1];
1920   2      
1921   2              g_refNew.pos[0] = (int32)((float)g_refNew.pos[0] / mult_1);
1922   2              g_refNew.pos[1] = (int32)((float)g_refNew.pos[1] / mult_2);
1923   2      
1924   2              g_refNew.pos[0] = (int32)((float)g_refNew.pos[0] * g_mem.m_mult[0]);
1925   2              g_refNew.pos[1] = (int32)((float)g_refNew.pos[1] * g_mem.m_mult[1]);
1926   2      
1927   2              g_refNew.pos[0] += (g_mem.m_off[0] - off_1);
1928   2              g_refNew.pos[1] += (g_mem.m_off[1] - off_2);
1929   2              
1930   2              // Check position Limits
1931   2      
1932   2              if (c_mem.pos_lim_flag) {                   // position limiting
1933   3                  if (g_refNew.pos[0] < c_mem.pos_lim_inf[0]) 
1934   3                      g_refNew.pos[0] = c_mem.pos_lim_inf[0];
1935   3                  if (g_refNew.pos[1] < c_mem.pos_lim_inf[1]) 
1936   3                      g_refNew.pos[1] = c_mem.pos_lim_inf[1];
1937   3      
1938   3                  if (g_refNew.pos[0] > c_mem.pos_lim_sup[0]) 
1939   3                      g_refNew.pos[0] = c_mem.pos_lim_sup[0];
1940   3                  if (g_refNew.pos[1] > c_mem.pos_lim_sup[1]) 
1941   3                      g_refNew.pos[1] = c_mem.pos_lim_sup[1];
1942   3              }
1943   2          }
1944   1          // Store params 
1945   1      
1946   1          if (c_mem.id != g_mem.id) {     //If a new id is going to be set we will lose communication 
1947   2              old_id = c_mem.id;          //after the memstore(0) and the ACK won't be recognised.
1948   2              if(memStore(0)) {
1949   3                  packet_data[0] = ACK_OK;
1950   3                  packet_data[1] = ACK_OK;
1951   3                  commWrite_old_id(packet_data, packet_lenght, old_id);
1952   3              }    
1953   2              else{
1954   3                  packet_data[0] = ACK_ERROR;
1955   3                  packet_data[1] = ACK_ERROR;
1956   3                  commWrite_old_id(packet_data, packet_lenght, old_id);
1957   3              }
1958   2          }    
1959   1          else {
1960   2              if(memStore(0))
1961   2                  sendAcknowledgment(ACK_OK);
1962   2              else
1963   2                  sendAcknowledgment(ACK_ERROR);
1964   2          }
C51 COMPILER V9.51   COMMAND_PROCESSING                                                    02/09/2021 12:42:36 PAGE 33  

1965   1      }
1966          
1967          void cmd_get_emg(){
1968   1          
1969   1          uint8 packet_data[6];
1970   1      
1971   1          // Header        
1972   1          packet_data[0] = CMD_GET_EMG;
1973   1          
1974   1          *((int16 *) &packet_data[1]) = (int16) g_measOld.emg[0];
1975   1          *((int16 *) &packet_data[3]) = (int16) g_measOld.emg[1];
1976   1      
1977   1          packet_data[5] = LCRChecksum (packet_data, 5);
1978   1      
1979   1          commWrite(packet_data, 6);
1980   1      
1981   1      }
1982          
1983          /* [] END OF FILE */
C51 COMPILER V9.51   COMMAND_PROCESSING                                                    02/09/2021 12:42:36 PAGE 34  

ASSEMBLY LISTING OF GENERATED OBJECT CODE


             ; FUNCTION commProcess (BEGIN)
                                           ; SOURCE LINE # 68
                                           ; SOURCE LINE # 72
0000 900000      E     MOV     DPTR,#g_rx
0003 E0                MOVX    A,@DPTR
0004 FF                MOV     R7,A
0005 8F00        R     MOV     rx_cmd,R7
                                           ; SOURCE LINE # 76
0007 7B01              MOV     R3,#01H
0009 7A00        E     MOV     R2,#HIGH g_rx
000B 7900        E     MOV     R1,#LOW g_rx
000D 900000      E     MOV     DPTR,#g_rx+080H
0010 E0                MOVX    A,@DPTR
0011 FE                MOV     R6,A
0012 A3                INC     DPTR
0013 E0                MOVX    A,@DPTR
0014 FF                MOV     R7,A
0015 EF                MOV     A,R7
0016 14                DEC     A
0017 FD                MOV     R5,A
0018 120000      R     LCALL   _LCRChecksum
001B 900000      E     MOV     DPTR,#g_rx+080H
001E E0                MOVX    A,@DPTR
001F FC                MOV     R4,A
0020 A3                INC     DPTR
0021 E0                MOVX    A,@DPTR
0022 FD                MOV     R5,A
0023 7400        E     MOV     A,#LOW g_rx+0FFFFH
0025 2D                ADD     A,R5
0026 F582              MOV     DPL,A
0028 7400        E     MOV     A,#HIGH g_rx+0FFFFH
002A 3C                ADDC    A,R4
002B F583              MOV     DPH,A
002D E0                MOVX    A,@DPTR
002E FE                MOV     R6,A
002F EF                MOV     A,R7
0030 B50603            CJNE    A,AR6,?C0002
0033 D3                SETB    C
0034 8001              SJMP    ?C0003
0036         ?C0002:
0036 C3                CLR     C
0037         ?C0003:
0037 4006              JC      ?C0001
                                           ; SOURCE LINE # 78
0039 900000      E     MOV     DPTR,#g_rx+084H
003C E4                CLR     A
003D F0                MOVX    @DPTR,A
003E 22                RET     
                                           ; SOURCE LINE # 80
003F         ?C0001:
                                           ; SOURCE LINE # 82
003F E500        R     MOV     A,rx_cmd
0041 120000      E     LCALL   ?C?CCASE
0044 0000        R     DW      ?C0022
0046 00                DB      00H
0047 0000        R     DW      ?C0020
0049 01                DB      01H
004A 0000        R     DW      ?C0023
004C 03                DB      03H
C51 COMPILER V9.51   COMMAND_PROCESSING                                                    02/09/2021 12:42:36 PAGE 35  

004D 0000        R     DW      ?C0024
004F 04                DB      04H
0050 0000        R     DW      ?C0027
0052 05                DB      05H
0053 0000        R     DW      ?C0019
0055 06                DB      06H
0056 0000        R     DW      ?C0033
0058 09                DB      09H
0059 0000        R     DW      ?C0030
005B 0A                DB      0AH
005C 0000        R     DW      ?C0021
005E 0C                DB      0CH
005F 0000        R     DW      ?C0034
0061 0D                DB      0DH
0062 0000        R     DW      ?C0006
0064 80                DB      080H
0065 0000        R     DW      ?C0016
0067 81                DB      081H
0068 0000        R     DW      ?C0007
006A 82                DB      082H
006B 0000        R     DW      ?C0018
006D 83                DB      083H
006E 0000        R     DW      ?C0008
0070 84                DB      084H
0071 0000        R     DW      ?C0009
0073 85                DB      085H
0074 0000        R     DW      ?C0010
0076 86                DB      086H
0077 0000        R     DW      ?C0014
0079 88                DB      088H
007A 0000        R     DW      ?C0012
007C 89                DB      089H
007D 0000        R     DW      ?C0013
007F 8B                DB      08BH
0080 0000        R     DW      ?C0011
0082 8C                DB      08CH
0083 0000        R     DW      ?C0015
0085 8F                DB      08FH
0086 0000        R     DW      ?C0017
0088 90                DB      090H
0089 0000              DW      00H
008B 0000        R     DW      ?C0004
                                           ; SOURCE LINE # 85
008D         ?C0006:
                                           ; SOURCE LINE # 86
008D 120000      R     LCALL   cmd_activate
                                           ; SOURCE LINE # 87
0090 22                RET     
                                           ; SOURCE LINE # 91
0091         ?C0007:
                                           ; SOURCE LINE # 92
0091 120000      R     LCALL   cmd_set_inputs
                                           ; SOURCE LINE # 93
0094 22                RET     
                                           ; SOURCE LINE # 97
0095         ?C0008:
                                           ; SOURCE LINE # 98
0095 120000      R     LCALL   cmd_get_measurements
                                           ; SOURCE LINE # 99
0098 22                RET     
                                           ; SOURCE LINE # 103
0099         ?C0009:
C51 COMPILER V9.51   COMMAND_PROCESSING                                                    02/09/2021 12:42:36 PAGE 36  

                                           ; SOURCE LINE # 104
0099 120000      R     LCALL   cmd_get_currents
                                           ; SOURCE LINE # 105
009C 22                RET     
                                           ; SOURCE LINE # 109
009D         ?C0010:
                                           ; SOURCE LINE # 110
009D 120000      R     LCALL   cmd_get_curr_and_meas
                                           ; SOURCE LINE # 111
00A0 22                RET     
                                           ; SOURCE LINE # 115
00A1         ?C0011:
                                           ; SOURCE LINE # 116
00A1 120000      R     LCALL   cmd_get_currents_for_cuff
                                           ; SOURCE LINE # 117
00A4 22                RET     
                                           ; SOURCE LINE # 121
00A5         ?C0012:
                                           ; SOURCE LINE # 122
00A5 120000      R     LCALL   cmd_get_velocities
                                           ; SOURCE LINE # 123
00A8 22                RET     
                                           ; SOURCE LINE # 127
00A9         ?C0013:
                                           ; SOURCE LINE # 128
00A9 120000      R     LCALL   cmd_get_accelerations
                                           ; SOURCE LINE # 129
00AC 22                RET     
                                           ; SOURCE LINE # 133
00AD         ?C0014:
                                           ; SOURCE LINE # 134
00AD 120000      R     LCALL   cmd_get_emg
                                           ; SOURCE LINE # 135
00B0 22                RET     
                                           ; SOURCE LINE # 139
00B1         ?C0015:
                                           ; SOURCE LINE # 140
00B1 120000      R     LCALL   cmd_set_watchdog
                                           ; SOURCE LINE # 141
00B4 22                RET     
                                           ; SOURCE LINE # 145
00B5         ?C0016:
                                           ; SOURCE LINE # 146
00B5 120000      R     LCALL   cmd_get_activate
                                           ; SOURCE LINE # 147
00B8 22                RET     
                                           ; SOURCE LINE # 151
00B9         ?C0017:
                                           ; SOURCE LINE # 152
00B9 120000      R     LCALL   cmd_set_baudrate
                                           ; SOURCE LINE # 153
00BC 22                RET     
                                           ; SOURCE LINE # 157
00BD         ?C0018:
                                           ; SOURCE LINE # 158
00BD 120000      R     LCALL   cmd_get_inputs
                                           ; SOURCE LINE # 159
00C0 22                RET     
                                           ; SOURCE LINE # 163
00C1         ?C0019:
                                           ; SOURCE LINE # 164
00C1 900000      E     MOV     DPTR,#g_rx+01H
C51 COMPILER V9.51   COMMAND_PROCESSING                                                    02/09/2021 12:42:36 PAGE 37  

00C4 E0                MOVX    A,@DPTR
00C5 FE                MOV     R6,A
00C6 A3                INC     DPTR
00C7 E0                MOVX    A,@DPTR
00C8 FF                MOV     R7,A
00C9 120000      R     LCALL   _infoGet
                                           ; SOURCE LINE # 165
00CC 22                RET     
                                           ; SOURCE LINE # 169
00CD         ?C0020:
                                           ; SOURCE LINE # 170
00CD 120000      R     LCALL   setZeros
                                           ; SOURCE LINE # 171
00D0 22                RET     
                                           ; SOURCE LINE # 175
00D1         ?C0021:
                                           ; SOURCE LINE # 176
00D1 900000      E     MOV     DPTR,#g_rx+01H
00D4 E0                MOVX    A,@DPTR
00D5 FE                MOV     R6,A
00D6 A3                INC     DPTR
00D7 E0                MOVX    A,@DPTR
00D8 FF                MOV     R7,A
00D9 120000      R     LCALL   _get_param_list
                                           ; SOURCE LINE # 177
00DC 22                RET     
                                           ; SOURCE LINE # 181
00DD         ?C0022:
                                           ; SOURCE LINE # 182
00DD 120000      R     LCALL   cmd_ping
                                           ; SOURCE LINE # 183
00E0 22                RET     
                                           ; SOURCE LINE # 187
00E1         ?C0023:
                                           ; SOURCE LINE # 188
00E1 120000      R     LCALL   cmd_store_params
                                           ; SOURCE LINE # 189
00E4 22                RET     
                                           ; SOURCE LINE # 193
00E5         ?C0024:
                                           ; SOURCE LINE # 194
00E5 7F32              MOV     R7,#032H
00E7 7E00              MOV     R6,#00H
00E9 120000      R     LCALL   _memStore
00EC EF                MOV     A,R7
00ED 6006              JZ      ?C0025
                                           ; SOURCE LINE # 195
00EF 7F01              MOV     R7,#01H
00F1 120000      R     LCALL   _sendAcknowledgment
00F4 22                RET     
00F5         ?C0025:
                                           ; SOURCE LINE # 197
00F5 7F00              MOV     R7,#00H
00F7 120000      R     LCALL   _sendAcknowledgment
                                           ; SOURCE LINE # 198
00FA 22                RET     
                                           ; SOURCE LINE # 202
00FB         ?C0027:
                                           ; SOURCE LINE # 203
00FB 120000      R     LCALL   memRestore
00FE EF                MOV     A,R7
00FF 6006              JZ      ?C0028
C51 COMPILER V9.51   COMMAND_PROCESSING                                                    02/09/2021 12:42:36 PAGE 38  

                                           ; SOURCE LINE # 204
0101 7F01              MOV     R7,#01H
0103 120000      R     LCALL   _sendAcknowledgment
0106 22                RET     
0107         ?C0028:
                                           ; SOURCE LINE # 206
0107 7F00              MOV     R7,#00H
0109 120000      R     LCALL   _sendAcknowledgment
                                           ; SOURCE LINE # 207
010C 22                RET     
                                           ; SOURCE LINE # 211
010D         ?C0030:
                                           ; SOURCE LINE # 212
010D 120000      R     LCALL   memInit
0110 EF                MOV     A,R7
0111 6006              JZ      ?C0031
                                           ; SOURCE LINE # 213
0113 7F01              MOV     R7,#01H
0115 120000      R     LCALL   _sendAcknowledgment
0118 22                RET     
0119         ?C0031:
                                           ; SOURCE LINE # 215
0119 7F00              MOV     R7,#00H
011B 120000      R     LCALL   _sendAcknowledgment
                                           ; SOURCE LINE # 216
011E 22                RET     
                                           ; SOURCE LINE # 220
011F         ?C0033:
                                           ; SOURCE LINE # 222
011F 7F01              MOV     R7,#01H
0121 120000      R     LCALL   _sendAcknowledgment
                                           ; SOURCE LINE # 223
0124 7FE8              MOV     R7,#0E8H
0126 7E03              MOV     R6,#03H
0128 7D00              MOV     R5,#00H
012A 7C00              MOV     R4,#00H
012C 120000      E     LCALL   _?CyDelay
                                           ; SOURCE LINE # 224
012F 7F00              MOV     R7,#00H
0131 120000      E     LCALL   _FTDI_ENABLE_REG_Write
                                           ; SOURCE LINE # 225
0134 7FE8              MOV     R7,#0E8H
0136 7E03              MOV     R6,#03H
0138 7D00              MOV     R5,#00H
013A 7C00              MOV     R4,#00H
013C 120000      E     LCALL   _?CyDelay
                                           ; SOURCE LINE # 226
013F 120000      E     LCALL   Bootloadable_Load
                                           ; SOURCE LINE # 227
0142 22                RET     
                                           ; SOURCE LINE # 231
0143         ?C0034:
                                           ; SOURCE LINE # 232
0143 900000      E     MOV     DPTR,#g_rx+01H
0146 E0                MOVX    A,@DPTR
0147 FE                MOV     R6,A
0148 A3                INC     DPTR
0149 E0                MOVX    A,@DPTR
014A FF                MOV     R7,A
014B 900000      E     MOV     DPTR,#calib+02H
014E EE                MOV     A,R6
014F F0                MOVX    @DPTR,A
C51 COMPILER V9.51   COMMAND_PROCESSING                                                    02/09/2021 12:42:36 PAGE 39  

0150 A3                INC     DPTR
0151 EF                MOV     A,R7
0152 F0                MOVX    @DPTR,A
                                           ; SOURCE LINE # 233
0153 900000      E     MOV     DPTR,#g_rx+03H
0156 E0                MOVX    A,@DPTR
0157 FE                MOV     R6,A
0158 A3                INC     DPTR
0159 E0                MOVX    A,@DPTR
015A FF                MOV     R7,A
015B 900000      E     MOV     DPTR,#calib+04H
015E EE                MOV     A,R6
015F F0                MOVX    @DPTR,A
0160 A3                INC     DPTR
0161 EF                MOV     A,R7
0162 F0                MOVX    @DPTR,A
                                           ; SOURCE LINE # 235
0163 900000      E     MOV     DPTR,#calib+02H
0166 E0                MOVX    A,@DPTR
0167 FE                MOV     R6,A
0168 A3                INC     DPTR
0169 E0                MOVX    A,@DPTR
016A FF                MOV     R7,A
016B EF                MOV     A,R7
016C B4FF2A            CJNE    A,#0FFH,?C0035
016F EE                MOV     A,R6
0170 B4FF26            CJNE    A,#0FFH,?C0035
0173 900000      E     MOV     DPTR,#calib+04H
0176 E0                MOVX    A,@DPTR
0177 FE                MOV     R6,A
0178 A3                INC     DPTR
0179 E0                MOVX    A,@DPTR
017A FF                MOV     R7,A
017B EF                MOV     A,R7
017C B4FF1A            CJNE    A,#0FFH,?C0035
017F EE                MOV     A,R6
0180 B4FF16            CJNE    A,#0FFH,?C0035
                                           ; SOURCE LINE # 236
0183 900000      E     MOV     DPTR,#calib
0186 E4                CLR     A
0187 F0                MOVX    @DPTR,A
                                           ; SOURCE LINE # 237
0188 900000      E     MOV     DPTR,#calib+02H
018B E4                CLR     A
018C F0                MOVX    @DPTR,A
018D A3                INC     DPTR
018E E4                CLR     A
018F F0                MOVX    @DPTR,A
                                           ; SOURCE LINE # 238
0190 900000      E     MOV     DPTR,#calib+04H
0193 E4                CLR     A
0194 F0                MOVX    @DPTR,A
0195 A3                INC     DPTR
0196 E4                CLR     A
0197 F0                MOVX    @DPTR,A
                                           ; SOURCE LINE # 239
0198 22                RET     
                                           ; SOURCE LINE # 240
0199         ?C0035:
                                           ; SOURCE LINE # 242
0199 900000      E     MOV     DPTR,#calib+02H
019C E0                MOVX    A,@DPTR
C51 COMPILER V9.51   COMMAND_PROCESSING                                                    02/09/2021 12:42:36 PAGE 40  

019D FE                MOV     R6,A
019E A3                INC     DPTR
019F E0                MOVX    A,@DPTR
01A0 FF                MOV     R7,A
01A1 C3                CLR     C
01A2 EE                MOV     A,R6
01A3 6480              XRL     A,#080H
01A5 9480              SUBB    A,#080H
01A7 500A              JNC     ?C0036
                                           ; SOURCE LINE # 243
01A9 900000      E     MOV     DPTR,#calib+02H
01AC E4                CLR     A
01AD F0                MOVX    @DPTR,A
01AE A3                INC     DPTR
01AF E4                CLR     A
01B0 F0                MOVX    @DPTR,A
                                           ; SOURCE LINE # 244
01B1 801C              SJMP    ?C0037
01B3         ?C0036:
01B3 900000      E     MOV     DPTR,#calib+02H
01B6 E0                MOVX    A,@DPTR
01B7 FE                MOV     R6,A
01B8 A3                INC     DPTR
01B9 E0                MOVX    A,@DPTR
01BA FF                MOV     R7,A
01BB D3                SETB    C
01BC EF                MOV     A,R7
01BD 94C8              SUBB    A,#0C8H
01BF EE                MOV     A,R6
01C0 6480              XRL     A,#080H
01C2 9480              SUBB    A,#080H
01C4 4009              JC      ?C0037
                                           ; SOURCE LINE # 245
01C6 900000      E     MOV     DPTR,#calib+02H
01C9 E4                CLR     A
01CA F0                MOVX    @DPTR,A
01CB A3                INC     DPTR
01CC 74C8              MOV     A,#0C8H
01CE F0                MOVX    @DPTR,A
                                           ; SOURCE LINE # 246
01CF         ?C0037:
                                           ; SOURCE LINE # 247
01CF 900000      E     MOV     DPTR,#calib+04H
01D2 E0                MOVX    A,@DPTR
01D3 FE                MOV     R6,A
01D4 A3                INC     DPTR
01D5 E0                MOVX    A,@DPTR
01D6 FF                MOV     R7,A
01D7 C3                CLR     C
01D8 EE                MOV     A,R6
01D9 6480              XRL     A,#080H
01DB 9480              SUBB    A,#080H
01DD 500A              JNC     ?C0039
                                           ; SOURCE LINE # 248
01DF 900000      E     MOV     DPTR,#calib+04H
01E2 E4                CLR     A
01E3 F0                MOVX    @DPTR,A
01E4 A3                INC     DPTR
01E5 E4                CLR     A
01E6 F0                MOVX    @DPTR,A
                                           ; SOURCE LINE # 249
01E7 801D              SJMP    ?C0040
C51 COMPILER V9.51   COMMAND_PROCESSING                                                    02/09/2021 12:42:36 PAGE 41  

01E9         ?C0039:
01E9 900000      E     MOV     DPTR,#calib+04H
01EC E0                MOVX    A,@DPTR
01ED FE                MOV     R6,A
01EE A3                INC     DPTR
01EF E0                MOVX    A,@DPTR
01F0 FF                MOV     R7,A
01F1 D3                SETB    C
01F2 EF                MOV     A,R7
01F3 94FF              SUBB    A,#0FFH
01F5 EE                MOV     A,R6
01F6 6480              XRL     A,#080H
01F8 94FF              SUBB    A,#0FFH
01FA 400A              JC      ?C0040
                                           ; SOURCE LINE # 250
01FC 900000      E     MOV     DPTR,#calib+04H
01FF 747F              MOV     A,#07FH
0201 F0                MOVX    @DPTR,A
0202 A3                INC     DPTR
0203 74FF              MOV     A,#0FFH
0205 F0                MOVX    @DPTR,A
                                           ; SOURCE LINE # 251
0206         ?C0040:
                                           ; SOURCE LINE # 253
0206 7F00              MOV     R7,#00H
0208 7E00              MOV     R6,#00H
020A 7D00              MOV     R5,#00H
020C 7C00              MOV     R4,#00H
020E 900000      E     MOV     DPTR,#g_refNew
0211 120000      E     LCALL   ?C?LSTXDATA
                                           ; SOURCE LINE # 254
0214 900000      E     MOV     DPTR,#calib
0217 7401              MOV     A,#01H
0219 F0                MOVX    @DPTR,A
                                           ; SOURCE LINE # 256
021A 7F01              MOV     R7,#01H
021C 120000      R     LCALL   _sendAcknowledgment
                                           ; SOURCE LINE # 257
                                           ; SOURCE LINE # 260
                                           ; SOURCE LINE # 261
                                           ; SOURCE LINE # 263
                                           ; SOURCE LINE # 264
021F         ?C0004:
021F 22                RET     
             ; FUNCTION commProcess (END)

             ; FUNCTION infoSend (BEGIN)
                                           ; SOURCE LINE # 271
                                           ; SOURCE LINE # 274
0000 7B01              MOV     R3,#01H
0002 7A00        R     MOV     R2,#HIGH packet_string
0004 7900        R     MOV     R1,#LOW packet_string
0006 120000      R     LCALL   _prepare_generic_info
                                           ; SOURCE LINE # 275
0009 7B01              MOV     R3,#01H
000B 7A00        R     MOV     R2,#HIGH packet_string
000D 7900        R     MOV     R1,#LOW packet_string
000F 120000      E     LCALL   _UART_RS485_PutString
                                           ; SOURCE LINE # 276
0012 22                RET     
             ; FUNCTION infoSend (END)

C51 COMPILER V9.51   COMMAND_PROCESSING                                                    02/09/2021 12:42:36 PAGE 42  

             ; FUNCTION _infoGet (BEGIN)
                                           ; SOURCE LINE # 283
0000 900000      R     MOV     DPTR,#info_type
0003 EE                MOV     A,R6
0004 F0                MOVX    @DPTR,A
0005 A3                INC     DPTR
0006 EF                MOV     A,R7
0007 F0                MOVX    @DPTR,A
                                           ; SOURCE LINE # 284
0008 7BFF              MOV     R3,#0FFH
000A 7A00        R     MOV     R2,#HIGH _?ix1000
000C 7900        R     MOV     R1,#LOW _?ix1000
000E C003              PUSH    AR3
0010 C002              PUSH    AR2
0012 C001              PUSH    AR1
0014 7B01              MOV     R3,#01H
0016 7A00        R     MOV     R2,#HIGH packet_string
0018 7900        R     MOV     R1,#LOW packet_string
001A A801              MOV     R0,AR1
001C AC02              MOV     R4,AR2
001E AD03              MOV     R5,AR3
0020 D001              POP     AR1
0022 D002              POP     AR2
0024 D003              POP     AR3
0026 7E05              MOV     R6,#05H
0028 7FDC              MOV     R7,#0DCH
002A 120000      E     LCALL   ?C?COPYAMD
                                           ; SOURCE LINE # 288
002D 900000      R     MOV     DPTR,#info_type
0030 E0                MOVX    A,@DPTR
0031 FE                MOV     R6,A
0032 A3                INC     DPTR
0033 E0                MOVX    A,@DPTR
0034 FF                MOV     R7,A
0035 EF                MOV     A,R7
0036 8EF0              MOV     B,R6
0038 120000      E     LCALL   ?C?ICASE
003B 0000        R     DW      ?C0045
003D 0000              DW      00H
003F 0000        R     DW      ?C0046
0041 0001              DW      01H
0043 0000              DW      00H
0045 0000        R     DW      ?C0048
                                           ; SOURCE LINE # 289
0047         ?C0045:
                                           ; SOURCE LINE # 290
0047 7B01              MOV     R3,#01H
0049 7A00        R     MOV     R2,#HIGH packet_string
004B 7900        R     MOV     R1,#LOW packet_string
004D 120000      R     LCALL   _prepare_generic_info
                                           ; SOURCE LINE # 291
0050 120000      E     LCALL   UART_RS485_ClearTxBuffer
                                           ; SOURCE LINE # 292
0053 7B01              MOV     R3,#01H
0055 7A00        R     MOV     R2,#HIGH packet_string
0057 7900        R     MOV     R1,#LOW packet_string
0059 120000      E     LCALL   _UART_RS485_PutString
                                           ; SOURCE LINE # 293
005C 22                RET     
                                           ; SOURCE LINE # 294
005D         ?C0046:
                                           ; SOURCE LINE # 295
C51 COMPILER V9.51   COMMAND_PROCESSING                                                    02/09/2021 12:42:36 PAGE 43  

005D 7B01              MOV     R3,#01H
005F 7A00        R     MOV     R2,#HIGH packet_string
0061 7900        R     MOV     R1,#LOW packet_string
0063 120000      R     LCALL   _prepare_counter_info
                                           ; SOURCE LINE # 296
0066 120000      E     LCALL   UART_RS485_ClearTxBuffer
                                           ; SOURCE LINE # 297
0069 7B01              MOV     R3,#01H
006B 7A00        R     MOV     R2,#HIGH packet_string
006D 7900        R     MOV     R1,#LOW packet_string
006F 120000      E     LCALL   _UART_RS485_PutString
                                           ; SOURCE LINE # 298
                                           ; SOURCE LINE # 299
                                           ; SOURCE LINE # 300
                                           ; SOURCE LINE # 301
                                           ; SOURCE LINE # 302
0072         ?C0048:
0072 22                RET     
             ; FUNCTION _infoGet (END)

             ; FUNCTION _get_param_list (BEGIN)
                                           ; SOURCE LINE # 308
0000 900000      R     MOV     DPTR,#index
0003 EE                MOV     A,R6
0004 F0                MOVX    @DPTR,A
0005 A3                INC     DPTR
0006 EF                MOV     A,R7
0007 F0                MOVX    @DPTR,A
                                           ; SOURCE LINE # 310
0008 7BFF              MOV     R3,#0FFH
000A 7A00        R     MOV     R2,#HIGH _?ix1001
000C 7900        R     MOV     R1,#LOW _?ix1001
000E C003              PUSH    AR3
0010 C002              PUSH    AR2
0012 C001              PUSH    AR1
0014 7B01              MOV     R3,#01H
0016 7A00        R     MOV     R2,#HIGH packet_data
0018 7900        R     MOV     R1,#LOW packet_data
001A A801              MOV     R0,AR1
001C AC02              MOV     R4,AR2
001E AD03              MOV     R5,AR3
0020 D001              POP     AR1
0022 D002              POP     AR2
0024 D003              POP     AR3
0026 7E07              MOV     R6,#07H
0028 7F6D              MOV     R7,#06DH
002A 120000      E     LCALL   ?C?COPYAMD
                                           ; SOURCE LINE # 311
002D 900000      R     MOV     DPTR,#packet_lenght
0030 7407              MOV     A,#07H
0032 F0                MOVX    @DPTR,A
0033 A3                INC     DPTR
0034 746D              MOV     A,#06DH
0036 F0                MOVX    @DPTR,A
                                           ; SOURCE LINE # 320
0037 7BFF              MOV     R3,#0FFH
0039 7A00        R     MOV     R2,#HIGH _?ix1002
003B 7900        R     MOV     R1,#LOW _?ix1002
003D C003              PUSH    AR3
003F C002              PUSH    AR2
0041 C001              PUSH    AR1
0043 7B01              MOV     R3,#01H
C51 COMPILER V9.51   COMMAND_PROCESSING                                                    02/09/2021 12:42:36 PAGE 44  

0045 7A00        R     MOV     R2,#HIGH id_str
0047 7900        R     MOV     R1,#LOW id_str
0049 A801              MOV     R0,AR1
004B AC02              MOV     R4,AR2
004D AD03              MOV     R5,AR3
004F D001              POP     AR1
0051 D002              POP     AR2
0053 D003              POP     AR3
0055 7E00              MOV     R6,#00H
0057 7F0F              MOV     R7,#0FH
0059 120000      E     LCALL   ?C?COPYAMD
                                           ; SOURCE LINE # 321
005C 7BFF              MOV     R3,#0FFH
005E 7A00        R     MOV     R2,#HIGH _?ix1003
0060 7900        R     MOV     R1,#LOW _?ix1003
0062 C003              PUSH    AR3
0064 C002              PUSH    AR2
0066 C001              PUSH    AR1
0068 7B01              MOV     R3,#01H
006A 7A00        R     MOV     R2,#HIGH pos_pid_str
006C 7900        R     MOV     R1,#LOW pos_pid_str
006E A801              MOV     R0,AR1
0070 AC02              MOV     R4,AR2
0072 AD03              MOV     R5,AR3
0074 D001              POP     AR1
0076 D002              POP     AR2
0078 D003              POP     AR3
007A 7E00              MOV     R6,#00H
007C 7F1C              MOV     R7,#01CH
007E 120000      E     LCALL   ?C?COPYAMD
                                           ; SOURCE LINE # 322
0081 7BFF              MOV     R3,#0FFH
0083 7A00        R     MOV     R2,#HIGH _?ix1004
0085 7900        R     MOV     R1,#LOW _?ix1004
0087 C003              PUSH    AR3
0089 C002              PUSH    AR2
008B C001              PUSH    AR1
008D 7B01              MOV     R3,#01H
008F 7A00        R     MOV     R2,#HIGH curr_pid_str
0091 7900        R     MOV     R1,#LOW curr_pid_str
0093 A801              MOV     R0,AR1
0095 AC02              MOV     R4,AR2
0097 AD03              MOV     R5,AR3
0099 D001              POP     AR1
009B D002              POP     AR2
009D D003              POP     AR3
009F 7E00              MOV     R6,#00H
00A1 7F1B              MOV     R7,#01BH
00A3 120000      E     LCALL   ?C?COPYAMD
                                           ; SOURCE LINE # 323
00A6 7BFF              MOV     R3,#0FFH
00A8 7A00        R     MOV     R2,#HIGH _?ix1005
00AA 7900        R     MOV     R1,#LOW _?ix1005
00AC C003              PUSH    AR3
00AE C002              PUSH    AR2
00B0 C001              PUSH    AR1
00B2 7B01              MOV     R3,#01H
00B4 7A00        R     MOV     R2,#HIGH startup_str
00B6 7900        R     MOV     R1,#LOW startup_str
00B8 A801              MOV     R0,AR1
00BA AC02              MOV     R4,AR2
00BC AD03              MOV     R5,AR3
C51 COMPILER V9.51   COMMAND_PROCESSING                                                    02/09/2021 12:42:36 PAGE 45  

00BE D001              POP     AR1
00C0 D002              POP     AR2
00C2 D003              POP     AR3
00C4 7E00              MOV     R6,#00H
00C6 7F1C              MOV     R7,#01CH
00C8 120000      E     LCALL   ?C?COPYAMD
                                           ; SOURCE LINE # 324
00CB 7BFF              MOV     R3,#0FFH
00CD 7A00        R     MOV     R2,#HIGH _?ix1006
00CF 7900        R     MOV     R1,#LOW _?ix1006
00D1 C003              PUSH    AR3
00D3 C002              PUSH    AR2
00D5 C001              PUSH    AR1
00D7 7B01              MOV     R3,#01H
00D9 7A00        R     MOV     R2,#HIGH input_str
00DB 7900        R     MOV     R1,#LOW input_str
00DD A801              MOV     R0,AR1
00DF AC02              MOV     R4,AR2
00E1 AD03              MOV     R5,AR3
00E3 D001              POP     AR1
00E5 D002              POP     AR2
00E7 D003              POP     AR3
00E9 7E00              MOV     R6,#00H
00EB 7F22              MOV     R7,#022H
00ED 120000      E     LCALL   ?C?COPYAMD
                                           ; SOURCE LINE # 325
00F0 7BFF              MOV     R3,#0FFH
00F2 7A00        R     MOV     R2,#HIGH _?ix1007
00F4 7900        R     MOV     R1,#LOW _?ix1007
00F6 C003              PUSH    AR3
00F8 C002              PUSH    AR2
00FA C001              PUSH    AR1
00FC 7B01              MOV     R3,#01H
00FE 7A00        R     MOV     R2,#HIGH contr_str
0100 7900        R     MOV     R1,#LOW contr_str
0102 A801              MOV     R0,AR1
0104 AC02              MOV     R4,AR2
0106 AD03              MOV     R5,AR3
0108 D001              POP     AR1
010A D002              POP     AR2
010C D003              POP     AR3
010E 7E00              MOV     R6,#00H
0110 7F27              MOV     R7,#027H
0112 120000      E     LCALL   ?C?COPYAMD
                                           ; SOURCE LINE # 326
0115 7BFF              MOV     R3,#0FFH
0117 7A00        R     MOV     R2,#HIGH _?ix1008
0119 7900        R     MOV     R1,#LOW _?ix1008
011B C003              PUSH    AR3
011D C002              PUSH    AR2
011F C001              PUSH    AR1
0121 7B01              MOV     R3,#01H
0123 7A00        R     MOV     R2,#HIGH res_str
0125 7900        R     MOV     R1,#LOW res_str
0127 A801              MOV     R0,AR1
0129 AC02              MOV     R4,AR2
012B AD03              MOV     R5,AR3
012D D001              POP     AR1
012F D002              POP     AR2
0131 D003              POP     AR3
0133 7E00              MOV     R6,#00H
0135 7F11              MOV     R7,#011H
C51 COMPILER V9.51   COMMAND_PROCESSING                                                    02/09/2021 12:42:36 PAGE 46  

0137 120000      E     LCALL   ?C?COPYAMD
                                           ; SOURCE LINE # 327
013A 7BFF              MOV     R3,#0FFH
013C 7A00        R     MOV     R2,#HIGH _?ix1009
013E 7900        R     MOV     R1,#LOW _?ix1009
0140 C003              PUSH    AR3
0142 C002              PUSH    AR2
0144 C001              PUSH    AR1
0146 7B01              MOV     R3,#01H
0148 7A00        R     MOV     R2,#HIGH m_off_str
014A 7900        R     MOV     R1,#LOW m_off_str
014C A801              MOV     R0,AR1
014E AC02              MOV     R4,AR2
0150 AD03              MOV     R5,AR3
0152 D001              POP     AR1
0154 D002              POP     AR2
0156 D003              POP     AR3
0158 7E00              MOV     R6,#00H
015A 7F19              MOV     R7,#019H
015C 120000      E     LCALL   ?C?COPYAMD
                                           ; SOURCE LINE # 328
015F 7BFF              MOV     R3,#0FFH
0161 7A00        R     MOV     R2,#HIGH _?ix1010
0163 7900        R     MOV     R1,#LOW _?ix1010
0165 C003              PUSH    AR3
0167 C002              PUSH    AR2
0169 C001              PUSH    AR1
016B 7B01              MOV     R3,#01H
016D 7A00        R     MOV     R2,#HIGH mult_str
016F 7900        R     MOV     R1,#LOW mult_str
0171 A801              MOV     R0,AR1
0173 AC02              MOV     R4,AR2
0175 AD03              MOV     R5,AR3
0177 D001              POP     AR1
0179 D002              POP     AR2
017B D003              POP     AR3
017D 7E00              MOV     R6,#00H
017F 7F11              MOV     R7,#011H
0181 120000      E     LCALL   ?C?COPYAMD
                                           ; SOURCE LINE # 329
0184 7BFF              MOV     R3,#0FFH
0186 7A00        R     MOV     R2,#HIGH _?ix1011
0188 7900        R     MOV     R1,#LOW _?ix1011
018A C003              PUSH    AR3
018C C002              PUSH    AR2
018E C001              PUSH    AR1
0190 7B01              MOV     R3,#01H
0192 7A00        R     MOV     R2,#HIGH pos_lim_flag_str
0194 7900        R     MOV     R1,#LOW pos_lim_flag_str
0196 A801              MOV     R0,AR1
0198 AC02              MOV     R4,AR2
019A AD03              MOV     R5,AR3
019C D001              POP     AR1
019E D002              POP     AR2
01A0 D003              POP     AR3
01A2 7E00              MOV     R6,#00H
01A4 7F1C              MOV     R7,#01CH
01A6 120000      E     LCALL   ?C?COPYAMD
                                           ; SOURCE LINE # 330
01A9 7BFF              MOV     R3,#0FFH
01AB 7A00        R     MOV     R2,#HIGH _?ix1012
01AD 7900        R     MOV     R1,#LOW _?ix1012
C51 COMPILER V9.51   COMMAND_PROCESSING                                                    02/09/2021 12:42:36 PAGE 47  

01AF C003              PUSH    AR3
01B1 C002              PUSH    AR2
01B3 C001              PUSH    AR1
01B5 7B01              MOV     R3,#01H
01B7 7A00        R     MOV     R2,#HIGH pos_lim_str
01B9 7900        R     MOV     R1,#LOW pos_lim_str
01BB A801              MOV     R0,AR1
01BD AC02              MOV     R4,AR2
01BF AD03              MOV     R5,AR3
01C1 D001              POP     AR1
01C3 D002              POP     AR2
01C5 D003              POP     AR3
01C7 7E00              MOV     R6,#00H
01C9 7F1D              MOV     R7,#01DH
01CB 120000      E     LCALL   ?C?COPYAMD
                                           ; SOURCE LINE # 331
01CE 7BFF              MOV     R3,#0FFH
01D0 7A00        R     MOV     R2,#HIGH _?ix1013
01D2 7900        R     MOV     R1,#LOW _?ix1013
01D4 C003              PUSH    AR3
01D6 C002              PUSH    AR2
01D8 C001              PUSH    AR1
01DA 7B01              MOV     R3,#01H
01DC 7A00        R     MOV     R2,#HIGH max_step_str
01DE 7900        R     MOV     R1,#LOW max_step_str
01E0 A801              MOV     R0,AR1
01E2 AC02              MOV     R4,AR2
01E4 AD03              MOV     R5,AR3
01E6 D001              POP     AR1
01E8 D002              POP     AR2
01EA D003              POP     AR3
01EC 7E00              MOV     R6,#00H
01EE 7F1B              MOV     R7,#01BH
01F0 120000      E     LCALL   ?C?COPYAMD
                                           ; SOURCE LINE # 332
01F3 7BFF              MOV     R3,#0FFH
01F5 7A00        R     MOV     R2,#HIGH _?ix1014
01F7 7900        R     MOV     R1,#LOW _?ix1014
01F9 C003              PUSH    AR3
01FB C002              PUSH    AR2
01FD C001              PUSH    AR1
01FF 7B01              MOV     R3,#01H
0201 7A00        R     MOV     R2,#HIGH curr_limit_str
0203 7900        R     MOV     R1,#LOW curr_limit_str
0205 A801              MOV     R0,AR1
0207 AC02              MOV     R4,AR2
0209 AD03              MOV     R5,AR3
020B D001              POP     AR1
020D D002              POP     AR2
020F D003              POP     AR3
0211 7E00              MOV     R6,#00H
0213 7F14              MOV     R7,#014H
0215 120000      E     LCALL   ?C?COPYAMD
                                           ; SOURCE LINE # 333
0218 7BFF              MOV     R3,#0FFH
021A 7A00        R     MOV     R2,#HIGH _?ix1015
021C 7900        R     MOV     R1,#LOW _?ix1015
021E C003              PUSH    AR3
0220 C002              PUSH    AR2
0222 C001              PUSH    AR1
0224 7B01              MOV     R3,#01H
0226 7A00        R     MOV     R2,#HIGH emg_flag_str
C51 COMPILER V9.51   COMMAND_PROCESSING                                                    02/09/2021 12:42:36 PAGE 48  

0228 7900        R     MOV     R1,#LOW emg_flag_str
022A A801              MOV     R0,AR1
022C AC02              MOV     R4,AR2
022E AD03              MOV     R5,AR3
0230 D001              POP     AR1
0232 D002              POP     AR2
0234 D003              POP     AR3
0236 7E00              MOV     R6,#00H
0238 7F25              MOV     R7,#025H
023A 120000      E     LCALL   ?C?COPYAMD
                                           ; SOURCE LINE # 334
023D 7BFF              MOV     R3,#0FFH
023F 7A00        R     MOV     R2,#HIGH _?ix1016
0241 7900        R     MOV     R1,#LOW _?ix1016
0243 C003              PUSH    AR3
0245 C002              PUSH    AR2
0247 C001              PUSH    AR1
0249 7B01              MOV     R3,#01H
024B 7A00        R     MOV     R2,#HIGH emg_thr_str
024D 7900        R     MOV     R1,#LOW emg_thr_str
024F A801              MOV     R0,AR1
0251 AC02              MOV     R4,AR2
0253 AD03              MOV     R5,AR3
0255 D001              POP     AR1
0257 D002              POP     AR2
0259 D003              POP     AR3
025B 7E00              MOV     R6,#00H
025D 7F15              MOV     R7,#015H
025F 120000      E     LCALL   ?C?COPYAMD
                                           ; SOURCE LINE # 335
0262 7BFF              MOV     R3,#0FFH
0264 7A00        R     MOV     R2,#HIGH _?ix1017
0266 7900        R     MOV     R1,#LOW _?ix1017
0268 C003              PUSH    AR3
026A C002              PUSH    AR2
026C C001              PUSH    AR1
026E 7B01              MOV     R3,#01H
0270 7A00        R     MOV     R2,#HIGH emg_max_val_str
0272 7900        R     MOV     R1,#LOW emg_max_val_str
0274 A801              MOV     R0,AR1
0276 AC02              MOV     R4,AR2
0278 AD03              MOV     R5,AR3
027A D001              POP     AR1
027C D002              POP     AR2
027E D003              POP     AR3
0280 7E00              MOV     R6,#00H
0282 7F15              MOV     R7,#015H
0284 120000      E     LCALL   ?C?COPYAMD
                                           ; SOURCE LINE # 336
0287 7BFF              MOV     R3,#0FFH
0289 7A00        R     MOV     R2,#HIGH _?ix1018
028B 7900        R     MOV     R1,#LOW _?ix1018
028D C003              PUSH    AR3
028F C002              PUSH    AR2
0291 C001              PUSH    AR1
0293 7B01              MOV     R3,#01H
0295 7A00        R     MOV     R2,#HIGH emg_max_speed_str
0297 7900        R     MOV     R1,#LOW emg_max_speed_str
0299 A801              MOV     R0,AR1
029B AC02              MOV     R4,AR2
029D AD03              MOV     R5,AR3
029F D001              POP     AR1
C51 COMPILER V9.51   COMMAND_PROCESSING                                                    02/09/2021 12:42:36 PAGE 49  

02A1 D002              POP     AR2
02A3 D003              POP     AR3
02A5 7E00              MOV     R6,#00H
02A7 7F14              MOV     R7,#014H
02A9 120000      E     LCALL   ?C?COPYAMD
                                           ; SOURCE LINE # 337
02AC 7BFF              MOV     R3,#0FFH
02AE 7A00        R     MOV     R2,#HIGH _?ix1019
02B0 7900        R     MOV     R1,#LOW _?ix1019
02B2 C003              PUSH    AR3
02B4 C002              PUSH    AR2
02B6 C001              PUSH    AR1
02B8 7B01              MOV     R3,#01H
02BA 7A00        R     MOV     R2,#HIGH abs_enc_str
02BC 7900        R     MOV     R1,#LOW abs_enc_str
02BE A801              MOV     R0,AR1
02C0 AC02              MOV     R4,AR2
02C2 AD03              MOV     R5,AR3
02C4 D001              POP     AR1
02C6 D002              POP     AR2
02C8 D003              POP     AR3
02CA 7E00              MOV     R6,#00H
02CC 7F24              MOV     R7,#024H
02CE 120000      E     LCALL   ?C?COPYAMD
                                           ; SOURCE LINE # 338
02D1 7BFF              MOV     R3,#0FFH
02D3 7A00        R     MOV     R2,#HIGH _?ix1020
02D5 7900        R     MOV     R1,#LOW _?ix1020
02D7 C003              PUSH    AR3
02D9 C002              PUSH    AR2
02DB C001              PUSH    AR1
02DD 7B01              MOV     R3,#01H
02DF 7A00        R     MOV     R2,#HIGH handle_ratio_str
02E1 7900        R     MOV     R1,#LOW handle_ratio_str
02E3 A801              MOV     R0,AR1
02E5 AC02              MOV     R4,AR2
02E7 AD03              MOV     R5,AR3
02E9 D001              POP     AR1
02EB D002              POP     AR2
02ED D003              POP     AR3
02EF 7E00              MOV     R6,#00H
02F1 7F19              MOV     R7,#019H
02F3 120000      E     LCALL   ?C?COPYAMD
                                           ; SOURCE LINE # 339
02F6 7BFF              MOV     R3,#0FFH
02F8 7A00        R     MOV     R2,#HIGH _?ix1021
02FA 7900        R     MOV     R1,#LOW _?ix1021
02FC C003              PUSH    AR3
02FE C002              PUSH    AR2
0300 C001              PUSH    AR1
0302 7B01              MOV     R3,#01H
0304 7A00        R     MOV     R2,#HIGH motor_type_str
0306 7900        R     MOV     R1,#LOW motor_type_str
0308 A801              MOV     R0,AR1
030A AC02              MOV     R4,AR2
030C AD03              MOV     R5,AR3
030E D001              POP     AR1
0310 D002              POP     AR2
0312 D003              POP     AR3
0314 7E00              MOV     R6,#00H
0316 7F18              MOV     R7,#018H
0318 120000      E     LCALL   ?C?COPYAMD
C51 COMPILER V9.51   COMMAND_PROCESSING                                                    02/09/2021 12:42:36 PAGE 50  

                                           ; SOURCE LINE # 340
031B 7BFF              MOV     R3,#0FFH
031D 7A00        R     MOV     R2,#HIGH _?ix1022
031F 7900        R     MOV     R1,#LOW _?ix1022
0321 C003              PUSH    AR3
0323 C002              PUSH    AR2
0325 C001              PUSH    AR1
0327 7B01              MOV     R3,#01H
0329 7A00        R     MOV     R2,#HIGH rest_pos_str
032B 7900        R     MOV     R1,#LOW rest_pos_str
032D A801              MOV     R0,AR1
032F AC02              MOV     R4,AR2
0331 AD03              MOV     R5,AR3
0333 D001              POP     AR1
0335 D002              POP     AR2
0337 D003              POP     AR3
0339 7E00              MOV     R6,#00H
033B 7F14              MOV     R7,#014H
033D 120000      E     LCALL   ?C?COPYAMD
                                           ; SOURCE LINE # 341
0340 7BFF              MOV     R3,#0FFH
0342 7A00        R     MOV     R2,#HIGH _?ix1023
0344 7900        R     MOV     R1,#LOW _?ix1023
0346 C003              PUSH    AR3
0348 C002              PUSH    AR2
034A C001              PUSH    AR1
034C 7B01              MOV     R3,#01H
034E 7A00        R     MOV     R2,#HIGH rest_pos_delay_str
0350 7900        R     MOV     R1,#LOW rest_pos_delay_str
0352 A801              MOV     R0,AR1
0354 AC02              MOV     R4,AR2
0356 AD03              MOV     R5,AR3
0358 D001              POP     AR1
035A D002              POP     AR2
035C D003              POP     AR3
035E 7E00              MOV     R6,#00H
0360 7F24              MOV     R7,#024H
0362 120000      E     LCALL   ?C?COPYAMD
                                           ; SOURCE LINE # 342
0365 7BFF              MOV     R3,#0FFH
0367 7A00        R     MOV     R2,#HIGH _?ix1024
0369 7900        R     MOV     R1,#LOW _?ix1024
036B C003              PUSH    AR3
036D C002              PUSH    AR2
036F C001              PUSH    AR1
0371 7B01              MOV     R3,#01H
0373 7A00        R     MOV     R2,#HIGH rest_vel_str
0375 7900        R     MOV     R1,#LOW rest_vel_str
0377 A801              MOV     R0,AR1
0379 AC02              MOV     R4,AR2
037B AD03              MOV     R5,AR3
037D D001              POP     AR1
037F D002              POP     AR2
0381 D003              POP     AR3
0383 7E00              MOV     R6,#00H
0385 7F23              MOV     R7,#023H
0387 120000      E     LCALL   ?C?COPYAMD
                                           ; SOURCE LINE # 343
038A 7BFF              MOV     R3,#0FFH
038C 7A00        R     MOV     R2,#HIGH _?ix1025
038E 7900        R     MOV     R1,#LOW _?ix1025
0390 C003              PUSH    AR3
C51 COMPILER V9.51   COMMAND_PROCESSING                                                    02/09/2021 12:42:36 PAGE 51  

0392 C002              PUSH    AR2
0394 C001              PUSH    AR1
0396 7B01              MOV     R3,#01H
0398 7A00        R     MOV     R2,#HIGH curr_lookup_str
039A 7900        R     MOV     R1,#LOW curr_lookup_str
039C A801              MOV     R0,AR1
039E AC02              MOV     R4,AR2
03A0 AD03              MOV     R5,AR3
03A2 D001              POP     AR1
03A4 D002              POP     AR2
03A6 D003              POP     AR3
03A8 7E00              MOV     R6,#00H
03AA 7F15              MOV     R7,#015H
03AC 120000      E     LCALL   ?C?COPYAMD
                                           ; SOURCE LINE # 344
03AF 7BFF              MOV     R3,#0FFH
03B1 7A00        R     MOV     R2,#HIGH _?ix1026
03B3 7900        R     MOV     R1,#LOW _?ix1026
03B5 C003              PUSH    AR3
03B7 C002              PUSH    AR2
03B9 C001              PUSH    AR1
03BB 7B01              MOV     R3,#01H
03BD 7A00        R     MOV     R2,#HIGH rest_pos_flag_str
03BF 7900        R     MOV     R1,#LOW rest_pos_flag_str
03C1 A801              MOV     R0,AR1
03C3 AC02              MOV     R4,AR2
03C5 AD03              MOV     R5,AR3
03C7 D001              POP     AR1
03C9 D002              POP     AR2
03CB D003              POP     AR3
03CD 7E00              MOV     R6,#00H
03CF 7F1D              MOV     R7,#01DH
03D1 120000      E     LCALL   ?C?COPYAMD
                                           ; SOURCE LINE # 345
03D4 7BFF              MOV     R3,#0FFH
03D6 7A00        R     MOV     R2,#HIGH _?ix1027
03D8 7900        R     MOV     R1,#LOW _?ix1027
03DA C003              PUSH    AR3
03DC C002              PUSH    AR2
03DE C001              PUSH    AR1
03E0 7B01              MOV     R3,#01H
03E2 7A00        R     MOV     R2,#HIGH emg_inversion_str
03E4 7900        R     MOV     R1,#LOW emg_inversion_str
03E6 A801              MOV     R0,AR1
03E8 AC02              MOV     R4,AR2
03EA AD03              MOV     R5,AR3
03EC D001              POP     AR1
03EE D002              POP     AR2
03F0 D003              POP     AR3
03F2 7E00              MOV     R6,#00H
03F4 7F18              MOV     R7,#018H
03F6 120000      E     LCALL   ?C?COPYAMD
                                           ; SOURCE LINE # 346
03F9 7BFF              MOV     R3,#0FFH
03FB 7A00        R     MOV     R2,#HIGH _?ix1028
03FD 7900        R     MOV     R1,#LOW _?ix1028
03FF C003              PUSH    AR3
0401 C002              PUSH    AR2
0403 C001              PUSH    AR1
0405 7B01              MOV     R3,#01H
0407 7A00        R     MOV     R2,#HIGH reset_counters_str
0409 7900        R     MOV     R1,#LOW reset_counters_str
C51 COMPILER V9.51   COMMAND_PROCESSING                                                    02/09/2021 12:42:36 PAGE 52  

040B A801              MOV     R0,AR1
040D AC02              MOV     R4,AR2
040F AD03              MOV     R5,AR3
0411 D001              POP     AR1
0413 D002              POP     AR2
0415 D003              POP     AR3
0417 7E00              MOV     R6,#00H
0419 7F19              MOV     R7,#019H
041B 120000      E     LCALL   ?C?COPYAMD
                                           ; SOURCE LINE # 347
041E 7BFF              MOV     R3,#0FFH
0420 7A00        R     MOV     R2,#HIGH _?ix1029
0422 7900        R     MOV     R1,#LOW _?ix1029
0424 C003              PUSH    AR3
0426 C002              PUSH    AR2
0428 C001              PUSH    AR1
042A 7B01              MOV     R3,#01H
042C 7A00        R     MOV     R2,#HIGH date_maint_str
042E 7900        R     MOV     R1,#LOW date_maint_str
0430 A801              MOV     R0,AR1
0432 AC02              MOV     R4,AR2
0434 AD03              MOV     R5,AR3
0436 D001              POP     AR1
0438 D002              POP     AR2
043A D003              POP     AR3
043C 7E00              MOV     R6,#00H
043E 7F25              MOV     R7,#025H
0440 120000      E     LCALL   ?C?COPYAMD
                                           ; SOURCE LINE # 350
0443 7BFF              MOV     R3,#0FFH
0445 7A00        R     MOV     R2,#HIGH _?ix1030
0447 7900        R     MOV     R1,#LOW _?ix1030
0449 C003              PUSH    AR3
044B C002              PUSH    AR2
044D C001              PUSH    AR1
044F 7B01              MOV     R3,#01H
0451 7A00        R     MOV     R2,#HIGH input_mode_menu
0453 7900        R     MOV     R1,#LOW input_mode_menu
0455 A801              MOV     R0,AR1
0457 AC02              MOV     R4,AR2
0459 AD03              MOV     R5,AR3
045B D001              POP     AR1
045D D002              POP     AR2
045F D003              POP     AR3
0461 7E00              MOV     R6,#00H
0463 7F63              MOV     R7,#063H
0465 120000      E     LCALL   ?C?COPYAMD
                                           ; SOURCE LINE # 351
0468 7BFF              MOV     R3,#0FFH
046A 7A00        R     MOV     R2,#HIGH _?ix1031
046C 7900        R     MOV     R1,#LOW _?ix1031
046E C003              PUSH    AR3
0470 C002              PUSH    AR2
0472 C001              PUSH    AR1
0474 7B01              MOV     R3,#01H
0476 7A00        R     MOV     R2,#HIGH control_mode_menu
0478 7900        R     MOV     R1,#LOW control_mode_menu
047A A801              MOV     R0,AR1
047C AC02              MOV     R4,AR2
047E AD03              MOV     R5,AR3
0480 D001              POP     AR1
0482 D002              POP     AR2
C51 COMPILER V9.51   COMMAND_PROCESSING                                                    02/09/2021 12:42:36 PAGE 53  

0484 D003              POP     AR3
0486 7E00              MOV     R6,#00H
0488 7F40              MOV     R7,#040H
048A 120000      E     LCALL   ?C?COPYAMD
                                           ; SOURCE LINE # 352
048D 7BFF              MOV     R3,#0FFH
048F 7A00        R     MOV     R2,#HIGH _?ix1032
0491 7900        R     MOV     R1,#LOW _?ix1032
0493 C003              PUSH    AR3
0495 C002              PUSH    AR2
0497 C001              PUSH    AR1
0499 7B01              MOV     R3,#01H
049B 7A00        R     MOV     R2,#HIGH yes_no_menu
049D 7900        R     MOV     R1,#LOW yes_no_menu
049F A801              MOV     R0,AR1
04A1 AC02              MOV     R4,AR2
04A3 AD03              MOV     R5,AR3
04A5 D001              POP     AR1
04A7 D002              POP     AR2
04A9 D003              POP     AR3
04AB 7E00              MOV     R6,#00H
04AD 7F2A              MOV     R7,#02AH
04AF 120000      E     LCALL   ?C?COPYAMD
                                           ; SOURCE LINE # 355
04B2 7B01              MOV     R3,#01H
04B4 7A00        R     MOV     R2,#HIGH id_str
04B6 7900        R     MOV     R1,#LOW id_str
04B8 120000      E     LCALL   _strlen
04BB 8F00        R     MOV     id_str_len,R7
                                           ; SOURCE LINE # 356
04BD 7B01              MOV     R3,#01H
04BF 7A00        R     MOV     R2,#HIGH pos_pid_str
04C1 7900        R     MOV     R1,#LOW pos_pid_str
04C3 120000      E     LCALL   _strlen
04C6 8F00        R     MOV     pos_pid_str_len,R7
                                           ; SOURCE LINE # 357
04C8 7B01              MOV     R3,#01H
04CA 7A00        R     MOV     R2,#HIGH curr_pid_str
04CC 7900        R     MOV     R1,#LOW curr_pid_str
04CE 120000      E     LCALL   _strlen
04D1 8F00        R     MOV     curr_pid_str_len,R7
                                           ; SOURCE LINE # 359
04D3 7B01              MOV     R3,#01H
04D5 7A00        R     MOV     R2,#HIGH res_str
04D7 7900        R     MOV     R1,#LOW res_str
04D9 120000      E     LCALL   _strlen
04DC 8F00        R     MOV     res_str_len,R7
                                           ; SOURCE LINE # 360
04DE 7B01              MOV     R3,#01H
04E0 7A00        R     MOV     R2,#HIGH m_off_str
04E2 7900        R     MOV     R1,#LOW m_off_str
04E4 120000      E     LCALL   _strlen
04E7 8F00        R     MOV     m_off_str_len,R7
                                           ; SOURCE LINE # 361
04E9 7B01              MOV     R3,#01H
04EB 7A00        R     MOV     R2,#HIGH mult_str
04ED 7900        R     MOV     R1,#LOW mult_str
04EF 120000      E     LCALL   _strlen
04F2 8F00        R     MOV     mult_str_len,R7
                                           ; SOURCE LINE # 363
04F4 7B01              MOV     R3,#01H
04F6 7A00        R     MOV     R2,#HIGH pos_lim_str
C51 COMPILER V9.51   COMMAND_PROCESSING                                                    02/09/2021 12:42:36 PAGE 54  

04F8 7900        R     MOV     R1,#LOW pos_lim_str
04FA 120000      E     LCALL   _strlen
04FD 8F00        R     MOV     pos_lim_str_len,R7
                                           ; SOURCE LINE # 364
04FF 7B01              MOV     R3,#01H
0501 7A00        R     MOV     R2,#HIGH max_step_str
0503 7900        R     MOV     R1,#LOW max_step_str
0505 120000      E     LCALL   _strlen
0508 8F00        R     MOV     max_step_str_len,R7
                                           ; SOURCE LINE # 365
050A 7B01              MOV     R3,#01H
050C 7A00        R     MOV     R2,#HIGH curr_limit_str
050E 7900        R     MOV     R1,#LOW curr_limit_str
0510 120000      E     LCALL   _strlen
0513 8F00        R     MOV     curr_limit_str_len,R7
                                           ; SOURCE LINE # 367
0515 7B01              MOV     R3,#01H
0517 7A00        R     MOV     R2,#HIGH emg_thr_str
0519 7900        R     MOV     R1,#LOW emg_thr_str
051B 120000      E     LCALL   _strlen
051E 8F00        R     MOV     emg_thr_str_len,R7
                                           ; SOURCE LINE # 368
0520 7B01              MOV     R3,#01H
0522 7A00        R     MOV     R2,#HIGH emg_max_val_str
0524 7900        R     MOV     R1,#LOW emg_max_val_str
0526 120000      E     LCALL   _strlen
0529 8F00        R     MOV     emg_max_val_str_len,R7
                                           ; SOURCE LINE # 369
052B 7B01              MOV     R3,#01H
052D 7A00        R     MOV     R2,#HIGH emg_max_speed_str
052F 7900        R     MOV     R1,#LOW emg_max_speed_str
0531 120000      E     LCALL   _strlen
0534 8F00        R     MOV     emg_max_speed_str_len,R7
                                           ; SOURCE LINE # 371
0536 7B01              MOV     R3,#01H
0538 7A00        R     MOV     R2,#HIGH handle_ratio_str
053A 7900        R     MOV     R1,#LOW handle_ratio_str
053C 120000      E     LCALL   _strlen
053F 8F00        R     MOV     handle_ratio_str_len,R7
                                           ; SOURCE LINE # 372
0541 7B01              MOV     R3,#01H
0543 7A00        R     MOV     R2,#HIGH curr_lookup_str
0545 7900        R     MOV     R1,#LOW curr_lookup_str
0547 120000      E     LCALL   _strlen
054A 8F00        R     MOV     curr_lookup_str_len,R7
                                           ; SOURCE LINE # 373
054C 7B01              MOV     R3,#01H
054E 7A00        R     MOV     R2,#HIGH input_mode_menu
0550 7900        R     MOV     R1,#LOW input_mode_menu
0552 120000      E     LCALL   _strlen
0555 8F00        R     MOV     input_mode_menu_len,R7
                                           ; SOURCE LINE # 374
0557 7B01              MOV     R3,#01H
0559 7A00        R     MOV     R2,#HIGH control_mode_menu
055B 7900        R     MOV     R1,#LOW control_mode_menu
055D 120000      E     LCALL   _strlen
0560 8F00        R     MOV     control_mode_menu_len,R7
                                           ; SOURCE LINE # 375
0562 7B01              MOV     R3,#01H
0564 7A00        R     MOV     R2,#HIGH yes_no_menu
0566 7900        R     MOV     R1,#LOW yes_no_menu
0568 120000      E     LCALL   _strlen
C51 COMPILER V9.51   COMMAND_PROCESSING                                                    02/09/2021 12:42:36 PAGE 55  

056B 8F00        R     MOV     yes_no_menu_len,R7
                                           ; SOURCE LINE # 376
056D 7B01              MOV     R3,#01H
056F 7A00        R     MOV     R2,#HIGH rest_pos_str
0571 7900        R     MOV     R1,#LOW rest_pos_str
0573 120000      E     LCALL   _strlen
0576 8F00        R     MOV     rest_pos_str_len,R7
                                           ; SOURCE LINE # 377
0578 7B01              MOV     R3,#01H
057A 7A00        R     MOV     R2,#HIGH rest_pos_delay_str
057C 7900        R     MOV     R1,#LOW rest_pos_delay_str
057E 120000      E     LCALL   _strlen
0581 8F00        R     MOV     rest_pos_delay_str_len,R7
                                           ; SOURCE LINE # 378
0583 7B01              MOV     R3,#01H
0585 7A00        R     MOV     R2,#HIGH rest_vel_str
0587 7900        R     MOV     R1,#LOW rest_vel_str
0589 120000      E     LCALL   _strlen
058C 8F00        R     MOV     rest_vel_str_len,R7
                                           ; SOURCE LINE # 379
058E 7B01              MOV     R3,#01H
0590 7A00        R     MOV     R2,#HIGH date_maint_str
0592 7900        R     MOV     R1,#LOW date_maint_str
0594 120000      E     LCALL   _strlen
0597 8F00        R     MOV     date_maint_str_len,R7
                                           ; SOURCE LINE # 381
0599 900000      R     MOV     DPTR,#packet_data
059C 740C              MOV     A,#0CH
059E F0                MOVX    @DPTR,A
                                           ; SOURCE LINE # 382
059F 900000      R     MOV     DPTR,#packet_data+01H
05A2 741C              MOV     A,#01CH
05A4 F0                MOVX    @DPTR,A
                                           ; SOURCE LINE # 384
05A5 900000      R     MOV     DPTR,#index
05A8 E0                MOVX    A,@DPTR
05A9 FE                MOV     R6,A
05AA A3                INC     DPTR
05AB E0                MOVX    A,@DPTR
05AC FF                MOV     R7,A
05AD EF                MOV     A,R7
05AE 8EF0              MOV     B,R6
05B0 120000      E     LCALL   ?C?ICASE
05B3 0000        R     DW      ?C0050
05B5 0000              DW      00H
05B7 0000        R     DW      ?C0189
05B9 0001              DW      01H
05BB 0000        R     DW      ?C0190
05BD 0002              DW      02H
05BF 0000        R     DW      ?C0194
05C1 0003              DW      03H
05C3 0000        R     DW      ?C0197
05C5 0004              DW      04H
05C7 0000        R     DW      ?C0200
05C9 0005              DW      05H
05CB 0000        R     DW      ?C0201
05CD 0006              DW      06H
05CF 0000        R     DW      ?C0202
05D1 0007              DW      07H
05D3 0000        R     DW      ?C0206
05D5 0008              DW      08H
05D7 0000        R     DW      ?C0210
C51 COMPILER V9.51   COMMAND_PROCESSING                                                    02/09/2021 12:42:36 PAGE 56  

05D9 0009              DW      09H
05DB 0000        R     DW      ?C0214
05DD 000A              DW      0AH
05DF 0000        R     DW      ?C0215
05E1 000B              DW      0BH
05E3 0000        R     DW      ?C0219
05E5 000C              DW      0CH
05E7 0000        R     DW      ?C0222
05E9 000D              DW      0DH
05EB 0000        R     DW      ?C0223
05ED 000E              DW      0EH
05EF 0000        R     DW      ?C0224
05F1 000F              DW      0FH
05F3 0000        R     DW      ?C0225
05F5 0010              DW      010H
05F7 0000        R     DW      ?C0226
05F9 0011              DW      011H
05FB 0000        R     DW      ?C0227
05FD 0012              DW      012H
05FF 0000        R     DW      ?C0230
0601 0013              DW      013H
0603 0000        R     DW      ?C0231
0605 0014              DW      014H
0607 0000        R     DW      ?C0232
0609 0015              DW      015H
060B 0000        R     DW      ?C0233
060D 0016              DW      016H
060F 0000        R     DW      ?C0235
0611 0017              DW      017H
0613 0000        R     DW      ?C0236
0615 0018              DW      018H
0617 0000        R     DW      ?C0240
0619 0019              DW      019H
061B 0000        R     DW      ?C0241
061D 001A              DW      01AH
061F 0000        R     DW      ?C0242
0621 001B              DW      01BH
0623 0000        R     DW      ?C0244
0625 001C              DW      01CH
0627 0000              DW      00H
0629 0000        R     DW      ?C0245
                                           ; SOURCE LINE # 385
062B         ?C0050:
                                           ; SOURCE LINE # 388
062B 900000      R     MOV     DPTR,#packet_data+02H
062E 7402              MOV     A,#02H
0630 F0                MOVX    @DPTR,A
                                           ; SOURCE LINE # 389
0631 900000      R     MOV     DPTR,#packet_data+03H
0634 7401              MOV     A,#01H
0636 F0                MOVX    @DPTR,A
                                           ; SOURCE LINE # 390
0637 900000      E     MOV     DPTR,#c_mem+01H
063A E0                MOVX    A,@DPTR
063B FF                MOV     R7,A
063C 900000      R     MOV     DPTR,#packet_data+04H
063F EF                MOV     A,R7
0640 F0                MOVX    @DPTR,A
                                           ; SOURCE LINE # 391
0641 850000      R     MOV     i,id_str_len
0644         ?C0051:
0644 E500        R     MOV     A,i
C51 COMPILER V9.51   COMMAND_PROCESSING                                                    02/09/2021 12:42:36 PAGE 57  

0646 603E              JZ      ?C0052
                                           ; SOURCE LINE # 392
0648 AF00        R     MOV     R7,i
064A 7E00              MOV     R6,#00H
064C AD00        R     MOV     R5,id_str_len
064E 7C00              MOV     R4,#00H
0650 C3                CLR     C
0651 ED                MOV     A,R5
0652 9F                SUBB    A,R7
0653 FF                MOV     R7,A
0654 EC                MOV     A,R4
0655 9E                SUBB    A,R6
0656 FE                MOV     R6,A
0657 7400        R     MOV     A,#LOW id_str
0659 2F                ADD     A,R7
065A F582              MOV     DPL,A
065C 7400        R     MOV     A,#HIGH id_str
065E 3E                ADDC    A,R6
065F F583              MOV     DPH,A
0661 E0                MOVX    A,@DPTR
0662 FF                MOV     R7,A
0663 AE00        R     MOV     R6,i
0665 EE                MOV     A,R6
0666 FD                MOV     R5,A
0667 7C00              MOV     R4,#00H
0669 AE00        R     MOV     R6,id_str_len
066B EE                MOV     A,R6
066C FB                MOV     R3,A
066D 7A00              MOV     R2,#00H
066F C3                CLR     C
0670 EB                MOV     A,R3
0671 9D                SUBB    A,R5
0672 FD                MOV     R5,A
0673 EA                MOV     A,R2
0674 9C                SUBB    A,R4
0675 FC                MOV     R4,A
0676 7400        R     MOV     A,#LOW packet_data+05H
0678 2D                ADD     A,R5
0679 F582              MOV     DPL,A
067B 7400        R     MOV     A,#HIGH packet_data+05H
067D 3C                ADDC    A,R4
067E F583              MOV     DPH,A
0680 EF                MOV     A,R7
0681 F0                MOVX    @DPTR,A
0682 1500        R     DEC     i
0684 80BE              SJMP    ?C0051
0686         ?C0052:
                                           ; SOURCE LINE # 396
0686 900000      R     MOV     DPTR,#packet_data+034H
0689 7407              MOV     A,#07H
068B F0                MOVX    @DPTR,A
                                           ; SOURCE LINE # 397
068C 900000      R     MOV     DPTR,#packet_data+035H
068F 7403              MOV     A,#03H
0691 F0                MOVX    @DPTR,A
                                           ; SOURCE LINE # 398
0692 900000      E     MOV     DPTR,#c_mem+034H
0695 E0                MOVX    A,@DPTR
0696 FF                MOV     R7,A
0697 EF                MOV     A,R7
0698 6403              XRL     A,#03H
069A 6053              JZ      ?C0054
C51 COMPILER V9.51   COMMAND_PROCESSING                                                    02/09/2021 12:42:36 PAGE 58  

                                           ; SOURCE LINE # 399
069C 900000      E     MOV     DPTR,#c_mem+02H
069F 120000      E     LCALL   ?C?LLDXDATA
06A2 EC                MOV     A,R4
06A3 120000      E     LCALL   ?C?FCASTL
06A6 7B00              MOV     R3,#00H
06A8 7A00              MOV     R2,#00H
06AA 7980              MOV     R1,#080H
06AC 7847              MOV     R0,#047H
06AE 120000      E     LCALL   ?C?FPDIV
06B1 900000      R     MOV     DPTR,#packet_data+036H
06B4 120000      E     LCALL   ?C?LSTXDATA
                                           ; SOURCE LINE # 400
06B7 900000      E     MOV     DPTR,#c_mem+06H
06BA 120000      E     LCALL   ?C?LLDXDATA
06BD EC                MOV     A,R4
06BE 120000      E     LCALL   ?C?FCASTL
06C1 7B00              MOV     R3,#00H
06C3 7A00              MOV     R2,#00H
06C5 7980              MOV     R1,#080H
06C7 7847              MOV     R0,#047H
06C9 120000      E     LCALL   ?C?FPDIV
06CC 900000      R     MOV     DPTR,#packet_data+03AH
06CF 120000      E     LCALL   ?C?LSTXDATA
                                           ; SOURCE LINE # 401
06D2 900000      E     MOV     DPTR,#c_mem+0AH
06D5 120000      E     LCALL   ?C?LLDXDATA
06D8 EC                MOV     A,R4
06D9 120000      E     LCALL   ?C?FCASTL
06DC 7B00              MOV     R3,#00H
06DE 7A00              MOV     R2,#00H
06E0 7980              MOV     R1,#080H
06E2 7847              MOV     R0,#047H
06E4 120000      E     LCALL   ?C?FPDIV
06E7 900000      R     MOV     DPTR,#packet_data+03EH
06EA 120000      E     LCALL   ?C?LSTXDATA
                                           ; SOURCE LINE # 402
06ED 8051              SJMP    ?C0055
06EF         ?C0054:
                                           ; SOURCE LINE # 403
                                           ; SOURCE LINE # 404
06EF 900000      E     MOV     DPTR,#c_mem+01AH
06F2 120000      E     LCALL   ?C?LLDXDATA
06F5 EC                MOV     A,R4
06F6 120000      E     LCALL   ?C?FCASTL
06F9 7B00              MOV     R3,#00H
06FB 7A00              MOV     R2,#00H
06FD 7900              MOV     R1,#00H
06FF 7846              MOV     R0,#046H
0701 120000      E     LCALL   ?C?FPDIV
0704 900000      R     MOV     DPTR,#packet_data+036H
0707 120000      E     LCALL   ?C?LSTXDATA
                                           ; SOURCE LINE # 405
070A 900000      E     MOV     DPTR,#c_mem+01EH
070D 120000      E     LCALL   ?C?LLDXDATA
0710 EC                MOV     A,R4
0711 120000      E     LCALL   ?C?FCASTL
0714 7B00              MOV     R3,#00H
0716 7A00              MOV     R2,#00H
0718 7900              MOV     R1,#00H
071A 7846              MOV     R0,#046H
071C 120000      E     LCALL   ?C?FPDIV
C51 COMPILER V9.51   COMMAND_PROCESSING                                                    02/09/2021 12:42:36 PAGE 59  

071F 900000      R     MOV     DPTR,#packet_data+03AH
0722 120000      E     LCALL   ?C?LSTXDATA
                                           ; SOURCE LINE # 406
0725 900000      E     MOV     DPTR,#c_mem+022H
0728 120000      E     LCALL   ?C?LLDXDATA
072B EC                MOV     A,R4
072C 120000      E     LCALL   ?C?FCASTL
072F 7B00              MOV     R3,#00H
0731 7A00              MOV     R2,#00H
0733 7900              MOV     R1,#00H
0735 7846              MOV     R0,#046H
0737 120000      E     LCALL   ?C?FPDIV
073A 900000      R     MOV     DPTR,#packet_data+03EH
073D 120000      E     LCALL   ?C?LSTXDATA
                                           ; SOURCE LINE # 407
0740         ?C0055:
                                           ; SOURCE LINE # 409
0740 850000      R     MOV     i,pos_pid_str_len
0743         ?C0056:
0743 E500        R     MOV     A,i
0745 603E              JZ      ?C0057
                                           ; SOURCE LINE # 410
0747 AF00        R     MOV     R7,i
0749 7E00              MOV     R6,#00H
074B AD00        R     MOV     R5,pos_pid_str_len
074D 7C00              MOV     R4,#00H
074F C3                CLR     C
0750 ED                MOV     A,R5
0751 9F                SUBB    A,R7
0752 FF                MOV     R7,A
0753 EC                MOV     A,R4
0754 9E                SUBB    A,R6
0755 FE                MOV     R6,A
0756 7400        R     MOV     A,#LOW pos_pid_str
0758 2F                ADD     A,R7
0759 F582              MOV     DPL,A
075B 7400        R     MOV     A,#HIGH pos_pid_str
075D 3E                ADDC    A,R6
075E F583              MOV     DPH,A
0760 E0                MOVX    A,@DPTR
0761 FF                MOV     R7,A
0762 AE00        R     MOV     R6,i
0764 EE                MOV     A,R6
0765 FD                MOV     R5,A
0766 7C00              MOV     R4,#00H
0768 AE00        R     MOV     R6,pos_pid_str_len
076A EE                MOV     A,R6
076B FB                MOV     R3,A
076C 7A00              MOV     R2,#00H
076E C3                CLR     C
076F EB                MOV     A,R3
0770 9D                SUBB    A,R5
0771 FD                MOV     R5,A
0772 EA                MOV     A,R2
0773 9C                SUBB    A,R4
0774 FC                MOV     R4,A
0775 7400        R     MOV     A,#LOW packet_data+042H
0777 2D                ADD     A,R5
0778 F582              MOV     DPL,A
077A 7400        R     MOV     A,#HIGH packet_data+042H
077C 3C                ADDC    A,R4
077D F583              MOV     DPH,A
C51 COMPILER V9.51   COMMAND_PROCESSING                                                    02/09/2021 12:42:36 PAGE 60  

077F EF                MOV     A,R7
0780 F0                MOVX    @DPTR,A
0781 1500        R     DEC     i
0783 80BE              SJMP    ?C0056
0785         ?C0057:
                                           ; SOURCE LINE # 414
0785 900000      R     MOV     DPTR,#packet_data+066H
0788 7407              MOV     A,#07H
078A F0                MOVX    @DPTR,A
                                           ; SOURCE LINE # 415
078B 900000      R     MOV     DPTR,#packet_data+067H
078E 7403              MOV     A,#03H
0790 F0                MOVX    @DPTR,A
                                           ; SOURCE LINE # 416
0791 900000      E     MOV     DPTR,#c_mem+034H
0794 E0                MOVX    A,@DPTR
0795 FF                MOV     R7,A
0796 EF                MOV     A,R7
0797 6403              XRL     A,#03H
0799 6053              JZ      ?C0059
                                           ; SOURCE LINE # 417
079B 900000      E     MOV     DPTR,#c_mem+0EH
079E 120000      E     LCALL   ?C?LLDXDATA
07A1 EC                MOV     A,R4
07A2 120000      E     LCALL   ?C?FCASTL
07A5 7B00              MOV     R3,#00H
07A7 7A00              MOV     R2,#00H
07A9 7980              MOV     R1,#080H
07AB 7847              MOV     R0,#047H
07AD 120000      E     LCALL   ?C?FPDIV
07B0 900000      R     MOV     DPTR,#packet_data+068H
07B3 120000      E     LCALL   ?C?LSTXDATA
                                           ; SOURCE LINE # 418
07B6 900000      E     MOV     DPTR,#c_mem+012H
07B9 120000      E     LCALL   ?C?LLDXDATA
07BC EC                MOV     A,R4
07BD 120000      E     LCALL   ?C?FCASTL
07C0 7B00              MOV     R3,#00H
07C2 7A00              MOV     R2,#00H
07C4 7980              MOV     R1,#080H
07C6 7847              MOV     R0,#047H
07C8 120000      E     LCALL   ?C?FPDIV
07CB 900000      R     MOV     DPTR,#packet_data+06CH
07CE 120000      E     LCALL   ?C?LSTXDATA
                                           ; SOURCE LINE # 419
07D1 900000      E     MOV     DPTR,#c_mem+016H
07D4 120000      E     LCALL   ?C?LLDXDATA
07D7 EC                MOV     A,R4
07D8 120000      E     LCALL   ?C?FCASTL
07DB 7B00              MOV     R3,#00H
07DD 7A00              MOV     R2,#00H
07DF 7980              MOV     R1,#080H
07E1 7847              MOV     R0,#047H
07E3 120000      E     LCALL   ?C?FPDIV
07E6 900000      R     MOV     DPTR,#packet_data+070H
07E9 120000      E     LCALL   ?C?LSTXDATA
                                           ; SOURCE LINE # 420
07EC 8051              SJMP    ?C0060
07EE         ?C0059:
                                           ; SOURCE LINE # 421
                                           ; SOURCE LINE # 422
07EE 900000      E     MOV     DPTR,#c_mem+026H
C51 COMPILER V9.51   COMMAND_PROCESSING                                                    02/09/2021 12:42:36 PAGE 61  

07F1 120000      E     LCALL   ?C?LLDXDATA
07F4 EC                MOV     A,R4
07F5 120000      E     LCALL   ?C?FCASTL
07F8 7B00              MOV     R3,#00H
07FA 7A00              MOV     R2,#00H
07FC 7900              MOV     R1,#00H
07FE 7846              MOV     R0,#046H
0800 120000      E     LCALL   ?C?FPDIV
0803 900000      R     MOV     DPTR,#packet_data+068H
0806 120000      E     LCALL   ?C?LSTXDATA
                                           ; SOURCE LINE # 423
0809 900000      E     MOV     DPTR,#c_mem+02AH
080C 120000      E     LCALL   ?C?LLDXDATA
080F EC                MOV     A,R4
0810 120000      E     LCALL   ?C?FCASTL
0813 7B00              MOV     R3,#00H
0815 7A00              MOV     R2,#00H
0817 7900              MOV     R1,#00H
0819 7846              MOV     R0,#046H
081B 120000      E     LCALL   ?C?FPDIV
081E 900000      R     MOV     DPTR,#packet_data+06CH
0821 120000      E     LCALL   ?C?LSTXDATA
                                           ; SOURCE LINE # 424
0824 900000      E     MOV     DPTR,#c_mem+02EH
0827 120000      E     LCALL   ?C?LLDXDATA
082A EC                MOV     A,R4
082B 120000      E     LCALL   ?C?FCASTL
082E 7B00              MOV     R3,#00H
0830 7A00              MOV     R2,#00H
0832 7900              MOV     R1,#00H
0834 7846              MOV     R0,#046H
0836 120000      E     LCALL   ?C?FPDIV
0839 900000      R     MOV     DPTR,#packet_data+070H
083C 120000      E     LCALL   ?C?LSTXDATA
                                           ; SOURCE LINE # 425
083F         ?C0060:
                                           ; SOURCE LINE # 427
083F 850000      R     MOV     i,curr_pid_str_len
0842         ?C0061:
0842 E500        R     MOV     A,i
0844 603E              JZ      ?C0062
                                           ; SOURCE LINE # 428
0846 AF00        R     MOV     R7,i
0848 7E00              MOV     R6,#00H
084A AD00        R     MOV     R5,curr_pid_str_len
084C 7C00              MOV     R4,#00H
084E C3                CLR     C
084F ED                MOV     A,R5
0850 9F                SUBB    A,R7
0851 FF                MOV     R7,A
0852 EC                MOV     A,R4
0853 9E                SUBB    A,R6
0854 FE                MOV     R6,A
0855 7400        R     MOV     A,#LOW curr_pid_str
0857 2F                ADD     A,R7
0858 F582              MOV     DPL,A
085A 7400        R     MOV     A,#HIGH curr_pid_str
085C 3E                ADDC    A,R6
085D F583              MOV     DPH,A
085F E0                MOVX    A,@DPTR
0860 FF                MOV     R7,A
0861 AE00        R     MOV     R6,i
C51 COMPILER V9.51   COMMAND_PROCESSING                                                    02/09/2021 12:42:36 PAGE 62  

0863 EE                MOV     A,R6
0864 FD                MOV     R5,A
0865 7C00              MOV     R4,#00H
0867 AE00        R     MOV     R6,curr_pid_str_len
0869 EE                MOV     A,R6
086A FB                MOV     R3,A
086B 7A00              MOV     R2,#00H
086D C3                CLR     C
086E EB                MOV     A,R3
086F 9D                SUBB    A,R5
0870 FD                MOV     R5,A
0871 EA                MOV     A,R2
0872 9C                SUBB    A,R4
0873 FC                MOV     R4,A
0874 7400        R     MOV     A,#LOW packet_data+074H
0876 2D                ADD     A,R5
0877 F582              MOV     DPL,A
0879 7400        R     MOV     A,#HIGH packet_data+074H
087B 3C                ADDC    A,R4
087C F583              MOV     DPH,A
087E EF                MOV     A,R7
087F F0                MOVX    @DPTR,A
0880 1500        R     DEC     i
0882 80BE              SJMP    ?C0061
0884         ?C0062:
                                           ; SOURCE LINE # 432
0884 900000      R     MOV     DPTR,#packet_data+098H
0887 E4                CLR     A
0888 F0                MOVX    @DPTR,A
                                           ; SOURCE LINE # 433
0889 900000      R     MOV     DPTR,#packet_data+099H
088C 7401              MOV     A,#01H
088E F0                MOVX    @DPTR,A
                                           ; SOURCE LINE # 434
088F 900000      E     MOV     DPTR,#c_mem+032H
0892 E0                MOVX    A,@DPTR
0893 FF                MOV     R7,A
0894 900000      R     MOV     DPTR,#packet_data+09AH
0897 EF                MOV     A,R7
0898 F0                MOVX    @DPTR,A
                                           ; SOURCE LINE # 435
0899 900000      E     MOV     DPTR,#c_mem+032H
089C E0                MOVX    A,@DPTR
089D FF                MOV     R7,A
089E EF                MOV     A,R7
089F 6026              JZ      ?C0064
                                           ; SOURCE LINE # 436
08A1 7B01              MOV     R3,#01H
08A3 7A00        R     MOV     R2,#HIGH startup_str
08A5 7900        R     MOV     R1,#LOW startup_str
08A7 C003              PUSH    AR3
08A9 C002              PUSH    AR2
08AB C001              PUSH    AR1
08AD 7BFF              MOV     R3,#0FFH
08AF 7A00        R     MOV     R2,#HIGH ?SC_0
08B1 7900        R     MOV     R1,#LOW ?SC_0
08B3 900000      E     MOV     DPTR,#?_strcat?BYTE+03H
08B6 120000      E     LCALL   ?C?PSTXDATA
08B9 D001              POP     AR1
08BB D002              POP     AR2
08BD D003              POP     AR3
08BF 120000      E     LCALL   _strcat
C51 COMPILER V9.51   COMMAND_PROCESSING                                                    02/09/2021 12:42:36 PAGE 63  

                                           ; SOURCE LINE # 437
08C2 75001C      R     MOV     string_lenght,#01CH
                                           ; SOURCE LINE # 438
08C5 8024              SJMP    ?C0065
08C7         ?C0064:
                                           ; SOURCE LINE # 439
                                           ; SOURCE LINE # 440
08C7 7B01              MOV     R3,#01H
08C9 7A00        R     MOV     R2,#HIGH startup_str
08CB 7900        R     MOV     R1,#LOW startup_str
08CD C003              PUSH    AR3
08CF C002              PUSH    AR2
08D1 C001              PUSH    AR1
08D3 7BFF              MOV     R3,#0FFH
08D5 7A00        R     MOV     R2,#HIGH ?SC_6
08D7 7900        R     MOV     R1,#LOW ?SC_6
08D9 900000      E     MOV     DPTR,#?_strcat?BYTE+03H
08DC 120000      E     LCALL   ?C?PSTXDATA
08DF D001              POP     AR1
08E1 D002              POP     AR2
08E3 D003              POP     AR3
08E5 120000      E     LCALL   _strcat
                                           ; SOURCE LINE # 441
08E8 75001B      R     MOV     string_lenght,#01BH
                                           ; SOURCE LINE # 442
08EB         ?C0065:
                                           ; SOURCE LINE # 443
08EB 850000      R     MOV     i,string_lenght
08EE         ?C0066:
08EE E500        R     MOV     A,i
08F0 603E              JZ      ?C0067
                                           ; SOURCE LINE # 444
08F2 AF00        R     MOV     R7,i
08F4 7E00              MOV     R6,#00H
08F6 AD00        R     MOV     R5,string_lenght
08F8 7C00              MOV     R4,#00H
08FA C3                CLR     C
08FB ED                MOV     A,R5
08FC 9F                SUBB    A,R7
08FD FF                MOV     R7,A
08FE EC                MOV     A,R4
08FF 9E                SUBB    A,R6
0900 FE                MOV     R6,A
0901 7400        R     MOV     A,#LOW startup_str
0903 2F                ADD     A,R7
0904 F582              MOV     DPL,A
0906 7400        R     MOV     A,#HIGH startup_str
0908 3E                ADDC    A,R6
0909 F583              MOV     DPH,A
090B E0                MOVX    A,@DPTR
090C FF                MOV     R7,A
090D AE00        R     MOV     R6,i
090F EE                MOV     A,R6
0910 FD                MOV     R5,A
0911 7C00              MOV     R4,#00H
0913 AE00        R     MOV     R6,string_lenght
0915 EE                MOV     A,R6
0916 FB                MOV     R3,A
0917 7A00              MOV     R2,#00H
0919 C3                CLR     C
091A EB                MOV     A,R3
091B 9D                SUBB    A,R5
C51 COMPILER V9.51   COMMAND_PROCESSING                                                    02/09/2021 12:42:36 PAGE 64  

091C FD                MOV     R5,A
091D EA                MOV     A,R2
091E 9C                SUBB    A,R4
091F FC                MOV     R4,A
0920 7400        R     MOV     A,#LOW packet_data+09BH
0922 2D                ADD     A,R5
0923 F582              MOV     DPL,A
0925 7400        R     MOV     A,#HIGH packet_data+09BH
0927 3C                ADDC    A,R4
0928 F583              MOV     DPH,A
092A EF                MOV     A,R7
092B F0                MOVX    @DPTR,A
092C 1500        R     DEC     i
092E 80BE              SJMP    ?C0066
0930         ?C0067:
                                           ; SOURCE LINE # 446
0930 AF00        R     MOV     R7,string_lenght
0932 7400        R     MOV     A,#LOW packet_data+09BH
0934 2F                ADD     A,R7
0935 F582              MOV     DPL,A
0937 E4                CLR     A
0938 3400        R     ADDC    A,#HIGH packet_data+09BH
093A F583              MOV     DPH,A
093C 7403              MOV     A,#03H
093E F0                MOVX    @DPTR,A
                                           ; SOURCE LINE # 450
093F 900000      R     MOV     DPTR,#packet_data+0CAH
0942 E4                CLR     A
0943 F0                MOVX    @DPTR,A
                                           ; SOURCE LINE # 451
0944 900000      R     MOV     DPTR,#packet_data+0CBH
0947 7401              MOV     A,#01H
0949 F0                MOVX    @DPTR,A
                                           ; SOURCE LINE # 452
094A 900000      E     MOV     DPTR,#c_mem+033H
094D E0                MOVX    A,@DPTR
094E FF                MOV     R7,A
094F 900000      R     MOV     DPTR,#packet_data+0CCH
0952 EF                MOV     A,R7
0953 F0                MOVX    @DPTR,A
                                           ; SOURCE LINE # 453
0954 900000      E     MOV     DPTR,#c_mem+033H
0957 E0                MOVX    A,@DPTR
0958 FF                MOV     R7,A
0959 EF                MOV     A,R7
095A 120000      E     LCALL   ?C?CCASE
095D 0000        R     DW      ?C0070
095F 00                DB      00H
0960 0000        R     DW      ?C0071
0962 01                DB      01H
0963 0000        R     DW      ?C0072
0965 02                DB      02H
0966 0000        R     DW      ?C0073
0968 03                DB      03H
0969 0000        R     DW      ?C0074
096B 04                DB      04H
096C 0000        R     DW      ?C0075
096E 05                DB      05H
096F 0000              DW      00H
0971 0000        R     DW      ?C0069
                                           ; SOURCE LINE # 454
0973         ?C0070:
C51 COMPILER V9.51   COMMAND_PROCESSING                                                    02/09/2021 12:42:36 PAGE 65  

                                           ; SOURCE LINE # 455
0973 7B01              MOV     R3,#01H
0975 7A00        R     MOV     R2,#HIGH input_str
0977 7900        R     MOV     R1,#LOW input_str
0979 C003              PUSH    AR3
097B C002              PUSH    AR2
097D C001              PUSH    AR1
097F 7BFF              MOV     R3,#0FFH
0981 7A00        R     MOV     R2,#HIGH ?SC_11
0983 7900        R     MOV     R1,#LOW ?SC_11
0985 900000      E     MOV     DPTR,#?_strcat?BYTE+03H
0988 120000      E     LCALL   ?C?PSTXDATA
098B D001              POP     AR1
098D D002              POP     AR2
098F D003              POP     AR3
0991 120000      E     LCALL   _strcat
                                           ; SOURCE LINE # 456
0994 750014      R     MOV     string_lenght,#014H
                                           ; SOURCE LINE # 457
0997 020000      R     LJMP    ?C0069
                                           ; SOURCE LINE # 458
099A         ?C0071:
                                           ; SOURCE LINE # 459
099A 7B01              MOV     R3,#01H
099C 7A00        R     MOV     R2,#HIGH input_str
099E 7900        R     MOV     R1,#LOW input_str
09A0 C003              PUSH    AR3
09A2 C002              PUSH    AR2
09A4 C001              PUSH    AR1
09A6 7BFF              MOV     R3,#0FFH
09A8 7A00        R     MOV     R2,#HIGH ?SC_17
09AA 7900        R     MOV     R1,#LOW ?SC_17
09AC 900000      E     MOV     DPTR,#?_strcat?BYTE+03H
09AF 120000      E     LCALL   ?C?PSTXDATA
09B2 D001              POP     AR1
09B4 D002              POP     AR2
09B6 D003              POP     AR3
09B8 120000      E     LCALL   _strcat
                                           ; SOURCE LINE # 460
09BB 750017      R     MOV     string_lenght,#017H
                                           ; SOURCE LINE # 461
09BE 020000      R     LJMP    ?C0069
                                           ; SOURCE LINE # 462
09C1         ?C0072:
                                           ; SOURCE LINE # 463
09C1 7B01              MOV     R3,#01H
09C3 7A00        R     MOV     R2,#HIGH input_str
09C5 7900        R     MOV     R1,#LOW input_str
09C7 C003              PUSH    AR3
09C9 C002              PUSH    AR2
09CB C001              PUSH    AR1
09CD 7BFF              MOV     R3,#0FFH
09CF 7A00        R     MOV     R2,#HIGH ?SC_26
09D1 7900        R     MOV     R1,#LOW ?SC_26
09D3 900000      E     MOV     DPTR,#?_strcat?BYTE+03H
09D6 120000      E     LCALL   ?C?PSTXDATA
09D9 D001              POP     AR1
09DB D002              POP     AR2
09DD D003              POP     AR3
09DF 120000      E     LCALL   _strcat
                                           ; SOURCE LINE # 464
09E2 750021      R     MOV     string_lenght,#021H
C51 COMPILER V9.51   COMMAND_PROCESSING                                                    02/09/2021 12:42:36 PAGE 66  

                                           ; SOURCE LINE # 465
09E5 8070              SJMP    ?C0069
                                           ; SOURCE LINE # 466
09E7         ?C0073:
                                           ; SOURCE LINE # 467
09E7 7B01              MOV     R3,#01H
09E9 7A00        R     MOV     R2,#HIGH input_str
09EB 7900        R     MOV     R1,#LOW input_str
09ED C003              PUSH    AR3
09EF C002              PUSH    AR2
09F1 C001              PUSH    AR1
09F3 7BFF              MOV     R3,#0FFH
09F5 7A00        R     MOV     R2,#HIGH ?SC_45
09F7 7900        R     MOV     R1,#LOW ?SC_45
09F9 900000      E     MOV     DPTR,#?_strcat?BYTE+03H
09FC 120000      E     LCALL   ?C?PSTXDATA
09FF D001              POP     AR1
0A01 D002              POP     AR2
0A03 D003              POP     AR3
0A05 120000      E     LCALL   _strcat
                                           ; SOURCE LINE # 468
0A08 75001D      R     MOV     string_lenght,#01DH
                                           ; SOURCE LINE # 469
0A0B 804A              SJMP    ?C0069
                                           ; SOURCE LINE # 470
0A0D         ?C0074:
                                           ; SOURCE LINE # 471
0A0D 7B01              MOV     R3,#01H
0A0F 7A00        R     MOV     R2,#HIGH input_str
0A11 7900        R     MOV     R1,#LOW input_str
0A13 C003              PUSH    AR3
0A15 C002              PUSH    AR2
0A17 C001              PUSH    AR1
0A19 7BFF              MOV     R3,#0FFH
0A1B 7A00        R     MOV     R2,#HIGH ?SC_60
0A1D 7900        R     MOV     R1,#LOW ?SC_60
0A1F 900000      E     MOV     DPTR,#?_strcat?BYTE+03H
0A22 120000      E     LCALL   ?C?PSTXDATA
0A25 D001              POP     AR1
0A27 D002              POP     AR2
0A29 D003              POP     AR3
0A2B 120000      E     LCALL   _strcat
                                           ; SOURCE LINE # 472
0A2E 750019      R     MOV     string_lenght,#019H
                                           ; SOURCE LINE # 473
0A31 8024              SJMP    ?C0069
                                           ; SOURCE LINE # 474
0A33         ?C0075:
                                           ; SOURCE LINE # 475
0A33 7B01              MOV     R3,#01H
0A35 7A00        R     MOV     R2,#HIGH input_str
0A37 7900        R     MOV     R1,#LOW input_str
0A39 C003              PUSH    AR3
0A3B C002              PUSH    AR2
0A3D C001              PUSH    AR1
0A3F 7BFF              MOV     R3,#0FFH
0A41 7A00        R     MOV     R2,#HIGH ?SC_71
0A43 7900        R     MOV     R1,#LOW ?SC_71
0A45 900000      E     MOV     DPTR,#?_strcat?BYTE+03H
0A48 120000      E     LCALL   ?C?PSTXDATA
0A4B D001              POP     AR1
0A4D D002              POP     AR2
C51 COMPILER V9.51   COMMAND_PROCESSING                                                    02/09/2021 12:42:36 PAGE 67  

0A4F D003              POP     AR3
0A51 120000      E     LCALL   _strcat
                                           ; SOURCE LINE # 476
0A54 750022      R     MOV     string_lenght,#022H
                                           ; SOURCE LINE # 477
                                           ; SOURCE LINE # 478
0A57         ?C0069:
                                           ; SOURCE LINE # 479
0A57 850000      R     MOV     i,string_lenght
0A5A         ?C0076:
0A5A E500        R     MOV     A,i
0A5C 603E              JZ      ?C0077
                                           ; SOURCE LINE # 480
0A5E AF00        R     MOV     R7,i
0A60 7E00              MOV     R6,#00H
0A62 AD00        R     MOV     R5,string_lenght
0A64 7C00              MOV     R4,#00H
0A66 C3                CLR     C
0A67 ED                MOV     A,R5
0A68 9F                SUBB    A,R7
0A69 FF                MOV     R7,A
0A6A EC                MOV     A,R4
0A6B 9E                SUBB    A,R6
0A6C FE                MOV     R6,A
0A6D 7400        R     MOV     A,#LOW input_str
0A6F 2F                ADD     A,R7
0A70 F582              MOV     DPL,A
0A72 7400        R     MOV     A,#HIGH input_str
0A74 3E                ADDC    A,R6
0A75 F583              MOV     DPH,A
0A77 E0                MOVX    A,@DPTR
0A78 FF                MOV     R7,A
0A79 AE00        R     MOV     R6,i
0A7B EE                MOV     A,R6
0A7C FD                MOV     R5,A
0A7D 7C00              MOV     R4,#00H
0A7F AE00        R     MOV     R6,string_lenght
0A81 EE                MOV     A,R6
0A82 FB                MOV     R3,A
0A83 7A00              MOV     R2,#00H
0A85 C3                CLR     C
0A86 EB                MOV     A,R3
0A87 9D                SUBB    A,R5
0A88 FD                MOV     R5,A
0A89 EA                MOV     A,R2
0A8A 9C                SUBB    A,R4
0A8B FC                MOV     R4,A
0A8C 7400        R     MOV     A,#LOW packet_data+0CDH
0A8E 2D                ADD     A,R5
0A8F F582              MOV     DPL,A
0A91 7400        R     MOV     A,#HIGH packet_data+0CDH
0A93 3C                ADDC    A,R4
0A94 F583              MOV     DPH,A
0A96 EF                MOV     A,R7
0A97 F0                MOVX    @DPTR,A
0A98 1500        R     DEC     i
0A9A 80BE              SJMP    ?C0076
0A9C         ?C0077:
                                           ; SOURCE LINE # 482
0A9C AF00        R     MOV     R7,string_lenght
0A9E 7400        R     MOV     A,#LOW packet_data+0CDH
0AA0 2F                ADD     A,R7
C51 COMPILER V9.51   COMMAND_PROCESSING                                                    02/09/2021 12:42:36 PAGE 68  

0AA1 F582              MOV     DPL,A
0AA3 E4                CLR     A
0AA4 3400        R     ADDC    A,#HIGH packet_data+0CDH
0AA6 F583              MOV     DPH,A
0AA8 7401              MOV     A,#01H
0AAA F0                MOVX    @DPTR,A
                                           ; SOURCE LINE # 486
0AAB 900000      R     MOV     DPTR,#packet_data+0FCH
0AAE E4                CLR     A
0AAF F0                MOVX    @DPTR,A
                                           ; SOURCE LINE # 487
0AB0 900000      R     MOV     DPTR,#packet_data+0FDH
0AB3 7401              MOV     A,#01H
0AB5 F0                MOVX    @DPTR,A
                                           ; SOURCE LINE # 488
0AB6 900000      E     MOV     DPTR,#c_mem+034H
0AB9 E0                MOVX    A,@DPTR
0ABA FF                MOV     R7,A
0ABB 900000      R     MOV     DPTR,#packet_data+0FEH
0ABE EF                MOV     A,R7
0ABF F0                MOVX    @DPTR,A
                                           ; SOURCE LINE # 489
0AC0 900000      E     MOV     DPTR,#c_mem+034H
0AC3 E0                MOVX    A,@DPTR
0AC4 FF                MOV     R7,A
0AC5 EF                MOV     A,R7
0AC6 120000      E     LCALL   ?C?CCASE
0AC9 0000        R     DW      ?C0080
0ACB 00                DB      00H
0ACC 0000        R     DW      ?C0081
0ACE 01                DB      01H
0ACF 0000        R     DW      ?C0082
0AD1 02                DB      02H
0AD2 0000        R     DW      ?C0083
0AD4 03                DB      03H
0AD5 0000              DW      00H
0AD7 0000        R     DW      ?C0079
                                           ; SOURCE LINE # 490
0AD9         ?C0080:
                                           ; SOURCE LINE # 491
0AD9 7B01              MOV     R3,#01H
0ADB 7A00        R     MOV     R2,#HIGH contr_str
0ADD 7900        R     MOV     R1,#LOW contr_str
0ADF C003              PUSH    AR3
0AE1 C002              PUSH    AR2
0AE3 C001              PUSH    AR1
0AE5 7BFF              MOV     R3,#0FFH
0AE7 7A00        R     MOV     R2,#HIGH ?SC_91
0AE9 7900        R     MOV     R1,#LOW ?SC_91
0AEB 900000      E     MOV     DPTR,#?_strcat?BYTE+03H
0AEE 120000      E     LCALL   ?C?PSTXDATA
0AF1 D001              POP     AR1
0AF3 D002              POP     AR2
0AF5 D003              POP     AR3
0AF7 120000      E     LCALL   _strcat
                                           ; SOURCE LINE # 492
0AFA 75001B      R     MOV     string_lenght,#01BH
                                           ; SOURCE LINE # 493
0AFD 8070              SJMP    ?C0079
                                           ; SOURCE LINE # 494
0AFF         ?C0081:
                                           ; SOURCE LINE # 495
C51 COMPILER V9.51   COMMAND_PROCESSING                                                    02/09/2021 12:42:36 PAGE 69  

0AFF 7B01              MOV     R3,#01H
0B01 7A00        R     MOV     R2,#HIGH contr_str
0B03 7900        R     MOV     R1,#LOW contr_str
0B05 C003              PUSH    AR3
0B07 C002              PUSH    AR2
0B09 C001              PUSH    AR1
0B0B 7BFF              MOV     R3,#0FFH
0B0D 7A00        R     MOV     R2,#HIGH ?SC_102
0B0F 7900        R     MOV     R1,#LOW ?SC_102
0B11 900000      E     MOV     DPTR,#?_strcat?BYTE+03H
0B14 120000      E     LCALL   ?C?PSTXDATA
0B17 D001              POP     AR1
0B19 D002              POP     AR2
0B1B D003              POP     AR3
0B1D 120000      E     LCALL   _strcat
                                           ; SOURCE LINE # 496
0B20 750016      R     MOV     string_lenght,#016H
                                           ; SOURCE LINE # 497
0B23 804A              SJMP    ?C0079
                                           ; SOURCE LINE # 498
0B25         ?C0082:
                                           ; SOURCE LINE # 499
0B25 7B01              MOV     R3,#01H
0B27 7A00        R     MOV     R2,#HIGH contr_str
0B29 7900        R     MOV     R1,#LOW contr_str
0B2B C003              PUSH    AR3
0B2D C002              PUSH    AR2
0B2F C001              PUSH    AR1
0B31 7BFF              MOV     R3,#0FFH
0B33 7A00        R     MOV     R2,#HIGH ?SC_108
0B35 7900        R     MOV     R1,#LOW ?SC_108
0B37 900000      E     MOV     DPTR,#?_strcat?BYTE+03H
0B3A 120000      E     LCALL   ?C?PSTXDATA
0B3D D001              POP     AR1
0B3F D002              POP     AR2
0B41 D003              POP     AR3
0B43 120000      E     LCALL   _strcat
                                           ; SOURCE LINE # 500
0B46 75001A      R     MOV     string_lenght,#01AH
                                           ; SOURCE LINE # 501
0B49 8024              SJMP    ?C0079
                                           ; SOURCE LINE # 502
0B4B         ?C0083:
                                           ; SOURCE LINE # 503
0B4B 7B01              MOV     R3,#01H
0B4D 7A00        R     MOV     R2,#HIGH contr_str
0B4F 7900        R     MOV     R1,#LOW contr_str
0B51 C003              PUSH    AR3
0B53 C002              PUSH    AR2
0B55 C001              PUSH    AR1
0B57 7BFF              MOV     R3,#0FFH
0B59 7A00        R     MOV     R2,#HIGH ?SC_118
0B5B 7900        R     MOV     R1,#LOW ?SC_118
0B5D 900000      E     MOV     DPTR,#?_strcat?BYTE+03H
0B60 120000      E     LCALL   ?C?PSTXDATA
0B63 D001              POP     AR1
0B65 D002              POP     AR2
0B67 D003              POP     AR3
0B69 120000      E     LCALL   _strcat
                                           ; SOURCE LINE # 504
0B6C 750027      R     MOV     string_lenght,#027H
                                           ; SOURCE LINE # 505
C51 COMPILER V9.51   COMMAND_PROCESSING                                                    02/09/2021 12:42:36 PAGE 70  

                                           ; SOURCE LINE # 506
0B6F         ?C0079:
                                           ; SOURCE LINE # 507
0B6F 850000      R     MOV     i,string_lenght
0B72         ?C0084:
0B72 E500        R     MOV     A,i
0B74 603E              JZ      ?C0085
                                           ; SOURCE LINE # 508
0B76 AF00        R     MOV     R7,i
0B78 7E00              MOV     R6,#00H
0B7A AD00        R     MOV     R5,string_lenght
0B7C 7C00              MOV     R4,#00H
0B7E C3                CLR     C
0B7F ED                MOV     A,R5
0B80 9F                SUBB    A,R7
0B81 FF                MOV     R7,A
0B82 EC                MOV     A,R4
0B83 9E                SUBB    A,R6
0B84 FE                MOV     R6,A
0B85 7400        R     MOV     A,#LOW contr_str
0B87 2F                ADD     A,R7
0B88 F582              MOV     DPL,A
0B8A 7400        R     MOV     A,#HIGH contr_str
0B8C 3E                ADDC    A,R6
0B8D F583              MOV     DPH,A
0B8F E0                MOVX    A,@DPTR
0B90 FF                MOV     R7,A
0B91 AE00        R     MOV     R6,i
0B93 EE                MOV     A,R6
0B94 FD                MOV     R5,A
0B95 7C00              MOV     R4,#00H
0B97 AE00        R     MOV     R6,string_lenght
0B99 EE                MOV     A,R6
0B9A FB                MOV     R3,A
0B9B 7A00              MOV     R2,#00H
0B9D C3                CLR     C
0B9E EB                MOV     A,R3
0B9F 9D                SUBB    A,R5
0BA0 FD                MOV     R5,A
0BA1 EA                MOV     A,R2
0BA2 9C                SUBB    A,R4
0BA3 FC                MOV     R4,A
0BA4 7400        R     MOV     A,#LOW packet_data+0FFH
0BA6 2D                ADD     A,R5
0BA7 F582              MOV     DPL,A
0BA9 7400        R     MOV     A,#HIGH packet_data+0FFH
0BAB 3C                ADDC    A,R4
0BAC F583              MOV     DPH,A
0BAE EF                MOV     A,R7
0BAF F0                MOVX    @DPTR,A
0BB0 1500        R     DEC     i
0BB2 80BE              SJMP    ?C0084
0BB4         ?C0085:
                                           ; SOURCE LINE # 510
0BB4 AF00        R     MOV     R7,string_lenght
0BB6 7400        R     MOV     A,#LOW packet_data+0FFH
0BB8 2F                ADD     A,R7
0BB9 F582              MOV     DPL,A
0BBB E4                CLR     A
0BBC 3400        R     ADDC    A,#HIGH packet_data+0FFH
0BBE F583              MOV     DPH,A
0BC0 7402              MOV     A,#02H
C51 COMPILER V9.51   COMMAND_PROCESSING                                                    02/09/2021 12:42:36 PAGE 71  

0BC2 F0                MOVX    @DPTR,A
                                           ; SOURCE LINE # 514
0BC3 900000      R     MOV     DPTR,#packet_data+012EH
0BC6 7402              MOV     A,#02H
0BC8 F0                MOVX    @DPTR,A
                                           ; SOURCE LINE # 515
0BC9 900000      R     MOV     DPTR,#packet_data+012FH
0BCC 7403              MOV     A,#03H
0BCE F0                MOVX    @DPTR,A
                                           ; SOURCE LINE # 516
0BCF 750000      R     MOV     i,#00H
0BD2         ?C0087:
0BD2 E500        R     MOV     A,i
0BD4 C3                CLR     C
0BD5 9403              SUBB    A,#03H
0BD7 5020              JNC     ?C0088
                                           ; SOURCE LINE # 517
0BD9 AF00        R     MOV     R7,i
0BDB 7400        E     MOV     A,#LOW c_mem+035H
0BDD 2F                ADD     A,R7
0BDE F582              MOV     DPL,A
0BE0 E4                CLR     A
0BE1 3400        E     ADDC    A,#HIGH c_mem+035H
0BE3 F583              MOV     DPH,A
0BE5 E0                MOVX    A,@DPTR
0BE6 FF                MOV     R7,A
0BE7 AE00        R     MOV     R6,i
0BE9 7400        R     MOV     A,#LOW packet_data+0130H
0BEB 2E                ADD     A,R6
0BEC F582              MOV     DPL,A
0BEE E4                CLR     A
0BEF 3400        R     ADDC    A,#HIGH packet_data+0130H
0BF1 F583              MOV     DPH,A
0BF3 EF                MOV     A,R7
0BF4 F0                MOVX    @DPTR,A
0BF5 0500        R     INC     i
0BF7 80D9              SJMP    ?C0087
0BF9         ?C0088:
                                           ; SOURCE LINE # 518
0BF9 850000      R     MOV     i,res_str_len
0BFC         ?C0090:
0BFC E500        R     MOV     A,i
0BFE 603E              JZ      ?C0091
                                           ; SOURCE LINE # 519
0C00 AF00        R     MOV     R7,i
0C02 7E00              MOV     R6,#00H
0C04 AD00        R     MOV     R5,res_str_len
0C06 7C00              MOV     R4,#00H
0C08 C3                CLR     C
0C09 ED                MOV     A,R5
0C0A 9F                SUBB    A,R7
0C0B FF                MOV     R7,A
0C0C EC                MOV     A,R4
0C0D 9E                SUBB    A,R6
0C0E FE                MOV     R6,A
0C0F 7400        R     MOV     A,#LOW res_str
0C11 2F                ADD     A,R7
0C12 F582              MOV     DPL,A
0C14 7400        R     MOV     A,#HIGH res_str
0C16 3E                ADDC    A,R6
0C17 F583              MOV     DPH,A
0C19 E0                MOVX    A,@DPTR
C51 COMPILER V9.51   COMMAND_PROCESSING                                                    02/09/2021 12:42:36 PAGE 72  

0C1A FF                MOV     R7,A
0C1B AE00        R     MOV     R6,i
0C1D EE                MOV     A,R6
0C1E FD                MOV     R5,A
0C1F 7C00              MOV     R4,#00H
0C21 AE00        R     MOV     R6,res_str_len
0C23 EE                MOV     A,R6
0C24 FB                MOV     R3,A
0C25 7A00              MOV     R2,#00H
0C27 C3                CLR     C
0C28 EB                MOV     A,R3
0C29 9D                SUBB    A,R5
0C2A FD                MOV     R5,A
0C2B EA                MOV     A,R2
0C2C 9C                SUBB    A,R4
0C2D FC                MOV     R4,A
0C2E 7400        R     MOV     A,#LOW packet_data+0133H
0C30 2D                ADD     A,R5
0C31 F582              MOV     DPL,A
0C33 7400        R     MOV     A,#HIGH packet_data+0133H
0C35 3C                ADDC    A,R4
0C36 F583              MOV     DPH,A
0C38 EF                MOV     A,R7
0C39 F0                MOVX    @DPTR,A
0C3A 1500        R     DEC     i
0C3C 80BE              SJMP    ?C0090
0C3E         ?C0091:
                                           ; SOURCE LINE # 523
0C3E 900000      R     MOV     DPTR,#packet_data+0160H
0C41 7403              MOV     A,#03H
0C43 F0                MOVX    @DPTR,A
                                           ; SOURCE LINE # 524
0C44 900000      R     MOV     DPTR,#packet_data+0161H
0C47 7403              MOV     A,#03H
0C49 F0                MOVX    @DPTR,A
                                           ; SOURCE LINE # 525
0C4A 750000      R     MOV     i,#00H
0C4D         ?C0093:
0C4D E500        R     MOV     A,i
0C4F C3                CLR     C
0C50 9403              SUBB    A,#03H
0C52 503B              JNC     ?C0094
                                           ; SOURCE LINE # 526
0C54 AF00        R     MOV     R7,i
0C56 EF                MOV     A,R7
0C57 25E0              ADD     A,ACC
0C59 25E0              ADD     A,ACC
0C5B 2400        E     ADD     A,#LOW c_mem+038H
0C5D F582              MOV     DPL,A
0C5F E4                CLR     A
0C60 3400        E     ADDC    A,#HIGH c_mem+038H
0C62 F583              MOV     DPH,A
0C64 120000      E     LCALL   ?C?LLDXDATA
0C67 AB00        R     MOV     R3,i
0C69 7400        E     MOV     A,#LOW c_mem+035H
0C6B 2B                ADD     A,R3
0C6C F582              MOV     DPL,A
0C6E E4                CLR     A
0C6F 3400        E     ADDC    A,#HIGH c_mem+035H
0C71 F583              MOV     DPH,A
0C73 E0                MOVX    A,@DPTR
0C74 F9                MOV     R1,A
C51 COMPILER V9.51   COMMAND_PROCESSING                                                    02/09/2021 12:42:36 PAGE 73  

0C75 A801              MOV     R0,AR1
0C77 120000      E     LCALL   ?C?SLSHR
0C7A AD00        R     MOV     R5,i
0C7C 75F002            MOV     B,#02H
0C7F ED                MOV     A,R5
0C80 900000      R     MOV     DPTR,#packet_data+0162H
0C83 120000      E     LCALL   ?C?OFFXADD
0C86 EE                MOV     A,R6
0C87 F0                MOVX    @DPTR,A
0C88 A3                INC     DPTR
0C89 EF                MOV     A,R7
0C8A F0                MOVX    @DPTR,A
0C8B 0500        R     INC     i
0C8D 80BE              SJMP    ?C0093
0C8F         ?C0094:
                                           ; SOURCE LINE # 527
0C8F 850000      R     MOV     i,m_off_str_len
0C92         ?C0096:
0C92 E500        R     MOV     A,i
0C94 603E              JZ      ?C0097
                                           ; SOURCE LINE # 528
0C96 AF00        R     MOV     R7,i
0C98 7E00              MOV     R6,#00H
0C9A AD00        R     MOV     R5,m_off_str_len
0C9C 7C00              MOV     R4,#00H
0C9E C3                CLR     C
0C9F ED                MOV     A,R5
0CA0 9F                SUBB    A,R7
0CA1 FF                MOV     R7,A
0CA2 EC                MOV     A,R4
0CA3 9E                SUBB    A,R6
0CA4 FE                MOV     R6,A
0CA5 7400        R     MOV     A,#LOW m_off_str
0CA7 2F                ADD     A,R7
0CA8 F582              MOV     DPL,A
0CAA 7400        R     MOV     A,#HIGH m_off_str
0CAC 3E                ADDC    A,R6
0CAD F583              MOV     DPH,A
0CAF E0                MOVX    A,@DPTR
0CB0 FF                MOV     R7,A
0CB1 AE00        R     MOV     R6,i
0CB3 EE                MOV     A,R6
0CB4 FD                MOV     R5,A
0CB5 7C00              MOV     R4,#00H
0CB7 AE00        R     MOV     R6,m_off_str_len
0CB9 EE                MOV     A,R6
0CBA FB                MOV     R3,A
0CBB 7A00              MOV     R2,#00H
0CBD C3                CLR     C
0CBE EB                MOV     A,R3
0CBF 9D                SUBB    A,R5
0CC0 FD                MOV     R5,A
0CC1 EA                MOV     A,R2
0CC2 9C                SUBB    A,R4
0CC3 FC                MOV     R4,A
0CC4 7400        R     MOV     A,#LOW packet_data+0168H
0CC6 2D                ADD     A,R5
0CC7 F582              MOV     DPL,A
0CC9 7400        R     MOV     A,#HIGH packet_data+0168H
0CCB 3C                ADDC    A,R4
0CCC F583              MOV     DPH,A
0CCE EF                MOV     A,R7
C51 COMPILER V9.51   COMMAND_PROCESSING                                                    02/09/2021 12:42:36 PAGE 74  

0CCF F0                MOVX    @DPTR,A
0CD0 1500        R     DEC     i
0CD2 80BE              SJMP    ?C0096
0CD4         ?C0097:
                                           ; SOURCE LINE # 532
0CD4 900000      R     MOV     DPTR,#packet_data+0192H
0CD7 7407              MOV     A,#07H
0CD9 F0                MOVX    @DPTR,A
                                           ; SOURCE LINE # 533
0CDA 900000      R     MOV     DPTR,#packet_data+0193H
0CDD 7403              MOV     A,#03H
0CDF F0                MOVX    @DPTR,A
                                           ; SOURCE LINE # 534
0CE0 750000      R     MOV     i,#00H
0CE3         ?C0099:
0CE3 E500        R     MOV     A,i
0CE5 C3                CLR     C
0CE6 9403              SUBB    A,#03H
0CE8 5026              JNC     ?C0100
                                           ; SOURCE LINE # 535
0CEA AF00        R     MOV     R7,i
0CEC EF                MOV     A,R7
0CED 25E0              ADD     A,ACC
0CEF 25E0              ADD     A,ACC
0CF1 2400        E     ADD     A,#LOW c_mem+044H
0CF3 F582              MOV     DPL,A
0CF5 E4                CLR     A
0CF6 3400        E     ADDC    A,#HIGH c_mem+044H
0CF8 F583              MOV     DPH,A
0CFA 120000      E     LCALL   ?C?LLDXDATA
0CFD AB00        R     MOV     R3,i
0CFF 75F004            MOV     B,#04H
0D02 EB                MOV     A,R3
0D03 900000      R     MOV     DPTR,#packet_data+0194H
0D06 120000      E     LCALL   ?C?OFFXADD
0D09 120000      E     LCALL   ?C?LSTXDATA
0D0C 0500        R     INC     i
0D0E 80D3              SJMP    ?C0099
0D10         ?C0100:
                                           ; SOURCE LINE # 536
0D10 850000      R     MOV     i,mult_str_len
0D13         ?C0102:
0D13 E500        R     MOV     A,i
0D15 603E              JZ      ?C0103
                                           ; SOURCE LINE # 537
0D17 AF00        R     MOV     R7,i
0D19 7E00              MOV     R6,#00H
0D1B AD00        R     MOV     R5,mult_str_len
0D1D 7C00              MOV     R4,#00H
0D1F C3                CLR     C
0D20 ED                MOV     A,R5
0D21 9F                SUBB    A,R7
0D22 FF                MOV     R7,A
0D23 EC                MOV     A,R4
0D24 9E                SUBB    A,R6
0D25 FE                MOV     R6,A
0D26 7400        R     MOV     A,#LOW mult_str
0D28 2F                ADD     A,R7
0D29 F582              MOV     DPL,A
0D2B 7400        R     MOV     A,#HIGH mult_str
0D2D 3E                ADDC    A,R6
0D2E F583              MOV     DPH,A
C51 COMPILER V9.51   COMMAND_PROCESSING                                                    02/09/2021 12:42:36 PAGE 75  

0D30 E0                MOVX    A,@DPTR
0D31 FF                MOV     R7,A
0D32 AE00        R     MOV     R6,i
0D34 EE                MOV     A,R6
0D35 FD                MOV     R5,A
0D36 7C00              MOV     R4,#00H
0D38 AE00        R     MOV     R6,mult_str_len
0D3A EE                MOV     A,R6
0D3B FB                MOV     R3,A
0D3C 7A00              MOV     R2,#00H
0D3E C3                CLR     C
0D3F EB                MOV     A,R3
0D40 9D                SUBB    A,R5
0D41 FD                MOV     R5,A
0D42 EA                MOV     A,R2
0D43 9C                SUBB    A,R4
0D44 FC                MOV     R4,A
0D45 7400        R     MOV     A,#LOW packet_data+01A0H
0D47 2D                ADD     A,R5
0D48 F582              MOV     DPL,A
0D4A 7400        R     MOV     A,#HIGH packet_data+01A0H
0D4C 3C                ADDC    A,R4
0D4D F583              MOV     DPH,A
0D4F EF                MOV     A,R7
0D50 F0                MOVX    @DPTR,A
0D51 1500        R     DEC     i
0D53 80BE              SJMP    ?C0102
0D55         ?C0103:
                                           ; SOURCE LINE # 541
0D55 900000      R     MOV     DPTR,#packet_data+01C4H
0D58 E4                CLR     A
0D59 F0                MOVX    @DPTR,A
                                           ; SOURCE LINE # 542
0D5A 900000      R     MOV     DPTR,#packet_data+01C5H
0D5D 7401              MOV     A,#01H
0D5F F0                MOVX    @DPTR,A
                                           ; SOURCE LINE # 543
0D60 900000      E     MOV     DPTR,#c_mem+050H
0D63 E0                MOVX    A,@DPTR
0D64 FF                MOV     R7,A
0D65 900000      R     MOV     DPTR,#packet_data+01C6H
0D68 EF                MOV     A,R7
0D69 F0                MOVX    @DPTR,A
                                           ; SOURCE LINE # 544
0D6A 900000      E     MOV     DPTR,#c_mem+050H
0D6D E0                MOVX    A,@DPTR
0D6E FF                MOV     R7,A
0D6F EF                MOV     A,R7
0D70 6026              JZ      ?C0105
                                           ; SOURCE LINE # 545
0D72 7B01              MOV     R3,#01H
0D74 7A00        R     MOV     R2,#HIGH pos_lim_flag_str
0D76 7900        R     MOV     R1,#LOW pos_lim_flag_str
0D78 C003              PUSH    AR3
0D7A C002              PUSH    AR2
0D7C C001              PUSH    AR1
0D7E 7BFF              MOV     R3,#0FFH
0D80 7A00        R     MOV     R2,#HIGH ?SC_0
0D82 7900        R     MOV     R1,#LOW ?SC_0
0D84 900000      E     MOV     DPTR,#?_strcat?BYTE+03H
0D87 120000      E     LCALL   ?C?PSTXDATA
0D8A D001              POP     AR1
C51 COMPILER V9.51   COMMAND_PROCESSING                                                    02/09/2021 12:42:36 PAGE 76  

0D8C D002              POP     AR2
0D8E D003              POP     AR3
0D90 120000      E     LCALL   _strcat
                                           ; SOURCE LINE # 546
0D93 75001C      R     MOV     string_lenght,#01CH
                                           ; SOURCE LINE # 547
0D96 8024              SJMP    ?C0106
0D98         ?C0105:
                                           ; SOURCE LINE # 548
                                           ; SOURCE LINE # 549
0D98 7B01              MOV     R3,#01H
0D9A 7A00        R     MOV     R2,#HIGH pos_lim_flag_str
0D9C 7900        R     MOV     R1,#LOW pos_lim_flag_str
0D9E C003              PUSH    AR3
0DA0 C002              PUSH    AR2
0DA2 C001              PUSH    AR1
0DA4 7BFF              MOV     R3,#0FFH
0DA6 7A00        R     MOV     R2,#HIGH ?SC_6
0DA8 7900        R     MOV     R1,#LOW ?SC_6
0DAA 900000      E     MOV     DPTR,#?_strcat?BYTE+03H
0DAD 120000      E     LCALL   ?C?PSTXDATA
0DB0 D001              POP     AR1
0DB2 D002              POP     AR2
0DB4 D003              POP     AR3
0DB6 120000      E     LCALL   _strcat
                                           ; SOURCE LINE # 550
0DB9 75001B      R     MOV     string_lenght,#01BH
                                           ; SOURCE LINE # 551
0DBC         ?C0106:
                                           ; SOURCE LINE # 552
0DBC 850000      R     MOV     i,string_lenght
0DBF         ?C0107:
0DBF E500        R     MOV     A,i
0DC1 603E              JZ      ?C0108
                                           ; SOURCE LINE # 553
0DC3 AF00        R     MOV     R7,i
0DC5 7E00              MOV     R6,#00H
0DC7 AD00        R     MOV     R5,string_lenght
0DC9 7C00              MOV     R4,#00H
0DCB C3                CLR     C
0DCC ED                MOV     A,R5
0DCD 9F                SUBB    A,R7
0DCE FF                MOV     R7,A
0DCF EC                MOV     A,R4
0DD0 9E                SUBB    A,R6
0DD1 FE                MOV     R6,A
0DD2 7400        R     MOV     A,#LOW pos_lim_flag_str
0DD4 2F                ADD     A,R7
0DD5 F582              MOV     DPL,A
0DD7 7400        R     MOV     A,#HIGH pos_lim_flag_str
0DD9 3E                ADDC    A,R6
0DDA F583              MOV     DPH,A
0DDC E0                MOVX    A,@DPTR
0DDD FF                MOV     R7,A
0DDE AE00        R     MOV     R6,i
0DE0 EE                MOV     A,R6
0DE1 FD                MOV     R5,A
0DE2 7C00              MOV     R4,#00H
0DE4 AE00        R     MOV     R6,string_lenght
0DE6 EE                MOV     A,R6
0DE7 FB                MOV     R3,A
0DE8 7A00              MOV     R2,#00H
C51 COMPILER V9.51   COMMAND_PROCESSING                                                    02/09/2021 12:42:36 PAGE 77  

0DEA C3                CLR     C
0DEB EB                MOV     A,R3
0DEC 9D                SUBB    A,R5
0DED FD                MOV     R5,A
0DEE EA                MOV     A,R2
0DEF 9C                SUBB    A,R4
0DF0 FC                MOV     R4,A
0DF1 7400        R     MOV     A,#LOW packet_data+01C7H
0DF3 2D                ADD     A,R5
0DF4 F582              MOV     DPL,A
0DF6 7400        R     MOV     A,#HIGH packet_data+01C7H
0DF8 3C                ADDC    A,R4
0DF9 F583              MOV     DPH,A
0DFB EF                MOV     A,R7
0DFC F0                MOVX    @DPTR,A
0DFD 1500        R     DEC     i
0DFF 80BE              SJMP    ?C0107
0E01         ?C0108:
                                           ; SOURCE LINE # 555
0E01 AF00        R     MOV     R7,string_lenght
0E03 7400        R     MOV     A,#LOW packet_data+01C7H
0E05 2F                ADD     A,R7
0E06 F582              MOV     DPL,A
0E08 E4                CLR     A
0E09 3400        R     ADDC    A,#HIGH packet_data+01C7H
0E0B F583              MOV     DPH,A
0E0D 7403              MOV     A,#03H
0E0F F0                MOVX    @DPTR,A
                                           ; SOURCE LINE # 559
0E10 900000      R     MOV     DPTR,#packet_data+01F6H
0E13 7405              MOV     A,#05H
0E15 F0                MOVX    @DPTR,A
                                           ; SOURCE LINE # 560
0E16 900000      R     MOV     DPTR,#packet_data+01F7H
0E19 7402              MOV     A,#02H
0E1B F0                MOVX    @DPTR,A
                                           ; SOURCE LINE # 561
0E1C 750000      R     MOV     i,#00H
0E1F         ?C0110:
0E1F E500        R     MOV     A,i
0E21 C3                CLR     C
0E22 9401              SUBB    A,#01H
0E24 506E              JNC     ?C0111
                                           ; SOURCE LINE # 562
0E26 AF00        R     MOV     R7,i
0E28 EF                MOV     A,R7
0E29 25E0              ADD     A,ACC
0E2B 25E0              ADD     A,ACC
0E2D 2400        E     ADD     A,#LOW c_mem+051H
0E2F F582              MOV     DPL,A
0E31 E4                CLR     A
0E32 3400        E     ADDC    A,#HIGH c_mem+051H
0E34 F583              MOV     DPH,A
0E36 120000      E     LCALL   ?C?LLDXDATA
0E39 AB00        R     MOV     R3,i
0E3B 7400        E     MOV     A,#LOW c_mem+035H
0E3D 2B                ADD     A,R3
0E3E F582              MOV     DPL,A
0E40 E4                CLR     A
0E41 3400        E     ADDC    A,#HIGH c_mem+035H
0E43 F583              MOV     DPH,A
0E45 E0                MOVX    A,@DPTR
C51 COMPILER V9.51   COMMAND_PROCESSING                                                    02/09/2021 12:42:36 PAGE 78  

0E46 F9                MOV     R1,A
0E47 A801              MOV     R0,AR1
0E49 120000      E     LCALL   ?C?SLSHR
0E4C AB00        R     MOV     R3,i
0E4E 75F008            MOV     B,#08H
0E51 EB                MOV     A,R3
0E52 900000      R     MOV     DPTR,#packet_data+01F8H
0E55 120000      E     LCALL   ?C?OFFXADD
0E58 120000      E     LCALL   ?C?LSTXDATA
                                           ; SOURCE LINE # 563
0E5B AF00        R     MOV     R7,i
0E5D EF                MOV     A,R7
0E5E 25E0              ADD     A,ACC
0E60 25E0              ADD     A,ACC
0E62 2400        E     ADD     A,#LOW c_mem+059H
0E64 F582              MOV     DPL,A
0E66 E4                CLR     A
0E67 3400        E     ADDC    A,#HIGH c_mem+059H
0E69 F583              MOV     DPH,A
0E6B 120000      E     LCALL   ?C?LLDXDATA
0E6E AB00        R     MOV     R3,i
0E70 7400        E     MOV     A,#LOW c_mem+035H
0E72 2B                ADD     A,R3
0E73 F582              MOV     DPL,A
0E75 E4                CLR     A
0E76 3400        E     ADDC    A,#HIGH c_mem+035H
0E78 F583              MOV     DPH,A
0E7A E0                MOVX    A,@DPTR
0E7B F9                MOV     R1,A
0E7C A801              MOV     R0,AR1
0E7E 120000      E     LCALL   ?C?SLSHR
0E81 AB00        R     MOV     R3,i
0E83 75F008            MOV     B,#08H
0E86 EB                MOV     A,R3
0E87 900000      R     MOV     DPTR,#packet_data+01FCH
0E8A 120000      E     LCALL   ?C?OFFXADD
0E8D 120000      E     LCALL   ?C?LSTXDATA
                                           ; SOURCE LINE # 564
0E90 0500        R     INC     i
0E92 808B              SJMP    ?C0110
0E94         ?C0111:
                                           ; SOURCE LINE # 565
0E94 850000      R     MOV     i,pos_lim_str_len
0E97         ?C0113:
0E97 E500        R     MOV     A,i
0E99 603E              JZ      ?C0114
                                           ; SOURCE LINE # 566
0E9B AF00        R     MOV     R7,i
0E9D 7E00              MOV     R6,#00H
0E9F AD00        R     MOV     R5,pos_lim_str_len
0EA1 7C00              MOV     R4,#00H
0EA3 C3                CLR     C
0EA4 ED                MOV     A,R5
0EA5 9F                SUBB    A,R7
0EA6 FF                MOV     R7,A
0EA7 EC                MOV     A,R4
0EA8 9E                SUBB    A,R6
0EA9 FE                MOV     R6,A
0EAA 7400        R     MOV     A,#LOW pos_lim_str
0EAC 2F                ADD     A,R7
0EAD F582              MOV     DPL,A
0EAF 7400        R     MOV     A,#HIGH pos_lim_str
C51 COMPILER V9.51   COMMAND_PROCESSING                                                    02/09/2021 12:42:36 PAGE 79  

0EB1 3E                ADDC    A,R6
0EB2 F583              MOV     DPH,A
0EB4 E0                MOVX    A,@DPTR
0EB5 FF                MOV     R7,A
0EB6 AE00        R     MOV     R6,i
0EB8 EE                MOV     A,R6
0EB9 FD                MOV     R5,A
0EBA 7C00              MOV     R4,#00H
0EBC AE00        R     MOV     R6,pos_lim_str_len
0EBE EE                MOV     A,R6
0EBF FB                MOV     R3,A
0EC0 7A00              MOV     R2,#00H
0EC2 C3                CLR     C
0EC3 EB                MOV     A,R3
0EC4 9D                SUBB    A,R5
0EC5 FD                MOV     R5,A
0EC6 EA                MOV     A,R2
0EC7 9C                SUBB    A,R4
0EC8 FC                MOV     R4,A
0EC9 7400        R     MOV     A,#LOW packet_data+0200H
0ECB 2D                ADD     A,R5
0ECC F582              MOV     DPL,A
0ECE 7400        R     MOV     A,#HIGH packet_data+0200H
0ED0 3C                ADDC    A,R4
0ED1 F583              MOV     DPH,A
0ED3 EF                MOV     A,R7
0ED4 F0                MOVX    @DPTR,A
0ED5 1500        R     DEC     i
0ED7 80BE              SJMP    ?C0113
0ED9         ?C0114:
                                           ; SOURCE LINE # 570
0ED9 900000      R     MOV     DPTR,#packet_data+0228H
0EDC 7405              MOV     A,#05H
0EDE F0                MOVX    @DPTR,A
                                           ; SOURCE LINE # 571
0EDF 900000      R     MOV     DPTR,#packet_data+0229H
0EE2 7402              MOV     A,#02H
0EE4 F0                MOVX    @DPTR,A
                                           ; SOURCE LINE # 572
0EE5 900000      E     MOV     DPTR,#c_mem+065H
0EE8 120000      E     LCALL   ?C?LLDXDATA
0EEB 900000      R     MOV     DPTR,#packet_data+022AH
0EEE 120000      E     LCALL   ?C?LSTXDATA
                                           ; SOURCE LINE # 573
0EF1 900000      E     MOV     DPTR,#c_mem+061H
0EF4 120000      E     LCALL   ?C?LLDXDATA
0EF7 900000      R     MOV     DPTR,#packet_data+022EH
0EFA 120000      E     LCALL   ?C?LSTXDATA
                                           ; SOURCE LINE # 574
0EFD 850000      R     MOV     i,max_step_str_len
0F00         ?C0116:
0F00 E500        R     MOV     A,i
0F02 603E              JZ      ?C0117
                                           ; SOURCE LINE # 575
0F04 AF00        R     MOV     R7,i
0F06 7E00              MOV     R6,#00H
0F08 AD00        R     MOV     R5,max_step_str_len
0F0A 7C00              MOV     R4,#00H
0F0C C3                CLR     C
0F0D ED                MOV     A,R5
0F0E 9F                SUBB    A,R7
0F0F FF                MOV     R7,A
C51 COMPILER V9.51   COMMAND_PROCESSING                                                    02/09/2021 12:42:36 PAGE 80  

0F10 EC                MOV     A,R4
0F11 9E                SUBB    A,R6
0F12 FE                MOV     R6,A
0F13 7400        R     MOV     A,#LOW max_step_str
0F15 2F                ADD     A,R7
0F16 F582              MOV     DPL,A
0F18 7400        R     MOV     A,#HIGH max_step_str
0F1A 3E                ADDC    A,R6
0F1B F583              MOV     DPH,A
0F1D E0                MOVX    A,@DPTR
0F1E FF                MOV     R7,A
0F1F AE00        R     MOV     R6,i
0F21 EE                MOV     A,R6
0F22 FD                MOV     R5,A
0F23 7C00              MOV     R4,#00H
0F25 AE00        R     MOV     R6,max_step_str_len
0F27 EE                MOV     A,R6
0F28 FB                MOV     R3,A
0F29 7A00              MOV     R2,#00H
0F2B C3                CLR     C
0F2C EB                MOV     A,R3
0F2D 9D                SUBB    A,R5
0F2E FD                MOV     R5,A
0F2F EA                MOV     A,R2
0F30 9C                SUBB    A,R4
0F31 FC                MOV     R4,A
0F32 7400        R     MOV     A,#LOW packet_data+0232H
0F34 2D                ADD     A,R5
0F35 F582              MOV     DPL,A
0F37 7400        R     MOV     A,#HIGH packet_data+0232H
0F39 3C                ADDC    A,R4
0F3A F583              MOV     DPH,A
0F3C EF                MOV     A,R7
0F3D F0                MOVX    @DPTR,A
0F3E 1500        R     DEC     i
0F40 80BE              SJMP    ?C0116
0F42         ?C0117:
                                           ; SOURCE LINE # 579
0F42 900000      R     MOV     DPTR,#packet_data+025AH
0F45 7403              MOV     A,#03H
0F47 F0                MOVX    @DPTR,A
                                           ; SOURCE LINE # 580
0F48 900000      R     MOV     DPTR,#packet_data+025BH
0F4B 7401              MOV     A,#01H
0F4D F0                MOVX    @DPTR,A
                                           ; SOURCE LINE # 581
0F4E 900000      E     MOV     DPTR,#c_mem+069H
0F51 E0                MOVX    A,@DPTR
0F52 FE                MOV     R6,A
0F53 A3                INC     DPTR
0F54 E0                MOVX    A,@DPTR
0F55 FF                MOV     R7,A
0F56 900000      R     MOV     DPTR,#packet_data+025CH
0F59 EE                MOV     A,R6
0F5A F0                MOVX    @DPTR,A
0F5B A3                INC     DPTR
0F5C EF                MOV     A,R7
0F5D F0                MOVX    @DPTR,A
                                           ; SOURCE LINE # 582
0F5E 850000      R     MOV     i,curr_limit_str_len
0F61         ?C0119:
0F61 E500        R     MOV     A,i
C51 COMPILER V9.51   COMMAND_PROCESSING                                                    02/09/2021 12:42:36 PAGE 81  

0F63 603E              JZ      ?C0120
                                           ; SOURCE LINE # 583
0F65 AF00        R     MOV     R7,i
0F67 7E00              MOV     R6,#00H
0F69 AD00        R     MOV     R5,curr_limit_str_len
0F6B 7C00              MOV     R4,#00H
0F6D C3                CLR     C
0F6E ED                MOV     A,R5
0F6F 9F                SUBB    A,R7
0F70 FF                MOV     R7,A
0F71 EC                MOV     A,R4
0F72 9E                SUBB    A,R6
0F73 FE                MOV     R6,A
0F74 7400        R     MOV     A,#LOW curr_limit_str
0F76 2F                ADD     A,R7
0F77 F582              MOV     DPL,A
0F79 7400        R     MOV     A,#HIGH curr_limit_str
0F7B 3E                ADDC    A,R6
0F7C F583              MOV     DPH,A
0F7E E0                MOVX    A,@DPTR
0F7F FF                MOV     R7,A
0F80 AE00        R     MOV     R6,i
0F82 EE                MOV     A,R6
0F83 FD                MOV     R5,A
0F84 7C00              MOV     R4,#00H
0F86 AE00        R     MOV     R6,curr_limit_str_len
0F88 EE                MOV     A,R6
0F89 FB                MOV     R3,A
0F8A 7A00              MOV     R2,#00H
0F8C C3                CLR     C
0F8D EB                MOV     A,R3
0F8E 9D                SUBB    A,R5
0F8F FD                MOV     R5,A
0F90 EA                MOV     A,R2
0F91 9C                SUBB    A,R4
0F92 FC                MOV     R4,A
0F93 7400        R     MOV     A,#LOW packet_data+025EH
0F95 2D                ADD     A,R5
0F96 F582              MOV     DPL,A
0F98 7400        R     MOV     A,#HIGH packet_data+025EH
0F9A 3C                ADDC    A,R4
0F9B F583              MOV     DPH,A
0F9D EF                MOV     A,R7
0F9E F0                MOVX    @DPTR,A
0F9F 1500        R     DEC     i
0FA1 80BE              SJMP    ?C0119
0FA3         ?C0120:
                                           ; SOURCE LINE # 587
0FA3 900000      R     MOV     DPTR,#packet_data+028CH
0FA6 E4                CLR     A
0FA7 F0                MOVX    @DPTR,A
                                           ; SOURCE LINE # 588
0FA8 900000      R     MOV     DPTR,#packet_data+028DH
0FAB 7401              MOV     A,#01H
0FAD F0                MOVX    @DPTR,A
                                           ; SOURCE LINE # 589
0FAE 900000      E     MOV     DPTR,#c_mem+06FH
0FB1 E0                MOVX    A,@DPTR
0FB2 FF                MOV     R7,A
0FB3 900000      R     MOV     DPTR,#packet_data+028EH
0FB6 EF                MOV     A,R7
0FB7 F0                MOVX    @DPTR,A
C51 COMPILER V9.51   COMMAND_PROCESSING                                                    02/09/2021 12:42:36 PAGE 82  

                                           ; SOURCE LINE # 590
0FB8 900000      E     MOV     DPTR,#c_mem+06FH
0FBB E0                MOVX    A,@DPTR
0FBC FF                MOV     R7,A
0FBD EF                MOV     A,R7
0FBE 6026              JZ      ?C0122
                                           ; SOURCE LINE # 591
0FC0 7B01              MOV     R3,#01H
0FC2 7A00        R     MOV     R2,#HIGH emg_flag_str
0FC4 7900        R     MOV     R1,#LOW emg_flag_str
0FC6 C003              PUSH    AR3
0FC8 C002              PUSH    AR2
0FCA C001              PUSH    AR1
0FCC 7BFF              MOV     R3,#0FFH
0FCE 7A00        R     MOV     R2,#HIGH ?SC_0
0FD0 7900        R     MOV     R1,#LOW ?SC_0
0FD2 900000      E     MOV     DPTR,#?_strcat?BYTE+03H
0FD5 120000      E     LCALL   ?C?PSTXDATA
0FD8 D001              POP     AR1
0FDA D002              POP     AR2
0FDC D003              POP     AR3
0FDE 120000      E     LCALL   _strcat
                                           ; SOURCE LINE # 592
0FE1 750025      R     MOV     string_lenght,#025H
                                           ; SOURCE LINE # 593
0FE4 8024              SJMP    ?C0123
0FE6         ?C0122:
                                           ; SOURCE LINE # 594
                                           ; SOURCE LINE # 595
0FE6 7B01              MOV     R3,#01H
0FE8 7A00        R     MOV     R2,#HIGH emg_flag_str
0FEA 7900        R     MOV     R1,#LOW emg_flag_str
0FEC C003              PUSH    AR3
0FEE C002              PUSH    AR2
0FF0 C001              PUSH    AR1
0FF2 7BFF              MOV     R3,#0FFH
0FF4 7A00        R     MOV     R2,#HIGH ?SC_6
0FF6 7900        R     MOV     R1,#LOW ?SC_6
0FF8 900000      E     MOV     DPTR,#?_strcat?BYTE+03H
0FFB 120000      E     LCALL   ?C?PSTXDATA
0FFE D001              POP     AR1
1000 D002              POP     AR2
1002 D003              POP     AR3
1004 120000      E     LCALL   _strcat
                                           ; SOURCE LINE # 596
1007 750024      R     MOV     string_lenght,#024H
                                           ; SOURCE LINE # 597
100A         ?C0123:
                                           ; SOURCE LINE # 598
100A 850000      R     MOV     i,string_lenght
100D         ?C0124:
100D E500        R     MOV     A,i
100F 603E              JZ      ?C0125
                                           ; SOURCE LINE # 599
1011 AF00        R     MOV     R7,i
1013 7E00              MOV     R6,#00H
1015 AD00        R     MOV     R5,string_lenght
1017 7C00              MOV     R4,#00H
1019 C3                CLR     C
101A ED                MOV     A,R5
101B 9F                SUBB    A,R7
101C FF                MOV     R7,A
C51 COMPILER V9.51   COMMAND_PROCESSING                                                    02/09/2021 12:42:36 PAGE 83  

101D EC                MOV     A,R4
101E 9E                SUBB    A,R6
101F FE                MOV     R6,A
1020 7400        R     MOV     A,#LOW emg_flag_str
1022 2F                ADD     A,R7
1023 F582              MOV     DPL,A
1025 7400        R     MOV     A,#HIGH emg_flag_str
1027 3E                ADDC    A,R6
1028 F583              MOV     DPH,A
102A E0                MOVX    A,@DPTR
102B FF                MOV     R7,A
102C AE00        R     MOV     R6,i
102E EE                MOV     A,R6
102F FD                MOV     R5,A
1030 7C00              MOV     R4,#00H
1032 AE00        R     MOV     R6,string_lenght
1034 EE                MOV     A,R6
1035 FB                MOV     R3,A
1036 7A00              MOV     R2,#00H
1038 C3                CLR     C
1039 EB                MOV     A,R3
103A 9D                SUBB    A,R5
103B FD                MOV     R5,A
103C EA                MOV     A,R2
103D 9C                SUBB    A,R4
103E FC                MOV     R4,A
103F 7400        R     MOV     A,#LOW packet_data+028FH
1041 2D                ADD     A,R5
1042 F582              MOV     DPL,A
1044 7400        R     MOV     A,#HIGH packet_data+028FH
1046 3C                ADDC    A,R4
1047 F583              MOV     DPH,A
1049 EF                MOV     A,R7
104A F0                MOVX    @DPTR,A
104B 1500        R     DEC     i
104D 80BE              SJMP    ?C0124
104F         ?C0125:
                                           ; SOURCE LINE # 601
104F AF00        R     MOV     R7,string_lenght
1051 7400        R     MOV     A,#LOW packet_data+028FH
1053 2F                ADD     A,R7
1054 F582              MOV     DPL,A
1056 E4                CLR     A
1057 3400        R     ADDC    A,#HIGH packet_data+028FH
1059 F583              MOV     DPH,A
105B 7403              MOV     A,#03H
105D F0                MOVX    @DPTR,A
                                           ; SOURCE LINE # 605
105E 900000      R     MOV     DPTR,#packet_data+02BEH
1061 7404              MOV     A,#04H
1063 F0                MOVX    @DPTR,A
                                           ; SOURCE LINE # 606
1064 900000      R     MOV     DPTR,#packet_data+02BFH
1067 7402              MOV     A,#02H
1069 F0                MOVX    @DPTR,A
                                           ; SOURCE LINE # 607
106A 900000      E     MOV     DPTR,#c_mem+06BH
106D E0                MOVX    A,@DPTR
106E FE                MOV     R6,A
106F A3                INC     DPTR
1070 E0                MOVX    A,@DPTR
1071 FF                MOV     R7,A
C51 COMPILER V9.51   COMMAND_PROCESSING                                                    02/09/2021 12:42:36 PAGE 84  

1072 900000      R     MOV     DPTR,#packet_data+02C0H
1075 EE                MOV     A,R6
1076 F0                MOVX    @DPTR,A
1077 A3                INC     DPTR
1078 EF                MOV     A,R7
1079 F0                MOVX    @DPTR,A
                                           ; SOURCE LINE # 608
107A 900000      E     MOV     DPTR,#c_mem+06DH
107D E0                MOVX    A,@DPTR
107E FE                MOV     R6,A
107F A3                INC     DPTR
1080 E0                MOVX    A,@DPTR
1081 FF                MOV     R7,A
1082 900000      R     MOV     DPTR,#packet_data+02C2H
1085 EE                MOV     A,R6
1086 F0                MOVX    @DPTR,A
1087 A3                INC     DPTR
1088 EF                MOV     A,R7
1089 F0                MOVX    @DPTR,A
                                           ; SOURCE LINE # 609
108A 850000      R     MOV     i,emg_thr_str_len
108D         ?C0127:
108D E500        R     MOV     A,i
108F 603E              JZ      ?C0128
                                           ; SOURCE LINE # 610
1091 AF00        R     MOV     R7,i
1093 7E00              MOV     R6,#00H
1095 AD00        R     MOV     R5,emg_thr_str_len
1097 7C00              MOV     R4,#00H
1099 C3                CLR     C
109A ED                MOV     A,R5
109B 9F                SUBB    A,R7
109C FF                MOV     R7,A
109D EC                MOV     A,R4
109E 9E                SUBB    A,R6
109F FE                MOV     R6,A
10A0 7400        R     MOV     A,#LOW emg_thr_str
10A2 2F                ADD     A,R7
10A3 F582              MOV     DPL,A
10A5 7400        R     MOV     A,#HIGH emg_thr_str
10A7 3E                ADDC    A,R6
10A8 F583              MOV     DPH,A
10AA E0                MOVX    A,@DPTR
10AB FF                MOV     R7,A
10AC AE00        R     MOV     R6,i
10AE EE                MOV     A,R6
10AF FD                MOV     R5,A
10B0 7C00              MOV     R4,#00H
10B2 AE00        R     MOV     R6,emg_thr_str_len
10B4 EE                MOV     A,R6
10B5 FB                MOV     R3,A
10B6 7A00              MOV     R2,#00H
10B8 C3                CLR     C
10B9 EB                MOV     A,R3
10BA 9D                SUBB    A,R5
10BB FD                MOV     R5,A
10BC EA                MOV     A,R2
10BD 9C                SUBB    A,R4
10BE FC                MOV     R4,A
10BF 7400        R     MOV     A,#LOW packet_data+02C4H
10C1 2D                ADD     A,R5
10C2 F582              MOV     DPL,A
C51 COMPILER V9.51   COMMAND_PROCESSING                                                    02/09/2021 12:42:36 PAGE 85  

10C4 7400        R     MOV     A,#HIGH packet_data+02C4H
10C6 3C                ADDC    A,R4
10C7 F583              MOV     DPH,A
10C9 EF                MOV     A,R7
10CA F0                MOVX    @DPTR,A
10CB 1500        R     DEC     i
10CD 80BE              SJMP    ?C0127
10CF         ?C0128:
                                           ; SOURCE LINE # 614
10CF 900000      R     MOV     DPTR,#packet_data+02F0H
10D2 7406              MOV     A,#06H
10D4 F0                MOVX    @DPTR,A
                                           ; SOURCE LINE # 615
10D5 900000      R     MOV     DPTR,#packet_data+02F1H
10D8 7402              MOV     A,#02H
10DA F0                MOVX    @DPTR,A
                                           ; SOURCE LINE # 616
10DB 900000      E     MOV     DPTR,#c_mem+070H
10DE 120000      E     LCALL   ?C?LLDXDATA
10E1 900000      R     MOV     DPTR,#packet_data+02F2H
10E4 120000      E     LCALL   ?C?LSTXDATA
                                           ; SOURCE LINE # 617
10E7 900000      E     MOV     DPTR,#c_mem+074H
10EA 120000      E     LCALL   ?C?LLDXDATA
10ED 900000      R     MOV     DPTR,#packet_data+02F6H
10F0 120000      E     LCALL   ?C?LSTXDATA
                                           ; SOURCE LINE # 618
10F3 850000      R     MOV     i,emg_max_val_str_len
10F6         ?C0130:
10F6 E500        R     MOV     A,i
10F8 603E              JZ      ?C0131
                                           ; SOURCE LINE # 619
10FA AF00        R     MOV     R7,i
10FC 7E00              MOV     R6,#00H
10FE AD00        R     MOV     R5,emg_max_val_str_len
1100 7C00              MOV     R4,#00H
1102 C3                CLR     C
1103 ED                MOV     A,R5
1104 9F                SUBB    A,R7
1105 FF                MOV     R7,A
1106 EC                MOV     A,R4
1107 9E                SUBB    A,R6
1108 FE                MOV     R6,A
1109 7400        R     MOV     A,#LOW emg_max_val_str
110B 2F                ADD     A,R7
110C F582              MOV     DPL,A
110E 7400        R     MOV     A,#HIGH emg_max_val_str
1110 3E                ADDC    A,R6
1111 F583              MOV     DPH,A
1113 E0                MOVX    A,@DPTR
1114 FF                MOV     R7,A
1115 AE00        R     MOV     R6,i
1117 EE                MOV     A,R6
1118 FD                MOV     R5,A
1119 7C00              MOV     R4,#00H
111B AE00        R     MOV     R6,emg_max_val_str_len
111D EE                MOV     A,R6
111E FB                MOV     R3,A
111F 7A00              MOV     R2,#00H
1121 C3                CLR     C
1122 EB                MOV     A,R3
1123 9D                SUBB    A,R5
C51 COMPILER V9.51   COMMAND_PROCESSING                                                    02/09/2021 12:42:36 PAGE 86  

1124 FD                MOV     R5,A
1125 EA                MOV     A,R2
1126 9C                SUBB    A,R4
1127 FC                MOV     R4,A
1128 7400        R     MOV     A,#LOW packet_data+02FAH
112A 2D                ADD     A,R5
112B F582              MOV     DPL,A
112D 7400        R     MOV     A,#HIGH packet_data+02FAH
112F 3C                ADDC    A,R4
1130 F583              MOV     DPH,A
1132 EF                MOV     A,R7
1133 F0                MOVX    @DPTR,A
1134 1500        R     DEC     i
1136 80BE              SJMP    ?C0130
1138         ?C0131:
                                           ; SOURCE LINE # 623
1138 900000      R     MOV     DPTR,#packet_data+0322H
113B 7402              MOV     A,#02H
113D F0                MOVX    @DPTR,A
                                           ; SOURCE LINE # 624
113E 900000      R     MOV     DPTR,#packet_data+0323H
1141 7401              MOV     A,#01H
1143 F0                MOVX    @DPTR,A
                                           ; SOURCE LINE # 625
1144 900000      E     MOV     DPTR,#c_mem+078H
1147 E0                MOVX    A,@DPTR
1148 FF                MOV     R7,A
1149 900000      R     MOV     DPTR,#packet_data+0324H
114C EF                MOV     A,R7
114D F0                MOVX    @DPTR,A
                                           ; SOURCE LINE # 626
114E 850000      R     MOV     i,emg_max_speed_str_len
1151         ?C0133:
1151 E500        R     MOV     A,i
1153 603E              JZ      ?C0134
                                           ; SOURCE LINE # 627
1155 AF00        R     MOV     R7,i
1157 7E00              MOV     R6,#00H
1159 AD00        R     MOV     R5,emg_max_speed_str_len
115B 7C00              MOV     R4,#00H
115D C3                CLR     C
115E ED                MOV     A,R5
115F 9F                SUBB    A,R7
1160 FF                MOV     R7,A
1161 EC                MOV     A,R4
1162 9E                SUBB    A,R6
1163 FE                MOV     R6,A
1164 7400        R     MOV     A,#LOW emg_max_speed_str
1166 2F                ADD     A,R7
1167 F582              MOV     DPL,A
1169 7400        R     MOV     A,#HIGH emg_max_speed_str
116B 3E                ADDC    A,R6
116C F583              MOV     DPH,A
116E E0                MOVX    A,@DPTR
116F FF                MOV     R7,A
1170 AE00        R     MOV     R6,i
1172 EE                MOV     A,R6
1173 FD                MOV     R5,A
1174 7C00              MOV     R4,#00H
1176 AE00        R     MOV     R6,emg_max_speed_str_len
1178 EE                MOV     A,R6
1179 FB                MOV     R3,A
C51 COMPILER V9.51   COMMAND_PROCESSING                                                    02/09/2021 12:42:36 PAGE 87  

117A 7A00              MOV     R2,#00H
117C C3                CLR     C
117D EB                MOV     A,R3
117E 9D                SUBB    A,R5
117F FD                MOV     R5,A
1180 EA                MOV     A,R2
1181 9C                SUBB    A,R4
1182 FC                MOV     R4,A
1183 7400        R     MOV     A,#LOW packet_data+0325H
1185 2D                ADD     A,R5
1186 F582              MOV     DPL,A
1188 7400        R     MOV     A,#HIGH packet_data+0325H
118A 3C                ADDC    A,R4
118B F583              MOV     DPH,A
118D EF                MOV     A,R7
118E F0                MOVX    @DPTR,A
118F 1500        R     DEC     i
1191 80BE              SJMP    ?C0133
1193         ?C0134:
                                           ; SOURCE LINE # 631
1193 900000      R     MOV     DPTR,#packet_data+0354H
1196 E4                CLR     A
1197 F0                MOVX    @DPTR,A
                                           ; SOURCE LINE # 632
1198 900000      R     MOV     DPTR,#packet_data+0355H
119B 7401              MOV     A,#01H
119D F0                MOVX    @DPTR,A
                                           ; SOURCE LINE # 633
119E 900000      E     MOV     DPTR,#c_mem+079H
11A1 E0                MOVX    A,@DPTR
11A2 FF                MOV     R7,A
11A3 900000      R     MOV     DPTR,#packet_data+0356H
11A6 EF                MOV     A,R7
11A7 F0                MOVX    @DPTR,A
                                           ; SOURCE LINE # 634
11A8 900000      E     MOV     DPTR,#c_mem+079H
11AB E0                MOVX    A,@DPTR
11AC FF                MOV     R7,A
11AD EF                MOV     A,R7
11AE 6026              JZ      ?C0136
                                           ; SOURCE LINE # 635
11B0 7B01              MOV     R3,#01H
11B2 7A00        R     MOV     R2,#HIGH abs_enc_str
11B4 7900        R     MOV     R1,#LOW abs_enc_str
11B6 C003              PUSH    AR3
11B8 C002              PUSH    AR2
11BA C001              PUSH    AR1
11BC 7BFF              MOV     R3,#0FFH
11BE 7A00        R     MOV     R2,#HIGH ?SC_0
11C0 7900        R     MOV     R1,#LOW ?SC_0
11C2 900000      E     MOV     DPTR,#?_strcat?BYTE+03H
11C5 120000      E     LCALL   ?C?PSTXDATA
11C8 D001              POP     AR1
11CA D002              POP     AR2
11CC D003              POP     AR3
11CE 120000      E     LCALL   _strcat
                                           ; SOURCE LINE # 636
11D1 750024      R     MOV     string_lenght,#024H
                                           ; SOURCE LINE # 637
11D4 8024              SJMP    ?C0137
11D6         ?C0136:
                                           ; SOURCE LINE # 638
C51 COMPILER V9.51   COMMAND_PROCESSING                                                    02/09/2021 12:42:36 PAGE 88  

                                           ; SOURCE LINE # 639
11D6 7B01              MOV     R3,#01H
11D8 7A00        R     MOV     R2,#HIGH abs_enc_str
11DA 7900        R     MOV     R1,#LOW abs_enc_str
11DC C003              PUSH    AR3
11DE C002              PUSH    AR2
11E0 C001              PUSH    AR1
11E2 7BFF              MOV     R3,#0FFH
11E4 7A00        R     MOV     R2,#HIGH ?SC_6
11E6 7900        R     MOV     R1,#LOW ?SC_6
11E8 900000      E     MOV     DPTR,#?_strcat?BYTE+03H
11EB 120000      E     LCALL   ?C?PSTXDATA
11EE D001              POP     AR1
11F0 D002              POP     AR2
11F2 D003              POP     AR3
11F4 120000      E     LCALL   _strcat
                                           ; SOURCE LINE # 640
11F7 750023      R     MOV     string_lenght,#023H
                                           ; SOURCE LINE # 641
11FA         ?C0137:
                                           ; SOURCE LINE # 642
11FA 850000      R     MOV     i,string_lenght
11FD         ?C0138:
11FD E500        R     MOV     A,i
11FF 603E              JZ      ?C0139
                                           ; SOURCE LINE # 643
1201 AF00        R     MOV     R7,i
1203 7E00              MOV     R6,#00H
1205 AD00        R     MOV     R5,string_lenght
1207 7C00              MOV     R4,#00H
1209 C3                CLR     C
120A ED                MOV     A,R5
120B 9F                SUBB    A,R7
120C FF                MOV     R7,A
120D EC                MOV     A,R4
120E 9E                SUBB    A,R6
120F FE                MOV     R6,A
1210 7400        R     MOV     A,#LOW abs_enc_str
1212 2F                ADD     A,R7
1213 F582              MOV     DPL,A
1215 7400        R     MOV     A,#HIGH abs_enc_str
1217 3E                ADDC    A,R6
1218 F583              MOV     DPH,A
121A E0                MOVX    A,@DPTR
121B FF                MOV     R7,A
121C AE00        R     MOV     R6,i
121E EE                MOV     A,R6
121F FD                MOV     R5,A
1220 7C00              MOV     R4,#00H
1222 AE00        R     MOV     R6,string_lenght
1224 EE                MOV     A,R6
1225 FB                MOV     R3,A
1226 7A00              MOV     R2,#00H
1228 C3                CLR     C
1229 EB                MOV     A,R3
122A 9D                SUBB    A,R5
122B FD                MOV     R5,A
122C EA                MOV     A,R2
122D 9C                SUBB    A,R4
122E FC                MOV     R4,A
122F 7400        R     MOV     A,#LOW packet_data+0357H
1231 2D                ADD     A,R5
C51 COMPILER V9.51   COMMAND_PROCESSING                                                    02/09/2021 12:42:36 PAGE 89  

1232 F582              MOV     DPL,A
1234 7400        R     MOV     A,#HIGH packet_data+0357H
1236 3C                ADDC    A,R4
1237 F583              MOV     DPH,A
1239 EF                MOV     A,R7
123A F0                MOVX    @DPTR,A
123B 1500        R     DEC     i
123D 80BE              SJMP    ?C0138
123F         ?C0139:
                                           ; SOURCE LINE # 645
123F AF00        R     MOV     R7,string_lenght
1241 7400        R     MOV     A,#LOW packet_data+0357H
1243 2F                ADD     A,R7
1244 F582              MOV     DPL,A
1246 E4                CLR     A
1247 3400        R     ADDC    A,#HIGH packet_data+0357H
1249 F583              MOV     DPH,A
124B 7403              MOV     A,#03H
124D F0                MOVX    @DPTR,A
                                           ; SOURCE LINE # 649
124E 900000      R     MOV     DPTR,#packet_data+0386H
1251 7401              MOV     A,#01H
1253 F0                MOVX    @DPTR,A
                                           ; SOURCE LINE # 650
1254 900000      R     MOV     DPTR,#packet_data+0387H
1257 7401              MOV     A,#01H
1259 F0                MOVX    @DPTR,A
                                           ; SOURCE LINE # 651
125A 900000      E     MOV     DPTR,#c_mem+07AH
125D E0                MOVX    A,@DPTR
125E FF                MOV     R7,A
125F 900000      R     MOV     DPTR,#packet_data+0388H
1262 EF                MOV     A,R7
1263 F0                MOVX    @DPTR,A
                                           ; SOURCE LINE # 652
1264 850000      R     MOV     i,handle_ratio_str_len
1267         ?C0141:
1267 E500        R     MOV     A,i
1269 603E              JZ      ?C0142
                                           ; SOURCE LINE # 653
126B AF00        R     MOV     R7,i
126D 7E00              MOV     R6,#00H
126F AD00        R     MOV     R5,handle_ratio_str_len
1271 7C00              MOV     R4,#00H
1273 C3                CLR     C
1274 ED                MOV     A,R5
1275 9F                SUBB    A,R7
1276 FF                MOV     R7,A
1277 EC                MOV     A,R4
1278 9E                SUBB    A,R6
1279 FE                MOV     R6,A
127A 7400        R     MOV     A,#LOW handle_ratio_str
127C 2F                ADD     A,R7
127D F582              MOV     DPL,A
127F 7400        R     MOV     A,#HIGH handle_ratio_str
1281 3E                ADDC    A,R6
1282 F583              MOV     DPH,A
1284 E0                MOVX    A,@DPTR
1285 FF                MOV     R7,A
1286 AE00        R     MOV     R6,i
1288 EE                MOV     A,R6
1289 FD                MOV     R5,A
C51 COMPILER V9.51   COMMAND_PROCESSING                                                    02/09/2021 12:42:36 PAGE 90  

128A 7C00              MOV     R4,#00H
128C AE00        R     MOV     R6,handle_ratio_str_len
128E EE                MOV     A,R6
128F FB                MOV     R3,A
1290 7A00              MOV     R2,#00H
1292 C3                CLR     C
1293 EB                MOV     A,R3
1294 9D                SUBB    A,R5
1295 FD                MOV     R5,A
1296 EA                MOV     A,R2
1297 9C                SUBB    A,R4
1298 FC                MOV     R4,A
1299 7400        R     MOV     A,#LOW packet_data+0389H
129B 2D                ADD     A,R5
129C F582              MOV     DPL,A
129E 7400        R     MOV     A,#HIGH packet_data+0389H
12A0 3C                ADDC    A,R4
12A1 F583              MOV     DPH,A
12A3 EF                MOV     A,R7
12A4 F0                MOVX    @DPTR,A
12A5 1500        R     DEC     i
12A7 80BE              SJMP    ?C0141
12A9         ?C0142:
                                           ; SOURCE LINE # 657
12A9 900000      R     MOV     DPTR,#packet_data+03B8H
12AC E4                CLR     A
12AD F0                MOVX    @DPTR,A
                                           ; SOURCE LINE # 658
12AE 900000      R     MOV     DPTR,#packet_data+03B9H
12B1 7401              MOV     A,#01H
12B3 F0                MOVX    @DPTR,A
                                           ; SOURCE LINE # 659
12B4 900000      E     MOV     DPTR,#c_mem+07BH
12B7 E0                MOVX    A,@DPTR
12B8 FF                MOV     R7,A
12B9 900000      R     MOV     DPTR,#packet_data+03BAH
12BC EF                MOV     A,R7
12BD F0                MOVX    @DPTR,A
                                           ; SOURCE LINE # 660
12BE 900000      E     MOV     DPTR,#c_mem+07BH
12C1 E0                MOVX    A,@DPTR
12C2 FF                MOV     R7,A
12C3 EF                MOV     A,R7
12C4 6026              JZ      ?C0144
                                           ; SOURCE LINE # 661
12C6 7B01              MOV     R3,#01H
12C8 7A00        R     MOV     R2,#HIGH motor_type_str
12CA 7900        R     MOV     R1,#LOW motor_type_str
12CC C003              PUSH    AR3
12CE C002              PUSH    AR2
12D0 C001              PUSH    AR1
12D2 7BFF              MOV     R3,#0FFH
12D4 7A00        R     MOV     R2,#HIGH ?SC_0
12D6 7900        R     MOV     R1,#LOW ?SC_0
12D8 900000      E     MOV     DPTR,#?_strcat?BYTE+03H
12DB 120000      E     LCALL   ?C?PSTXDATA
12DE D001              POP     AR1
12E0 D002              POP     AR2
12E2 D003              POP     AR3
12E4 120000      E     LCALL   _strcat
                                           ; SOURCE LINE # 662
12E7 750018      R     MOV     string_lenght,#018H
C51 COMPILER V9.51   COMMAND_PROCESSING                                                    02/09/2021 12:42:36 PAGE 91  

                                           ; SOURCE LINE # 663
12EA 8024              SJMP    ?C0145
12EC         ?C0144:
                                           ; SOURCE LINE # 664
                                           ; SOURCE LINE # 665
12EC 7B01              MOV     R3,#01H
12EE 7A00        R     MOV     R2,#HIGH motor_type_str
12F0 7900        R     MOV     R1,#LOW motor_type_str
12F2 C003              PUSH    AR3
12F4 C002              PUSH    AR2
12F6 C001              PUSH    AR1
12F8 7BFF              MOV     R3,#0FFH
12FA 7A00        R     MOV     R2,#HIGH ?SC_6
12FC 7900        R     MOV     R1,#LOW ?SC_6
12FE 900000      E     MOV     DPTR,#?_strcat?BYTE+03H
1301 120000      E     LCALL   ?C?PSTXDATA
1304 D001              POP     AR1
1306 D002              POP     AR2
1308 D003              POP     AR3
130A 120000      E     LCALL   _strcat
                                           ; SOURCE LINE # 666
130D 750017      R     MOV     string_lenght,#017H
                                           ; SOURCE LINE # 667
1310         ?C0145:
                                           ; SOURCE LINE # 668
1310 850000      R     MOV     i,string_lenght
1313         ?C0146:
1313 E500        R     MOV     A,i
1315 603E              JZ      ?C0147
                                           ; SOURCE LINE # 669
1317 AF00        R     MOV     R7,i
1319 7E00              MOV     R6,#00H
131B AD00        R     MOV     R5,string_lenght
131D 7C00              MOV     R4,#00H
131F C3                CLR     C
1320 ED                MOV     A,R5
1321 9F                SUBB    A,R7
1322 FF                MOV     R7,A
1323 EC                MOV     A,R4
1324 9E                SUBB    A,R6
1325 FE                MOV     R6,A
1326 7400        R     MOV     A,#LOW motor_type_str
1328 2F                ADD     A,R7
1329 F582              MOV     DPL,A
132B 7400        R     MOV     A,#HIGH motor_type_str
132D 3E                ADDC    A,R6
132E F583              MOV     DPH,A
1330 E0                MOVX    A,@DPTR
1331 FF                MOV     R7,A
1332 AE00        R     MOV     R6,i
1334 EE                MOV     A,R6
1335 FD                MOV     R5,A
1336 7C00              MOV     R4,#00H
1338 AE00        R     MOV     R6,string_lenght
133A EE                MOV     A,R6
133B FB                MOV     R3,A
133C 7A00              MOV     R2,#00H
133E C3                CLR     C
133F EB                MOV     A,R3
1340 9D                SUBB    A,R5
1341 FD                MOV     R5,A
1342 EA                MOV     A,R2
C51 COMPILER V9.51   COMMAND_PROCESSING                                                    02/09/2021 12:42:36 PAGE 92  

1343 9C                SUBB    A,R4
1344 FC                MOV     R4,A
1345 7400        R     MOV     A,#LOW packet_data+03BBH
1347 2D                ADD     A,R5
1348 F582              MOV     DPL,A
134A 7400        R     MOV     A,#HIGH packet_data+03BBH
134C 3C                ADDC    A,R4
134D F583              MOV     DPH,A
134F EF                MOV     A,R7
1350 F0                MOVX    @DPTR,A
1351 1500        R     DEC     i
1353 80BE              SJMP    ?C0146
1355         ?C0147:
                                           ; SOURCE LINE # 671
1355 AF00        R     MOV     R7,string_lenght
1357 7400        R     MOV     A,#LOW packet_data+03BBH
1359 2F                ADD     A,R7
135A F582              MOV     DPL,A
135C E4                CLR     A
135D 3400        R     ADDC    A,#HIGH packet_data+03BBH
135F F583              MOV     DPH,A
1361 7403              MOV     A,#03H
1363 F0                MOVX    @DPTR,A
                                           ; SOURCE LINE # 675
1364 900000      R     MOV     DPTR,#packet_data+03EAH
1367 7405              MOV     A,#05H
1369 F0                MOVX    @DPTR,A
                                           ; SOURCE LINE # 676
136A 900000      R     MOV     DPTR,#packet_data+03EBH
136D 7401              MOV     A,#01H
136F F0                MOVX    @DPTR,A
                                           ; SOURCE LINE # 677
1370 900000      E     MOV     DPTR,#c_mem+096H
1373 120000      E     LCALL   ?C?LLDXDATA
1376 900000      E     MOV     DPTR,#c_mem+035H
1379 E0                MOVX    A,@DPTR
137A F9                MOV     R1,A
137B A801              MOV     R0,AR1
137D 120000      E     LCALL   ?C?SLSHR
1380 900000      R     MOV     DPTR,#packet_data+03ECH
1383 120000      E     LCALL   ?C?LSTXDATA
                                           ; SOURCE LINE # 678
1386 850000      R     MOV     i,rest_pos_str_len
1389         ?C0149:
1389 E500        R     MOV     A,i
138B 603E              JZ      ?C0150
                                           ; SOURCE LINE # 679
138D AF00        R     MOV     R7,i
138F 7E00              MOV     R6,#00H
1391 AD00        R     MOV     R5,rest_pos_str_len
1393 7C00              MOV     R4,#00H
1395 C3                CLR     C
1396 ED                MOV     A,R5
1397 9F                SUBB    A,R7
1398 FF                MOV     R7,A
1399 EC                MOV     A,R4
139A 9E                SUBB    A,R6
139B FE                MOV     R6,A
139C 7400        R     MOV     A,#LOW rest_pos_str
139E 2F                ADD     A,R7
139F F582              MOV     DPL,A
13A1 7400        R     MOV     A,#HIGH rest_pos_str
C51 COMPILER V9.51   COMMAND_PROCESSING                                                    02/09/2021 12:42:36 PAGE 93  

13A3 3E                ADDC    A,R6
13A4 F583              MOV     DPH,A
13A6 E0                MOVX    A,@DPTR
13A7 FF                MOV     R7,A
13A8 AE00        R     MOV     R6,i
13AA EE                MOV     A,R6
13AB FD                MOV     R5,A
13AC 7C00              MOV     R4,#00H
13AE AE00        R     MOV     R6,rest_pos_str_len
13B0 EE                MOV     A,R6
13B1 FB                MOV     R3,A
13B2 7A00              MOV     R2,#00H
13B4 C3                CLR     C
13B5 EB                MOV     A,R3
13B6 9D                SUBB    A,R5
13B7 FD                MOV     R5,A
13B8 EA                MOV     A,R2
13B9 9C                SUBB    A,R4
13BA FC                MOV     R4,A
13BB 7400        R     MOV     A,#LOW packet_data+03F0H
13BD 2D                ADD     A,R5
13BE F582              MOV     DPL,A
13C0 7400        R     MOV     A,#HIGH packet_data+03F0H
13C2 3C                ADDC    A,R4
13C3 F583              MOV     DPH,A
13C5 EF                MOV     A,R7
13C6 F0                MOVX    @DPTR,A
13C7 1500        R     DEC     i
13C9 80BE              SJMP    ?C0149
13CB         ?C0150:
                                           ; SOURCE LINE # 683
13CB 900000      R     MOV     DPTR,#packet_data+041CH
13CE 7405              MOV     A,#05H
13D0 F0                MOVX    @DPTR,A
                                           ; SOURCE LINE # 684
13D1 900000      R     MOV     DPTR,#packet_data+041DH
13D4 7401              MOV     A,#01H
13D6 F0                MOVX    @DPTR,A
                                           ; SOURCE LINE # 685
13D7 900000      E     MOV     DPTR,#c_mem+09AH
13DA 120000      E     LCALL   ?C?LLDXDATA
13DD 900000      R     MOV     DPTR,#packet_data+041EH
13E0 120000      E     LCALL   ?C?LSTXDATA
                                           ; SOURCE LINE # 686
13E3 850000      R     MOV     i,rest_pos_delay_str_len
13E6         ?C0152:
13E6 E500        R     MOV     A,i
13E8 603E              JZ      ?C0153
                                           ; SOURCE LINE # 687
13EA AF00        R     MOV     R7,i
13EC 7E00              MOV     R6,#00H
13EE AD00        R     MOV     R5,rest_pos_delay_str_len
13F0 7C00              MOV     R4,#00H
13F2 C3                CLR     C
13F3 ED                MOV     A,R5
13F4 9F                SUBB    A,R7
13F5 FF                MOV     R7,A
13F6 EC                MOV     A,R4
13F7 9E                SUBB    A,R6
13F8 FE                MOV     R6,A
13F9 7400        R     MOV     A,#LOW rest_pos_delay_str
13FB 2F                ADD     A,R7
C51 COMPILER V9.51   COMMAND_PROCESSING                                                    02/09/2021 12:42:36 PAGE 94  

13FC F582              MOV     DPL,A
13FE 7400        R     MOV     A,#HIGH rest_pos_delay_str
1400 3E                ADDC    A,R6
1401 F583              MOV     DPH,A
1403 E0                MOVX    A,@DPTR
1404 FF                MOV     R7,A
1405 AE00        R     MOV     R6,i
1407 EE                MOV     A,R6
1408 FD                MOV     R5,A
1409 7C00              MOV     R4,#00H
140B AE00        R     MOV     R6,rest_pos_delay_str_len
140D EE                MOV     A,R6
140E FB                MOV     R3,A
140F 7A00              MOV     R2,#00H
1411 C3                CLR     C
1412 EB                MOV     A,R3
1413 9D                SUBB    A,R5
1414 FD                MOV     R5,A
1415 EA                MOV     A,R2
1416 9C                SUBB    A,R4
1417 FC                MOV     R4,A
1418 7400        R     MOV     A,#LOW packet_data+0422H
141A 2D                ADD     A,R5
141B F582              MOV     DPL,A
141D 7400        R     MOV     A,#HIGH packet_data+0422H
141F 3C                ADDC    A,R4
1420 F583              MOV     DPH,A
1422 EF                MOV     A,R7
1423 F0                MOVX    @DPTR,A
1424 1500        R     DEC     i
1426 80BE              SJMP    ?C0152
1428         ?C0153:
                                           ; SOURCE LINE # 691
1428 900000      R     MOV     DPTR,#packet_data+044EH
142B 7405              MOV     A,#05H
142D F0                MOVX    @DPTR,A
                                           ; SOURCE LINE # 692
142E 900000      R     MOV     DPTR,#packet_data+044FH
1431 7401              MOV     A,#01H
1433 F0                MOVX    @DPTR,A
                                           ; SOURCE LINE # 693
1434 900000      E     MOV     DPTR,#c_mem+09EH
1437 120000      E     LCALL   ?C?LLDXDATA
143A 900000      R     MOV     DPTR,#packet_data+0450H
143D 120000      E     LCALL   ?C?LSTXDATA
                                           ; SOURCE LINE # 694
1440 850000      R     MOV     i,rest_vel_str_len
1443         ?C0155:
1443 E500        R     MOV     A,i
1445 603E              JZ      ?C0156
                                           ; SOURCE LINE # 695
1447 AF00        R     MOV     R7,i
1449 7E00              MOV     R6,#00H
144B AD00        R     MOV     R5,rest_vel_str_len
144D 7C00              MOV     R4,#00H
144F C3                CLR     C
1450 ED                MOV     A,R5
1451 9F                SUBB    A,R7
1452 FF                MOV     R7,A
1453 EC                MOV     A,R4
1454 9E                SUBB    A,R6
1455 FE                MOV     R6,A
C51 COMPILER V9.51   COMMAND_PROCESSING                                                    02/09/2021 12:42:36 PAGE 95  

1456 7400        R     MOV     A,#LOW rest_vel_str
1458 2F                ADD     A,R7
1459 F582              MOV     DPL,A
145B 7400        R     MOV     A,#HIGH rest_vel_str
145D 3E                ADDC    A,R6
145E F583              MOV     DPH,A
1460 E0                MOVX    A,@DPTR
1461 FF                MOV     R7,A
1462 AE00        R     MOV     R6,i
1464 EE                MOV     A,R6
1465 FD                MOV     R5,A
1466 7C00              MOV     R4,#00H
1468 AE00        R     MOV     R6,rest_vel_str_len
146A EE                MOV     A,R6
146B FB                MOV     R3,A
146C 7A00              MOV     R2,#00H
146E C3                CLR     C
146F EB                MOV     A,R3
1470 9D                SUBB    A,R5
1471 FD                MOV     R5,A
1472 EA                MOV     A,R2
1473 9C                SUBB    A,R4
1474 FC                MOV     R4,A
1475 7400        R     MOV     A,#LOW packet_data+0454H
1477 2D                ADD     A,R5
1478 F582              MOV     DPL,A
147A 7400        R     MOV     A,#HIGH packet_data+0454H
147C 3C                ADDC    A,R4
147D F583              MOV     DPH,A
147F EF                MOV     A,R7
1480 F0                MOVX    @DPTR,A
1481 1500        R     DEC     i
1483 80BE              SJMP    ?C0155
1485         ?C0156:
                                           ; SOURCE LINE # 700
1485 900000      R     MOV     DPTR,#packet_data+0480H
1488 7407              MOV     A,#07H
148A F0                MOVX    @DPTR,A
                                           ; SOURCE LINE # 701
148B 900000      R     MOV     DPTR,#packet_data+0481H
148E 7406              MOV     A,#06H
1490 F0                MOVX    @DPTR,A
                                           ; SOURCE LINE # 702
1491 750000      R     MOV     i,#00H
1494         ?C0158:
1494 E500        R     MOV     A,i
1496 C3                CLR     C
1497 9406              SUBB    A,#06H
1499 5026              JNC     ?C0159
                                           ; SOURCE LINE # 703
149B AF00        R     MOV     R7,i
149D EF                MOV     A,R7
149E 25E0              ADD     A,ACC
14A0 25E0              ADD     A,ACC
14A2 2400        E     ADD     A,#LOW c_mem+07CH
14A4 F582              MOV     DPL,A
14A6 E4                CLR     A
14A7 3400        E     ADDC    A,#HIGH c_mem+07CH
14A9 F583              MOV     DPH,A
14AB 120000      E     LCALL   ?C?LLDXDATA
14AE AB00        R     MOV     R3,i
14B0 75F004            MOV     B,#04H
C51 COMPILER V9.51   COMMAND_PROCESSING                                                    02/09/2021 12:42:36 PAGE 96  

14B3 EB                MOV     A,R3
14B4 900000      R     MOV     DPTR,#packet_data+0482H
14B7 120000      E     LCALL   ?C?OFFXADD
14BA 120000      E     LCALL   ?C?LSTXDATA
14BD 0500        R     INC     i
14BF 80D3              SJMP    ?C0158
14C1         ?C0159:
                                           ; SOURCE LINE # 704
14C1 850000      R     MOV     i,curr_lookup_str_len
14C4         ?C0161:
14C4 E500        R     MOV     A,i
14C6 603E              JZ      ?C0162
                                           ; SOURCE LINE # 705
14C8 AF00        R     MOV     R7,i
14CA 7E00              MOV     R6,#00H
14CC AD00        R     MOV     R5,curr_lookup_str_len
14CE 7C00              MOV     R4,#00H
14D0 C3                CLR     C
14D1 ED                MOV     A,R5
14D2 9F                SUBB    A,R7
14D3 FF                MOV     R7,A
14D4 EC                MOV     A,R4
14D5 9E                SUBB    A,R6
14D6 FE                MOV     R6,A
14D7 7400        R     MOV     A,#LOW curr_lookup_str
14D9 2F                ADD     A,R7
14DA F582              MOV     DPL,A
14DC 7400        R     MOV     A,#HIGH curr_lookup_str
14DE 3E                ADDC    A,R6
14DF F583              MOV     DPH,A
14E1 E0                MOVX    A,@DPTR
14E2 FF                MOV     R7,A
14E3 AE00        R     MOV     R6,i
14E5 EE                MOV     A,R6
14E6 FD                MOV     R5,A
14E7 7C00              MOV     R4,#00H
14E9 AE00        R     MOV     R6,curr_lookup_str_len
14EB EE                MOV     A,R6
14EC FB                MOV     R3,A
14ED 7A00              MOV     R2,#00H
14EF C3                CLR     C
14F0 EB                MOV     A,R3
14F1 9D                SUBB    A,R5
14F2 FD                MOV     R5,A
14F3 EA                MOV     A,R2
14F4 9C                SUBB    A,R4
14F5 FC                MOV     R4,A
14F6 7400        R     MOV     A,#LOW packet_data+049AH
14F8 2D                ADD     A,R5
14F9 F582              MOV     DPL,A
14FB 7400        R     MOV     A,#HIGH packet_data+049AH
14FD 3C                ADDC    A,R4
14FE F583              MOV     DPH,A
1500 EF                MOV     A,R7
1501 F0                MOVX    @DPTR,A
1502 1500        R     DEC     i
1504 80BE              SJMP    ?C0161
1506         ?C0162:
                                           ; SOURCE LINE # 709
1506 900000      R     MOV     DPTR,#packet_data+04B2H
1509 E4                CLR     A
150A F0                MOVX    @DPTR,A
C51 COMPILER V9.51   COMMAND_PROCESSING                                                    02/09/2021 12:42:36 PAGE 97  

                                           ; SOURCE LINE # 710
150B 900000      R     MOV     DPTR,#packet_data+04B3H
150E 7401              MOV     A,#01H
1510 F0                MOVX    @DPTR,A
                                           ; SOURCE LINE # 711
1511 900000      E     MOV     DPTR,#c_mem+0A6H
1514 E0                MOVX    A,@DPTR
1515 FF                MOV     R7,A
1516 900000      R     MOV     DPTR,#packet_data+04B4H
1519 EF                MOV     A,R7
151A F0                MOVX    @DPTR,A
                                           ; SOURCE LINE # 712
151B 900000      E     MOV     DPTR,#c_mem+0A6H
151E E0                MOVX    A,@DPTR
151F FF                MOV     R7,A
1520 EF                MOV     A,R7
1521 6026              JZ      ?C0164
                                           ; SOURCE LINE # 713
1523 7B01              MOV     R3,#01H
1525 7A00        R     MOV     R2,#HIGH rest_pos_flag_str
1527 7900        R     MOV     R1,#LOW rest_pos_flag_str
1529 C003              PUSH    AR3
152B C002              PUSH    AR2
152D C001              PUSH    AR1
152F 7BFF              MOV     R3,#0FFH
1531 7A00        R     MOV     R2,#HIGH ?SC_0
1533 7900        R     MOV     R1,#LOW ?SC_0
1535 900000      E     MOV     DPTR,#?_strcat?BYTE+03H
1538 120000      E     LCALL   ?C?PSTXDATA
153B D001              POP     AR1
153D D002              POP     AR2
153F D003              POP     AR3
1541 120000      E     LCALL   _strcat
                                           ; SOURCE LINE # 714
1544 75001D      R     MOV     string_lenght,#01DH
                                           ; SOURCE LINE # 715
1547 8024              SJMP    ?C0165
1549         ?C0164:
                                           ; SOURCE LINE # 716
                                           ; SOURCE LINE # 717
1549 7B01              MOV     R3,#01H
154B 7A00        R     MOV     R2,#HIGH rest_pos_flag_str
154D 7900        R     MOV     R1,#LOW rest_pos_flag_str
154F C003              PUSH    AR3
1551 C002              PUSH    AR2
1553 C001              PUSH    AR1
1555 7BFF              MOV     R3,#0FFH
1557 7A00        R     MOV     R2,#HIGH ?SC_6
1559 7900        R     MOV     R1,#LOW ?SC_6
155B 900000      E     MOV     DPTR,#?_strcat?BYTE+03H
155E 120000      E     LCALL   ?C?PSTXDATA
1561 D001              POP     AR1
1563 D002              POP     AR2
1565 D003              POP     AR3
1567 120000      E     LCALL   _strcat
                                           ; SOURCE LINE # 718
156A 75001C      R     MOV     string_lenght,#01CH
                                           ; SOURCE LINE # 719
156D         ?C0165:
                                           ; SOURCE LINE # 720
156D 850000      R     MOV     i,string_lenght
1570         ?C0166:
C51 COMPILER V9.51   COMMAND_PROCESSING                                                    02/09/2021 12:42:36 PAGE 98  

1570 E500        R     MOV     A,i
1572 603E              JZ      ?C0167
                                           ; SOURCE LINE # 721
1574 AF00        R     MOV     R7,i
1576 7E00              MOV     R6,#00H
1578 AD00        R     MOV     R5,string_lenght
157A 7C00              MOV     R4,#00H
157C C3                CLR     C
157D ED                MOV     A,R5
157E 9F                SUBB    A,R7
157F FF                MOV     R7,A
1580 EC                MOV     A,R4
1581 9E                SUBB    A,R6
1582 FE                MOV     R6,A
1583 7400        R     MOV     A,#LOW rest_pos_flag_str
1585 2F                ADD     A,R7
1586 F582              MOV     DPL,A
1588 7400        R     MOV     A,#HIGH rest_pos_flag_str
158A 3E                ADDC    A,R6
158B F583              MOV     DPH,A
158D E0                MOVX    A,@DPTR
158E FF                MOV     R7,A
158F AE00        R     MOV     R6,i
1591 EE                MOV     A,R6
1592 FD                MOV     R5,A
1593 7C00              MOV     R4,#00H
1595 AE00        R     MOV     R6,string_lenght
1597 EE                MOV     A,R6
1598 FB                MOV     R3,A
1599 7A00              MOV     R2,#00H
159B C3                CLR     C
159C EB                MOV     A,R3
159D 9D                SUBB    A,R5
159E FD                MOV     R5,A
159F EA                MOV     A,R2
15A0 9C                SUBB    A,R4
15A1 FC                MOV     R4,A
15A2 7400        R     MOV     A,#LOW packet_data+04B5H
15A4 2D                ADD     A,R5
15A5 F582              MOV     DPL,A
15A7 7400        R     MOV     A,#HIGH packet_data+04B5H
15A9 3C                ADDC    A,R4
15AA F583              MOV     DPH,A
15AC EF                MOV     A,R7
15AD F0                MOVX    @DPTR,A
15AE 1500        R     DEC     i
15B0 80BE              SJMP    ?C0166
15B2         ?C0167:
                                           ; SOURCE LINE # 723
15B2 AF00        R     MOV     R7,string_lenght
15B4 7400        R     MOV     A,#LOW packet_data+04B5H
15B6 2F                ADD     A,R7
15B7 F582              MOV     DPL,A
15B9 E4                CLR     A
15BA 3400        R     ADDC    A,#HIGH packet_data+04B5H
15BC F583              MOV     DPH,A
15BE 7403              MOV     A,#03H
15C0 F0                MOVX    @DPTR,A
                                           ; SOURCE LINE # 727
15C1 900000      R     MOV     DPTR,#packet_data+04E4H
15C4 E4                CLR     A
15C5 F0                MOVX    @DPTR,A
C51 COMPILER V9.51   COMMAND_PROCESSING                                                    02/09/2021 12:42:36 PAGE 99  

                                           ; SOURCE LINE # 728
15C6 900000      R     MOV     DPTR,#packet_data+04E5H
15C9 7401              MOV     A,#01H
15CB F0                MOVX    @DPTR,A
                                           ; SOURCE LINE # 729
15CC 900000      E     MOV     DPTR,#c_mem+0A5H
15CF E0                MOVX    A,@DPTR
15D0 FF                MOV     R7,A
15D1 900000      R     MOV     DPTR,#packet_data+04E6H
15D4 EF                MOV     A,R7
15D5 F0                MOVX    @DPTR,A
                                           ; SOURCE LINE # 730
15D6 900000      E     MOV     DPTR,#c_mem+0A5H
15D9 E0                MOVX    A,@DPTR
15DA FF                MOV     R7,A
15DB EF                MOV     A,R7
15DC 6026              JZ      ?C0169
                                           ; SOURCE LINE # 731
15DE 7B01              MOV     R3,#01H
15E0 7A00        R     MOV     R2,#HIGH emg_inversion_str
15E2 7900        R     MOV     R1,#LOW emg_inversion_str
15E4 C003              PUSH    AR3
15E6 C002              PUSH    AR2
15E8 C001              PUSH    AR1
15EA 7BFF              MOV     R3,#0FFH
15EC 7A00        R     MOV     R2,#HIGH ?SC_0
15EE 7900        R     MOV     R1,#LOW ?SC_0
15F0 900000      E     MOV     DPTR,#?_strcat?BYTE+03H
15F3 120000      E     LCALL   ?C?PSTXDATA
15F6 D001              POP     AR1
15F8 D002              POP     AR2
15FA D003              POP     AR3
15FC 120000      E     LCALL   _strcat
                                           ; SOURCE LINE # 732
15FF 750018      R     MOV     string_lenght,#018H
                                           ; SOURCE LINE # 733
1602 8024              SJMP    ?C0170
1604         ?C0169:
                                           ; SOURCE LINE # 734
                                           ; SOURCE LINE # 735
1604 7B01              MOV     R3,#01H
1606 7A00        R     MOV     R2,#HIGH emg_inversion_str
1608 7900        R     MOV     R1,#LOW emg_inversion_str
160A C003              PUSH    AR3
160C C002              PUSH    AR2
160E C001              PUSH    AR1
1610 7BFF              MOV     R3,#0FFH
1612 7A00        R     MOV     R2,#HIGH ?SC_6
1614 7900        R     MOV     R1,#LOW ?SC_6
1616 900000      E     MOV     DPTR,#?_strcat?BYTE+03H
1619 120000      E     LCALL   ?C?PSTXDATA
161C D001              POP     AR1
161E D002              POP     AR2
1620 D003              POP     AR3
1622 120000      E     LCALL   _strcat
                                           ; SOURCE LINE # 736
1625 750017      R     MOV     string_lenght,#017H
                                           ; SOURCE LINE # 737
1628         ?C0170:
                                           ; SOURCE LINE # 738
1628 850000      R     MOV     i,string_lenght
162B         ?C0171:
C51 COMPILER V9.51   COMMAND_PROCESSING                                                    02/09/2021 12:42:36 PAGE 100 

162B E500        R     MOV     A,i
162D 603E              JZ      ?C0172
                                           ; SOURCE LINE # 739
162F AF00        R     MOV     R7,i
1631 7E00              MOV     R6,#00H
1633 AD00        R     MOV     R5,string_lenght
1635 7C00              MOV     R4,#00H
1637 C3                CLR     C
1638 ED                MOV     A,R5
1639 9F                SUBB    A,R7
163A FF                MOV     R7,A
163B EC                MOV     A,R4
163C 9E                SUBB    A,R6
163D FE                MOV     R6,A
163E 7400        R     MOV     A,#LOW emg_inversion_str
1640 2F                ADD     A,R7
1641 F582              MOV     DPL,A
1643 7400        R     MOV     A,#HIGH emg_inversion_str
1645 3E                ADDC    A,R6
1646 F583              MOV     DPH,A
1648 E0                MOVX    A,@DPTR
1649 FF                MOV     R7,A
164A AE00        R     MOV     R6,i
164C EE                MOV     A,R6
164D FD                MOV     R5,A
164E 7C00              MOV     R4,#00H
1650 AE00        R     MOV     R6,string_lenght
1652 EE                MOV     A,R6
1653 FB                MOV     R3,A
1654 7A00              MOV     R2,#00H
1656 C3                CLR     C
1657 EB                MOV     A,R3
1658 9D                SUBB    A,R5
1659 FD                MOV     R5,A
165A EA                MOV     A,R2
165B 9C                SUBB    A,R4
165C FC                MOV     R4,A
165D 7400        R     MOV     A,#LOW packet_data+04E7H
165F 2D                ADD     A,R5
1660 F582              MOV     DPL,A
1662 7400        R     MOV     A,#HIGH packet_data+04E7H
1664 3C                ADDC    A,R4
1665 F583              MOV     DPH,A
1667 EF                MOV     A,R7
1668 F0                MOVX    @DPTR,A
1669 1500        R     DEC     i
166B 80BE              SJMP    ?C0171
166D         ?C0172:
                                           ; SOURCE LINE # 741
166D AF00        R     MOV     R7,string_lenght
166F 7400        R     MOV     A,#LOW packet_data+04E7H
1671 2F                ADD     A,R7
1672 F582              MOV     DPL,A
1674 E4                CLR     A
1675 3400        R     ADDC    A,#HIGH packet_data+04E7H
1677 F583              MOV     DPH,A
1679 7403              MOV     A,#03H
167B F0                MOVX    @DPTR,A
                                           ; SOURCE LINE # 745
167C 900000      R     MOV     DPTR,#packet_data+0516H
167F E4                CLR     A
1680 F0                MOVX    @DPTR,A
C51 COMPILER V9.51   COMMAND_PROCESSING                                                    02/09/2021 12:42:36 PAGE 101 

                                           ; SOURCE LINE # 746
1681 900000      R     MOV     DPTR,#packet_data+0517H
1684 7401              MOV     A,#01H
1686 F0                MOVX    @DPTR,A
                                           ; SOURCE LINE # 747
1687 900000      R     MOV     DPTR,#packet_data+0518H
168A 7401              MOV     A,#01H
168C F0                MOVX    @DPTR,A
                                           ; SOURCE LINE # 748
168D 7B01              MOV     R3,#01H
168F 7A00        R     MOV     R2,#HIGH reset_counters_str
1691 7900        R     MOV     R1,#LOW reset_counters_str
1693 C003              PUSH    AR3
1695 C002              PUSH    AR2
1697 C001              PUSH    AR1
1699 7BFF              MOV     R3,#0FFH
169B 7A00        R     MOV     R2,#HIGH ?SC_6
169D 7900        R     MOV     R1,#LOW ?SC_6
169F 900000      E     MOV     DPTR,#?_strcat?BYTE+03H
16A2 120000      E     LCALL   ?C?PSTXDATA
16A5 D001              POP     AR1
16A7 D002              POP     AR2
16A9 D003              POP     AR3
16AB 120000      E     LCALL   _strcat
                                           ; SOURCE LINE # 749
16AE 750018      R     MOV     string_lenght,#018H
                                           ; SOURCE LINE # 751
16B1 850000      R     MOV     i,string_lenght
16B4         ?C0174:
16B4 E500        R     MOV     A,i
16B6 603E              JZ      ?C0175
                                           ; SOURCE LINE # 752
16B8 AF00        R     MOV     R7,i
16BA 7E00              MOV     R6,#00H
16BC AD00        R     MOV     R5,string_lenght
16BE 7C00              MOV     R4,#00H
16C0 C3                CLR     C
16C1 ED                MOV     A,R5
16C2 9F                SUBB    A,R7
16C3 FF                MOV     R7,A
16C4 EC                MOV     A,R4
16C5 9E                SUBB    A,R6
16C6 FE                MOV     R6,A
16C7 7400        R     MOV     A,#LOW reset_counters_str
16C9 2F                ADD     A,R7
16CA F582              MOV     DPL,A
16CC 7400        R     MOV     A,#HIGH reset_counters_str
16CE 3E                ADDC    A,R6
16CF F583              MOV     DPH,A
16D1 E0                MOVX    A,@DPTR
16D2 FF                MOV     R7,A
16D3 AE00        R     MOV     R6,i
16D5 EE                MOV     A,R6
16D6 FD                MOV     R5,A
16D7 7C00              MOV     R4,#00H
16D9 AE00        R     MOV     R6,string_lenght
16DB EE                MOV     A,R6
16DC FB                MOV     R3,A
16DD 7A00              MOV     R2,#00H
16DF C3                CLR     C
16E0 EB                MOV     A,R3
16E1 9D                SUBB    A,R5
C51 COMPILER V9.51   COMMAND_PROCESSING                                                    02/09/2021 12:42:36 PAGE 102 

16E2 FD                MOV     R5,A
16E3 EA                MOV     A,R2
16E4 9C                SUBB    A,R4
16E5 FC                MOV     R4,A
16E6 7400        R     MOV     A,#LOW packet_data+0519H
16E8 2D                ADD     A,R5
16E9 F582              MOV     DPL,A
16EB 7400        R     MOV     A,#HIGH packet_data+0519H
16ED 3C                ADDC    A,R4
16EE F583              MOV     DPH,A
16F0 EF                MOV     A,R7
16F1 F0                MOVX    @DPTR,A
16F2 1500        R     DEC     i
16F4 80BE              SJMP    ?C0174
16F6         ?C0175:
                                           ; SOURCE LINE # 754
16F6 AF00        R     MOV     R7,string_lenght
16F8 7400        R     MOV     A,#LOW packet_data+0519H
16FA 2F                ADD     A,R7
16FB F582              MOV     DPL,A
16FD E4                CLR     A
16FE 3400        R     ADDC    A,#HIGH packet_data+0519H
1700 F583              MOV     DPH,A
1702 7403              MOV     A,#03H
1704 F0                MOVX    @DPTR,A
                                           ; SOURCE LINE # 758
1705 900000      R     MOV     DPTR,#packet_data+0548H
1708 7402              MOV     A,#02H
170A F0                MOVX    @DPTR,A
                                           ; SOURCE LINE # 759
170B 900000      R     MOV     DPTR,#packet_data+0549H
170E 7403              MOV     A,#03H
1710 F0                MOVX    @DPTR,A
                                           ; SOURCE LINE # 760
1711 900000      E     MOV     DPTR,#c_mem+0A2H
1714 E0                MOVX    A,@DPTR
1715 FF                MOV     R7,A
1716 AE00        R     MOV     R6,i
1718 7400        R     MOV     A,#LOW packet_data+054AH
171A 2E                ADD     A,R6
171B F582              MOV     DPL,A
171D E4                CLR     A
171E 3400        R     ADDC    A,#HIGH packet_data+054AH
1720 F583              MOV     DPH,A
1722 EF                MOV     A,R7
1723 F0                MOVX    @DPTR,A
                                           ; SOURCE LINE # 761
1724 900000      E     MOV     DPTR,#c_mem+0A3H
1727 E0                MOVX    A,@DPTR
1728 FF                MOV     R7,A
1729 AE00        R     MOV     R6,i
172B 7400        R     MOV     A,#LOW packet_data+054BH
172D 2E                ADD     A,R6
172E F582              MOV     DPL,A
1730 E4                CLR     A
1731 3400        R     ADDC    A,#HIGH packet_data+054BH
1733 F583              MOV     DPH,A
1735 EF                MOV     A,R7
1736 F0                MOVX    @DPTR,A
                                           ; SOURCE LINE # 762
1737 900000      E     MOV     DPTR,#c_mem+0A4H
173A E0                MOVX    A,@DPTR
C51 COMPILER V9.51   COMMAND_PROCESSING                                                    02/09/2021 12:42:36 PAGE 103 

173B FF                MOV     R7,A
173C AE00        R     MOV     R6,i
173E 7400        R     MOV     A,#LOW packet_data+054CH
1740 2E                ADD     A,R6
1741 F582              MOV     DPL,A
1743 E4                CLR     A
1744 3400        R     ADDC    A,#HIGH packet_data+054CH
1746 F583              MOV     DPH,A
1748 EF                MOV     A,R7
1749 F0                MOVX    @DPTR,A
                                           ; SOURCE LINE # 763
174A 850000      R     MOV     i,date_maint_str_len
174D         ?C0177:
174D E500        R     MOV     A,i
174F 603E              JZ      ?C0178
                                           ; SOURCE LINE # 764
1751 AF00        R     MOV     R7,i
1753 7E00              MOV     R6,#00H
1755 AD00        R     MOV     R5,date_maint_str_len
1757 7C00              MOV     R4,#00H
1759 C3                CLR     C
175A ED                MOV     A,R5
175B 9F                SUBB    A,R7
175C FF                MOV     R7,A
175D EC                MOV     A,R4
175E 9E                SUBB    A,R6
175F FE                MOV     R6,A
1760 7400        R     MOV     A,#LOW date_maint_str
1762 2F                ADD     A,R7
1763 F582              MOV     DPL,A
1765 7400        R     MOV     A,#HIGH date_maint_str
1767 3E                ADDC    A,R6
1768 F583              MOV     DPH,A
176A E0                MOVX    A,@DPTR
176B FF                MOV     R7,A
176C AE00        R     MOV     R6,i
176E EE                MOV     A,R6
176F FD                MOV     R5,A
1770 7C00              MOV     R4,#00H
1772 AE00        R     MOV     R6,date_maint_str_len
1774 EE                MOV     A,R6
1775 FB                MOV     R3,A
1776 7A00              MOV     R2,#00H
1778 C3                CLR     C
1779 EB                MOV     A,R3
177A 9D                SUBB    A,R5
177B FD                MOV     R5,A
177C EA                MOV     A,R2
177D 9C                SUBB    A,R4
177E FC                MOV     R4,A
177F 7400        R     MOV     A,#LOW packet_data+054DH
1781 2D                ADD     A,R5
1782 F582              MOV     DPL,A
1784 7400        R     MOV     A,#HIGH packet_data+054DH
1786 3C                ADDC    A,R4
1787 F583              MOV     DPH,A
1789 EF                MOV     A,R7
178A F0                MOVX    @DPTR,A
178B 1500        R     DEC     i
178D 80BE              SJMP    ?C0177
178F         ?C0178:
                                           ; SOURCE LINE # 768
C51 COMPILER V9.51   COMMAND_PROCESSING                                                    02/09/2021 12:42:36 PAGE 104 

178F 850000      R     MOV     i,input_mode_menu_len
1792         ?C0180:
1792 E500        R     MOV     A,i
1794 603E              JZ      ?C0181
                                           ; SOURCE LINE # 769
1796 AF00        R     MOV     R7,i
1798 7E00              MOV     R6,#00H
179A AD00        R     MOV     R5,input_mode_menu_len
179C 7C00              MOV     R4,#00H
179E C3                CLR     C
179F ED                MOV     A,R5
17A0 9F                SUBB    A,R7
17A1 FF                MOV     R7,A
17A2 EC                MOV     A,R4
17A3 9E                SUBB    A,R6
17A4 FE                MOV     R6,A
17A5 7400        R     MOV     A,#LOW input_mode_menu
17A7 2F                ADD     A,R7
17A8 F582              MOV     DPL,A
17AA 7400        R     MOV     A,#HIGH input_mode_menu
17AC 3E                ADDC    A,R6
17AD F583              MOV     DPH,A
17AF E0                MOVX    A,@DPTR
17B0 FF                MOV     R7,A
17B1 AE00        R     MOV     R6,i
17B3 EE                MOV     A,R6
17B4 FD                MOV     R5,A
17B5 7C00              MOV     R4,#00H
17B7 AE00        R     MOV     R6,input_mode_menu_len
17B9 EE                MOV     A,R6
17BA FB                MOV     R3,A
17BB 7A00              MOV     R2,#00H
17BD C3                CLR     C
17BE EB                MOV     A,R3
17BF 9D                SUBB    A,R5
17C0 FD                MOV     R5,A
17C1 EA                MOV     A,R2
17C2 9C                SUBB    A,R4
17C3 FC                MOV     R4,A
17C4 7400        R     MOV     A,#LOW packet_data+057AH
17C6 2D                ADD     A,R5
17C7 F582              MOV     DPL,A
17C9 7400        R     MOV     A,#HIGH packet_data+057AH
17CB 3C                ADDC    A,R4
17CC F583              MOV     DPH,A
17CE EF                MOV     A,R7
17CF F0                MOVX    @DPTR,A
17D0 1500        R     DEC     i
17D2 80BE              SJMP    ?C0180
17D4         ?C0181:
                                           ; SOURCE LINE # 771
17D4 850000      R     MOV     i,control_mode_menu_len
17D7         ?C0183:
17D7 E500        R     MOV     A,i
17D9 603E              JZ      ?C0184
                                           ; SOURCE LINE # 772
17DB AF00        R     MOV     R7,i
17DD 7E00              MOV     R6,#00H
17DF AD00        R     MOV     R5,control_mode_menu_len
17E1 7C00              MOV     R4,#00H
17E3 C3                CLR     C
17E4 ED                MOV     A,R5
C51 COMPILER V9.51   COMMAND_PROCESSING                                                    02/09/2021 12:42:36 PAGE 105 

17E5 9F                SUBB    A,R7
17E6 FF                MOV     R7,A
17E7 EC                MOV     A,R4
17E8 9E                SUBB    A,R6
17E9 FE                MOV     R6,A
17EA 7400        R     MOV     A,#LOW control_mode_menu
17EC 2F                ADD     A,R7
17ED F582              MOV     DPL,A
17EF 7400        R     MOV     A,#HIGH control_mode_menu
17F1 3E                ADDC    A,R6
17F2 F583              MOV     DPH,A
17F4 E0                MOVX    A,@DPTR
17F5 FF                MOV     R7,A
17F6 AE00        R     MOV     R6,i
17F8 EE                MOV     A,R6
17F9 FD                MOV     R5,A
17FA 7C00              MOV     R4,#00H
17FC AE00        R     MOV     R6,control_mode_menu_len
17FE EE                MOV     A,R6
17FF FB                MOV     R3,A
1800 7A00              MOV     R2,#00H
1802 C3                CLR     C
1803 EB                MOV     A,R3
1804 9D                SUBB    A,R5
1805 FD                MOV     R5,A
1806 EA                MOV     A,R2
1807 9C                SUBB    A,R4
1808 FC                MOV     R4,A
1809 7400        R     MOV     A,#LOW packet_data+0610H
180B 2D                ADD     A,R5
180C F582              MOV     DPL,A
180E 7400        R     MOV     A,#HIGH packet_data+0610H
1810 3C                ADDC    A,R4
1811 F583              MOV     DPH,A
1813 EF                MOV     A,R7
1814 F0                MOVX    @DPTR,A
1815 1500        R     DEC     i
1817 80BE              SJMP    ?C0183
1819         ?C0184:
                                           ; SOURCE LINE # 774
1819 850000      R     MOV     i,yes_no_menu_len
181C         ?C0186:
181C E500        R     MOV     A,i
181E 603E              JZ      ?C0187
                                           ; SOURCE LINE # 775
1820 AF00        R     MOV     R7,i
1822 7E00              MOV     R6,#00H
1824 AD00        R     MOV     R5,yes_no_menu_len
1826 7C00              MOV     R4,#00H
1828 C3                CLR     C
1829 ED                MOV     A,R5
182A 9F                SUBB    A,R7
182B FF                MOV     R7,A
182C EC                MOV     A,R4
182D 9E                SUBB    A,R6
182E FE                MOV     R6,A
182F 7400        R     MOV     A,#LOW yes_no_menu
1831 2F                ADD     A,R7
1832 F582              MOV     DPL,A
1834 7400        R     MOV     A,#HIGH yes_no_menu
1836 3E                ADDC    A,R6
1837 F583              MOV     DPH,A
C51 COMPILER V9.51   COMMAND_PROCESSING                                                    02/09/2021 12:42:36 PAGE 106 

1839 E0                MOVX    A,@DPTR
183A FF                MOV     R7,A
183B AE00        R     MOV     R6,i
183D EE                MOV     A,R6
183E FD                MOV     R5,A
183F 7C00              MOV     R4,#00H
1841 AE00        R     MOV     R6,yes_no_menu_len
1843 EE                MOV     A,R6
1844 FB                MOV     R3,A
1845 7A00              MOV     R2,#00H
1847 C3                CLR     C
1848 EB                MOV     A,R3
1849 9D                SUBB    A,R5
184A FD                MOV     R5,A
184B EA                MOV     A,R2
184C 9C                SUBB    A,R4
184D FC                MOV     R4,A
184E 7400        R     MOV     A,#LOW packet_data+06A6H
1850 2D                ADD     A,R5
1851 F582              MOV     DPL,A
1853 7400        R     MOV     A,#HIGH packet_data+06A6H
1855 3C                ADDC    A,R4
1856 F583              MOV     DPH,A
1858 EF                MOV     A,R7
1859 F0                MOVX    @DPTR,A
185A 1500        R     DEC     i
185C 80BE              SJMP    ?C0186
185E         ?C0187:
                                           ; SOURCE LINE # 777
185E 7B01              MOV     R3,#01H
1860 7A00        R     MOV     R2,#HIGH packet_data
1862 7900        R     MOV     R1,#LOW packet_data
1864 900000      R     MOV     DPTR,#packet_lenght
1867 E0                MOVX    A,@DPTR
1868 FE                MOV     R6,A
1869 A3                INC     DPTR
186A E0                MOVX    A,@DPTR
186B FF                MOV     R7,A
186C EF                MOV     A,R7
186D 14                DEC     A
186E FD                MOV     R5,A
186F 120000      R     LCALL   _LCRChecksum
1872 900000      R     MOV     DPTR,#packet_lenght
1875 E0                MOVX    A,@DPTR
1876 FC                MOV     R4,A
1877 A3                INC     DPTR
1878 E0                MOVX    A,@DPTR
1879 FD                MOV     R5,A
187A 7400        R     MOV     A,#LOW packet_data+0FFFFH
187C 2D                ADD     A,R5
187D F582              MOV     DPL,A
187F 7400        R     MOV     A,#HIGH packet_data+0FFFFH
1881 3C                ADDC    A,R4
1882 F583              MOV     DPH,A
1884 EF                MOV     A,R7
1885 F0                MOVX    @DPTR,A
                                           ; SOURCE LINE # 778
1886 7B01              MOV     R3,#01H
1888 7A00        R     MOV     R2,#HIGH packet_data
188A 7900        R     MOV     R1,#LOW packet_data
188C 900000      R     MOV     DPTR,#packet_lenght
188F E0                MOVX    A,@DPTR
C51 COMPILER V9.51   COMMAND_PROCESSING                                                    02/09/2021 12:42:36 PAGE 107 

1890 FC                MOV     R4,A
1891 A3                INC     DPTR
1892 E0                MOVX    A,@DPTR
1893 FD                MOV     R5,A
1894 120000      R     LCALL   _commWrite
                                           ; SOURCE LINE # 779
1897 22                RET     
                                           ; SOURCE LINE # 782
1898         ?C0189:
                                           ; SOURCE LINE # 783
1898 900000      E     MOV     DPTR,#g_rx+03H
189B E0                MOVX    A,@DPTR
189C FF                MOV     R7,A
189D 900000      E     MOV     DPTR,#g_mem+01H
18A0 EF                MOV     A,R7
18A1 F0                MOVX    @DPTR,A
                                           ; SOURCE LINE # 784
18A2 22                RET     
                                           ; SOURCE LINE # 787
18A3         ?C0190:
                                           ; SOURCE LINE # 788
18A3 900000      E     MOV     DPTR,#c_mem+034H
18A6 E0                MOVX    A,@DPTR
18A7 FF                MOV     R7,A
18A8 EF                MOV     A,R7
18A9 6403              XRL     A,#03H
18AB 604F              JZ      ?C0191
                                           ; SOURCE LINE # 789
18AD 7F00              MOV     R7,#00H
18AF 7E00              MOV     R6,#00H
18B1 7D80              MOV     R5,#080H
18B3 7C47              MOV     R4,#047H
18B5 900000      E     MOV     DPTR,#g_rx+03H
18B8 120000      E     LCALL   ?C?LLDXDATA0
18BB 120000      E     LCALL   ?C?FPMUL
18BE 120000      E     LCALL   ?C?CASTF
18C1 900000      E     MOV     DPTR,#g_mem+02H
18C4 120000      E     LCALL   ?C?LSTXDATA
                                           ; SOURCE LINE # 790
18C7 7F00              MOV     R7,#00H
18C9 7E00              MOV     R6,#00H
18CB 7D80              MOV     R5,#080H
18CD 7C47              MOV     R4,#047H
18CF 900000      E     MOV     DPTR,#g_rx+07H
18D2 120000      E     LCALL   ?C?LLDXDATA0
18D5 120000      E     LCALL   ?C?FPMUL
18D8 120000      E     LCALL   ?C?CASTF
18DB 900000      E     MOV     DPTR,#g_mem+06H
18DE 120000      E     LCALL   ?C?LSTXDATA
                                           ; SOURCE LINE # 791
18E1 7F00              MOV     R7,#00H
18E3 7E00              MOV     R6,#00H
18E5 7D80              MOV     R5,#080H
18E7 7C47              MOV     R4,#047H
18E9 900000      E     MOV     DPTR,#g_rx+0BH
18EC 120000      E     LCALL   ?C?LLDXDATA0
18EF 120000      E     LCALL   ?C?FPMUL
18F2 120000      E     LCALL   ?C?CASTF
18F5 900000      E     MOV     DPTR,#g_mem+0AH
18F8 120000      E     LCALL   ?C?LSTXDATA
                                           ; SOURCE LINE # 792
18FB 22                RET     
C51 COMPILER V9.51   COMMAND_PROCESSING                                                    02/09/2021 12:42:36 PAGE 108 

18FC         ?C0191:
                                           ; SOURCE LINE # 793
                                           ; SOURCE LINE # 794
18FC 7F00              MOV     R7,#00H
18FE 7E00              MOV     R6,#00H
1900 7D00              MOV     R5,#00H
1902 7C46              MOV     R4,#046H
1904 900000      E     MOV     DPTR,#g_rx+03H
1907 120000      E     LCALL   ?C?LLDXDATA0
190A 120000      E     LCALL   ?C?FPMUL
190D 120000      E     LCALL   ?C?CASTF
1910 900000      E     MOV     DPTR,#g_mem+01AH
1913 120000      E     LCALL   ?C?LSTXDATA
                                           ; SOURCE LINE # 795
1916 7F00              MOV     R7,#00H
1918 7E00              MOV     R6,#00H
191A 7D00              MOV     R5,#00H
191C 7C46              MOV     R4,#046H
191E 900000      E     MOV     DPTR,#g_rx+07H
1921 120000      E     LCALL   ?C?LLDXDATA0
1924 120000      E     LCALL   ?C?FPMUL
1927 120000      E     LCALL   ?C?CASTF
192A 900000      E     MOV     DPTR,#g_mem+01EH
192D 120000      E     LCALL   ?C?LSTXDATA
                                           ; SOURCE LINE # 796
1930 7F00              MOV     R7,#00H
1932 7E00              MOV     R6,#00H
1934 7D00              MOV     R5,#00H
1936 7C46              MOV     R4,#046H
1938 900000      E     MOV     DPTR,#g_rx+0BH
193B 120000      E     LCALL   ?C?LLDXDATA0
193E 120000      E     LCALL   ?C?FPMUL
1941 120000      E     LCALL   ?C?CASTF
1944 900000      E     MOV     DPTR,#g_mem+022H
1947 120000      E     LCALL   ?C?LSTXDATA
                                           ; SOURCE LINE # 798
194A 900000      E     MOV     DPTR,#g_mem+01AH
194D 120000      E     LCALL   ?C?LLDXDATA
1950 EC                MOV     A,R4
1951 120000      E     LCALL   ?C?FCASTL
1954 7B9A              MOV     R3,#09AH
1956 7A99              MOV     R2,#099H
1958 7999              MOV     R1,#099H
195A 7845              MOV     R0,#045H
195C 120000      E     LCALL   ?C?FPCMP3
195F 4003              JC      $ + 5H
1961 020000      R     LJMP    ?C0245
1964 7F33              MOV     R7,#033H
1966 7E13              MOV     R6,#013H
1968 7D00              MOV     R5,#00H
196A 7C00              MOV     R4,#00H
196C 900000      E     MOV     DPTR,#g_mem+01AH
196F 120000      E     LCALL   ?C?LSTXDATA
                                           ; SOURCE LINE # 799
                                           ; SOURCE LINE # 800
1972 22                RET     
                                           ; SOURCE LINE # 803
1973         ?C0194:
                                           ; SOURCE LINE # 804
1973 900000      E     MOV     DPTR,#c_mem+034H
1976 E0                MOVX    A,@DPTR
1977 FF                MOV     R7,A
C51 COMPILER V9.51   COMMAND_PROCESSING                                                    02/09/2021 12:42:36 PAGE 109 

1978 EF                MOV     A,R7
1979 6403              XRL     A,#03H
197B 604F              JZ      ?C0195
                                           ; SOURCE LINE # 805
197D 7F00              MOV     R7,#00H
197F 7E00              MOV     R6,#00H
1981 7D80              MOV     R5,#080H
1983 7C47              MOV     R4,#047H
1985 900000      E     MOV     DPTR,#g_rx+03H
1988 120000      E     LCALL   ?C?LLDXDATA0
198B 120000      E     LCALL   ?C?FPMUL
198E 120000      E     LCALL   ?C?CASTF
1991 900000      E     MOV     DPTR,#g_mem+0EH
1994 120000      E     LCALL   ?C?LSTXDATA
                                           ; SOURCE LINE # 806
1997 7F00              MOV     R7,#00H
1999 7E00              MOV     R6,#00H
199B 7D80              MOV     R5,#080H
199D 7C47              MOV     R4,#047H
199F 900000      E     MOV     DPTR,#g_rx+07H
19A2 120000      E     LCALL   ?C?LLDXDATA0
19A5 120000      E     LCALL   ?C?FPMUL
19A8 120000      E     LCALL   ?C?CASTF
19AB 900000      E     MOV     DPTR,#g_mem+012H
19AE 120000      E     LCALL   ?C?LSTXDATA
                                           ; SOURCE LINE # 807
19B1 7F00              MOV     R7,#00H
19B3 7E00              MOV     R6,#00H
19B5 7D80              MOV     R5,#080H
19B7 7C47              MOV     R4,#047H
19B9 900000      E     MOV     DPTR,#g_rx+0BH
19BC 120000      E     LCALL   ?C?LLDXDATA0
19BF 120000      E     LCALL   ?C?FPMUL
19C2 120000      E     LCALL   ?C?CASTF
19C5 900000      E     MOV     DPTR,#g_mem+016H
19C8 120000      E     LCALL   ?C?LSTXDATA
                                           ; SOURCE LINE # 808
19CB 22                RET     
19CC         ?C0195:
                                           ; SOURCE LINE # 809
                                           ; SOURCE LINE # 810
19CC 7F00              MOV     R7,#00H
19CE 7E00              MOV     R6,#00H
19D0 7D00              MOV     R5,#00H
19D2 7C46              MOV     R4,#046H
19D4 900000      E     MOV     DPTR,#g_rx+03H
19D7 120000      E     LCALL   ?C?LLDXDATA0
19DA 120000      E     LCALL   ?C?FPMUL
19DD 120000      E     LCALL   ?C?CASTF
19E0 900000      E     MOV     DPTR,#g_mem+026H
19E3 120000      E     LCALL   ?C?LSTXDATA
                                           ; SOURCE LINE # 811
19E6 7F00              MOV     R7,#00H
19E8 7E00              MOV     R6,#00H
19EA 7D00              MOV     R5,#00H
19EC 7C46              MOV     R4,#046H
19EE 900000      E     MOV     DPTR,#g_rx+07H
19F1 120000      E     LCALL   ?C?LLDXDATA0
19F4 120000      E     LCALL   ?C?FPMUL
19F7 120000      E     LCALL   ?C?CASTF
19FA 900000      E     MOV     DPTR,#g_mem+02AH
19FD 120000      E     LCALL   ?C?LSTXDATA
C51 COMPILER V9.51   COMMAND_PROCESSING                                                    02/09/2021 12:42:36 PAGE 110 

                                           ; SOURCE LINE # 812
1A00 7F00              MOV     R7,#00H
1A02 7E00              MOV     R6,#00H
1A04 7D00              MOV     R5,#00H
1A06 7C46              MOV     R4,#046H
1A08 900000      E     MOV     DPTR,#g_rx+0BH
1A0B 120000      E     LCALL   ?C?LLDXDATA0
1A0E 120000      E     LCALL   ?C?FPMUL
1A11 120000      E     LCALL   ?C?CASTF
1A14 900000      E     MOV     DPTR,#g_mem+02EH
1A17 120000      E     LCALL   ?C?LSTXDATA
                                           ; SOURCE LINE # 813
                                           ; SOURCE LINE # 815
1A1A 22                RET     
                                           ; SOURCE LINE # 818
1A1B         ?C0197:
                                           ; SOURCE LINE # 819
1A1B 900000      E     MOV     DPTR,#g_rx+03H
1A1E E0                MOVX    A,@DPTR
1A1F FF                MOV     R7,A
1A20 EF                MOV     A,R7
1A21 6007              JZ      ?C0198
                                           ; SOURCE LINE # 820
1A23 900000      E     MOV     DPTR,#g_mem+032H
1A26 7403              MOV     A,#03H
1A28 F0                MOVX    @DPTR,A
1A29 22                RET     
1A2A         ?C0198:
                                           ; SOURCE LINE # 822
1A2A 900000      E     MOV     DPTR,#g_mem+032H
1A2D E4                CLR     A
1A2E F0                MOVX    @DPTR,A
                                           ; SOURCE LINE # 823
1A2F 22                RET     
                                           ; SOURCE LINE # 826
1A30         ?C0200:
                                           ; SOURCE LINE # 827
1A30 900000      E     MOV     DPTR,#g_rx+03H
1A33 E0                MOVX    A,@DPTR
1A34 FF                MOV     R7,A
1A35 900000      E     MOV     DPTR,#g_mem+033H
1A38 EF                MOV     A,R7
1A39 F0                MOVX    @DPTR,A
                                           ; SOURCE LINE # 828
1A3A 22                RET     
                                           ; SOURCE LINE # 831
1A3B         ?C0201:
                                           ; SOURCE LINE # 832
1A3B 900000      E     MOV     DPTR,#g_rx+03H
1A3E E0                MOVX    A,@DPTR
1A3F FF                MOV     R7,A
1A40 900000      E     MOV     DPTR,#g_mem+034H
1A43 EF                MOV     A,R7
1A44 F0                MOVX    @DPTR,A
                                           ; SOURCE LINE # 833
1A45 22                RET     
                                           ; SOURCE LINE # 836
1A46         ?C0202:
                                           ; SOURCE LINE # 837
1A46 750000      R     MOV     i,#00H
1A49         ?C0203:
1A49 E500        R     MOV     A,i
C51 COMPILER V9.51   COMMAND_PROCESSING                                                    02/09/2021 12:42:36 PAGE 111 

1A4B C3                CLR     C
1A4C 9403              SUBB    A,#03H
1A4E 4003              JC      $ + 5H
1A50 020000      R     LJMP    ?C0245
                                           ; SOURCE LINE # 838
1A53 AF00        R     MOV     R7,i
1A55 7400        E     MOV     A,#LOW g_rx+03H
1A57 2F                ADD     A,R7
1A58 F582              MOV     DPL,A
1A5A E4                CLR     A
1A5B 3400        E     ADDC    A,#HIGH g_rx+03H
1A5D F583              MOV     DPH,A
1A5F E0                MOVX    A,@DPTR
1A60 FF                MOV     R7,A
1A61 AE00        R     MOV     R6,i
1A63 7400        E     MOV     A,#LOW g_mem+035H
1A65 2E                ADD     A,R6
1A66 F582              MOV     DPL,A
1A68 E4                CLR     A
1A69 3400        E     ADDC    A,#HIGH g_mem+035H
1A6B F583              MOV     DPH,A
1A6D EF                MOV     A,R7
1A6E F0                MOVX    @DPTR,A
                                           ; SOURCE LINE # 839
1A6F 0500        R     INC     i
1A71 80D6              SJMP    ?C0203
                                           ; SOURCE LINE # 840
                                           ; SOURCE LINE # 843
1A73         ?C0206:
                                           ; SOURCE LINE # 844
1A73 750000      R     MOV     i,#00H
1A76         ?C0207:
1A76 E500        R     MOV     A,i
1A78 C3                CLR     C
1A79 9403              SUBB    A,#03H
1A7B 506F              JNC     ?C0208
                                           ; SOURCE LINE # 845
1A7D AF00        R     MOV     R7,i
1A7F EF                MOV     A,R7
1A80 25E0              ADD     A,ACC
1A82 2400        E     ADD     A,#LOW g_rx+03H
1A84 F582              MOV     DPL,A
1A86 E4                CLR     A
1A87 3400        E     ADDC    A,#HIGH g_rx+03H
1A89 F583              MOV     DPH,A
1A8B E0                MOVX    A,@DPTR
1A8C FE                MOV     R6,A
1A8D A3                INC     DPTR
1A8E E0                MOVX    A,@DPTR
1A8F FF                MOV     R7,A
1A90 EE                MOV     A,R6
1A91 33                RLC     A
1A92 95E0              SUBB    A,ACC
1A94 FD                MOV     R5,A
1A95 FC                MOV     R4,A
1A96 AB00        R     MOV     R3,i
1A98 EB                MOV     A,R3
1A99 25E0              ADD     A,ACC
1A9B 25E0              ADD     A,ACC
1A9D 2400        E     ADD     A,#LOW g_mem+038H
1A9F F582              MOV     DPL,A
1AA1 E4                CLR     A
C51 COMPILER V9.51   COMMAND_PROCESSING                                                    02/09/2021 12:42:36 PAGE 112 

1AA2 3400        E     ADDC    A,#HIGH g_mem+038H
1AA4 F583              MOV     DPH,A
1AA6 120000      E     LCALL   ?C?LSTXDATA
                                           ; SOURCE LINE # 846
1AA9 AF00        R     MOV     R7,i
1AAB EF                MOV     A,R7
1AAC 25E0              ADD     A,ACC
1AAE 25E0              ADD     A,ACC
1AB0 2400        E     ADD     A,#LOW g_mem+038H
1AB2 F582              MOV     DPL,A
1AB4 E4                CLR     A
1AB5 3400        E     ADDC    A,#HIGH g_mem+038H
1AB7 F583              MOV     DPH,A
1AB9 C083              PUSH    DPH
1ABB C082              PUSH    DPL
1ABD 120000      E     LCALL   ?C?LLDXDATA
1AC0 AB00        R     MOV     R3,i
1AC2 7400        E     MOV     A,#LOW g_mem+035H
1AC4 2B                ADD     A,R3
1AC5 F582              MOV     DPL,A
1AC7 E4                CLR     A
1AC8 3400        E     ADDC    A,#HIGH g_mem+035H
1ACA F583              MOV     DPH,A
1ACC E0                MOVX    A,@DPTR
1ACD F9                MOV     R1,A
1ACE A801              MOV     R0,AR1
1AD0 120000      E     LCALL   ?C?LSHL
1AD3 D082              POP     DPL
1AD5 D083              POP     DPH
1AD7 120000      E     LCALL   ?C?LSTXDATA
                                           ; SOURCE LINE # 848
1ADA AF00        R     MOV     R7,i
1ADC 7400        E     MOV     A,#LOW g_meas+014H
1ADE 2F                ADD     A,R7
1ADF F582              MOV     DPL,A
1AE1 E4                CLR     A
1AE2 3400        E     ADDC    A,#HIGH g_meas+014H
1AE4 F583              MOV     DPH,A
1AE6 E4                CLR     A
1AE7 F0                MOVX    @DPTR,A
                                           ; SOURCE LINE # 849
1AE8 0500        R     INC     i
1AEA 808A              SJMP    ?C0207
1AEC         ?C0208:
                                           ; SOURCE LINE # 850
1AEC D200        E     SETB    reset_last_value_flag
                                           ; SOURCE LINE # 851
1AEE 22                RET     
                                           ; SOURCE LINE # 854
1AEF         ?C0210:
                                           ; SOURCE LINE # 855
1AEF 750000      R     MOV     i,#00H
1AF2         ?C0211:
1AF2 E500        R     MOV     A,i
1AF4 C3                CLR     C
1AF5 9403              SUBB    A,#03H
1AF7 4003              JC      $ + 5H
1AF9 020000      R     LJMP    ?C0245
                                           ; SOURCE LINE # 856
1AFC AF00        R     MOV     R7,i
1AFE EF                MOV     A,R7
1AFF 25E0              ADD     A,ACC
C51 COMPILER V9.51   COMMAND_PROCESSING                                                    02/09/2021 12:42:36 PAGE 113 

1B01 25E0              ADD     A,ACC
1B03 2400        E     ADD     A,#LOW g_rx+03H
1B05 F582              MOV     DPL,A
1B07 E4                CLR     A
1B08 3400        E     ADDC    A,#HIGH g_rx+03H
1B0A F583              MOV     DPH,A
1B0C 120000      E     LCALL   ?C?LLDXDATA
1B0F AB00        R     MOV     R3,i
1B11 EB                MOV     A,R3
1B12 25E0              ADD     A,ACC
1B14 25E0              ADD     A,ACC
1B16 2400        E     ADD     A,#LOW g_mem+044H
1B18 F582              MOV     DPL,A
1B1A E4                CLR     A
1B1B 3400        E     ADDC    A,#HIGH g_mem+044H
1B1D F583              MOV     DPH,A
1B1F 120000      E     LCALL   ?C?LSTXDATA
1B22 0500        R     INC     i
1B24 80CC              SJMP    ?C0211
                                           ; SOURCE LINE # 857
                                           ; SOURCE LINE # 860
1B26         ?C0214:
                                           ; SOURCE LINE # 861
1B26 900000      E     MOV     DPTR,#g_rx+03H
1B29 E0                MOVX    A,@DPTR
1B2A FF                MOV     R7,A
1B2B 900000      E     MOV     DPTR,#g_mem+050H
1B2E EF                MOV     A,R7
1B2F F0                MOVX    @DPTR,A
                                           ; SOURCE LINE # 862
1B30 22                RET     
                                           ; SOURCE LINE # 865
1B31         ?C0215:
                                           ; SOURCE LINE # 866
1B31 750000      R     MOV     i,#00H
1B34         ?C0216:
1B34 E500        R     MOV     A,i
1B36 C3                CLR     C
1B37 9402              SUBB    A,#02H
1B39 4003              JC      $ + 5H
1B3B 020000      R     LJMP    ?C0245
                                           ; SOURCE LINE # 867
1B3E AF00        R     MOV     R7,i
1B40 EF                MOV     A,R7
1B41 75F008            MOV     B,#08H
1B44 A4                MUL     AB
1B45 2400        E     ADD     A,#LOW g_rx+03H
1B47 F582              MOV     DPL,A
1B49 E4                CLR     A
1B4A 3400        E     ADDC    A,#HIGH g_rx+03H
1B4C F583              MOV     DPH,A
1B4E 120000      E     LCALL   ?C?LLDXDATA
1B51 AB00        R     MOV     R3,i
1B53 EB                MOV     A,R3
1B54 25E0              ADD     A,ACC
1B56 25E0              ADD     A,ACC
1B58 2400        E     ADD     A,#LOW g_mem+051H
1B5A F582              MOV     DPL,A
1B5C E4                CLR     A
1B5D 3400        E     ADDC    A,#HIGH g_mem+051H
1B5F F583              MOV     DPH,A
1B61 120000      E     LCALL   ?C?LSTXDATA
C51 COMPILER V9.51   COMMAND_PROCESSING                                                    02/09/2021 12:42:36 PAGE 114 

                                           ; SOURCE LINE # 868
1B64 AF00        R     MOV     R7,i
1B66 EF                MOV     A,R7
1B67 75F008            MOV     B,#08H
1B6A A4                MUL     AB
1B6B 2400        E     ADD     A,#LOW g_rx+07H
1B6D F582              MOV     DPL,A
1B6F E4                CLR     A
1B70 3400        E     ADDC    A,#HIGH g_rx+07H
1B72 F583              MOV     DPH,A
1B74 120000      E     LCALL   ?C?LLDXDATA
1B77 AB00        R     MOV     R3,i
1B79 EB                MOV     A,R3
1B7A 25E0              ADD     A,ACC
1B7C 25E0              ADD     A,ACC
1B7E 2400        E     ADD     A,#LOW g_mem+059H
1B80 F582              MOV     DPL,A
1B82 E4                CLR     A
1B83 3400        E     ADDC    A,#HIGH g_mem+059H
1B85 F583              MOV     DPH,A
1B87 120000      E     LCALL   ?C?LSTXDATA
                                           ; SOURCE LINE # 870
1B8A AF00        R     MOV     R7,i
1B8C EF                MOV     A,R7
1B8D 25E0              ADD     A,ACC
1B8F 25E0              ADD     A,ACC
1B91 2400        E     ADD     A,#LOW g_mem+051H
1B93 F582              MOV     DPL,A
1B95 E4                CLR     A
1B96 3400        E     ADDC    A,#HIGH g_mem+051H
1B98 F583              MOV     DPH,A
1B9A C083              PUSH    DPH
1B9C C082              PUSH    DPL
1B9E 120000      E     LCALL   ?C?LLDXDATA
1BA1 AB00        R     MOV     R3,i
1BA3 7400        E     MOV     A,#LOW g_mem+035H
1BA5 2B                ADD     A,R3
1BA6 F582              MOV     DPL,A
1BA8 E4                CLR     A
1BA9 3400        E     ADDC    A,#HIGH g_mem+035H
1BAB F583              MOV     DPH,A
1BAD E0                MOVX    A,@DPTR
1BAE F9                MOV     R1,A
1BAF A801              MOV     R0,AR1
1BB1 120000      E     LCALL   ?C?LSHL
1BB4 D082              POP     DPL
1BB6 D083              POP     DPH
1BB8 120000      E     LCALL   ?C?LSTXDATA
                                           ; SOURCE LINE # 871
1BBB AF00        R     MOV     R7,i
1BBD EF                MOV     A,R7
1BBE 25E0              ADD     A,ACC
1BC0 25E0              ADD     A,ACC
1BC2 2400        E     ADD     A,#LOW g_mem+059H
1BC4 F582              MOV     DPL,A
1BC6 E4                CLR     A
1BC7 3400        E     ADDC    A,#HIGH g_mem+059H
1BC9 F583              MOV     DPH,A
1BCB C083              PUSH    DPH
1BCD C082              PUSH    DPL
1BCF 120000      E     LCALL   ?C?LLDXDATA
1BD2 AB00        R     MOV     R3,i
C51 COMPILER V9.51   COMMAND_PROCESSING                                                    02/09/2021 12:42:36 PAGE 115 

1BD4 7400        E     MOV     A,#LOW g_mem+035H
1BD6 2B                ADD     A,R3
1BD7 F582              MOV     DPL,A
1BD9 E4                CLR     A
1BDA 3400        E     ADDC    A,#HIGH g_mem+035H
1BDC F583              MOV     DPH,A
1BDE E0                MOVX    A,@DPTR
1BDF F9                MOV     R1,A
1BE0 A801              MOV     R0,AR1
1BE2 120000      E     LCALL   ?C?LSHL
1BE5 D082              POP     DPL
1BE7 D083              POP     DPH
1BE9 120000      E     LCALL   ?C?LSTXDATA
                                           ; SOURCE LINE # 872
1BEC 0500        R     INC     i
1BEE 020000      R     LJMP    ?C0216
                                           ; SOURCE LINE # 873
                                           ; SOURCE LINE # 876
1BF1         ?C0219:
                                           ; SOURCE LINE # 877
1BF1 900000      E     MOV     DPTR,#g_rx+03H
1BF4 120000      E     LCALL   ?C?LLDXDATA
1BF7 900000      R     MOV     DPTR,#aux_int
1BFA 120000      E     LCALL   ?C?LSTXDATA
                                           ; SOURCE LINE # 878
1BFD 7F00              MOV     R7,#00H
1BFF 7E00              MOV     R6,#00H
1C01 7D00              MOV     R5,#00H
1C03 7C00              MOV     R4,#00H
1C05 900000      R     MOV     DPTR,#aux_int
1C08 120000      E     LCALL   ?C?LLDXDATA0
1C0B D3                SETB    C
1C0C 120000      E     LCALL   ?C?SLCMP
1C0F 500C              JNC     ?C0220
                                           ; SOURCE LINE # 879
1C11 900000      R     MOV     DPTR,#aux_int
1C14 120000      E     LCALL   ?C?LLDXDATA
1C17 900000      E     MOV     DPTR,#g_mem+065H
1C1A 120000      E     LCALL   ?C?LSTXDATA
1C1D         ?C0220:
                                           ; SOURCE LINE # 881
1C1D 900000      E     MOV     DPTR,#g_rx+07H
1C20 120000      E     LCALL   ?C?LLDXDATA
1C23 900000      R     MOV     DPTR,#aux_int
1C26 120000      E     LCALL   ?C?LSTXDATA
                                           ; SOURCE LINE # 882
1C29 7F00              MOV     R7,#00H
1C2B 7E00              MOV     R6,#00H
1C2D 7D00              MOV     R5,#00H
1C2F 7C00              MOV     R4,#00H
1C31 900000      R     MOV     DPTR,#aux_int
1C34 120000      E     LCALL   ?C?LLDXDATA0
1C37 C3                CLR     C
1C38 120000      E     LCALL   ?C?SLCMP
1C3B 5003              JNC     $ + 5H
1C3D 020000      R     LJMP    ?C0245
                                           ; SOURCE LINE # 883
1C40 900000      R     MOV     DPTR,#aux_int
1C43 120000      E     LCALL   ?C?LLDXDATA
1C46 900000      E     MOV     DPTR,#g_mem+061H
1C49 120000      E     LCALL   ?C?LSTXDATA
                                           ; SOURCE LINE # 885
C51 COMPILER V9.51   COMMAND_PROCESSING                                                    02/09/2021 12:42:36 PAGE 116 

1C4C 22                RET     
                                           ; SOURCE LINE # 888
1C4D         ?C0222:
                                           ; SOURCE LINE # 889
1C4D 900000      E     MOV     DPTR,#g_rx+03H
1C50 E0                MOVX    A,@DPTR
1C51 FE                MOV     R6,A
1C52 A3                INC     DPTR
1C53 E0                MOVX    A,@DPTR
1C54 FF                MOV     R7,A
1C55 900000      E     MOV     DPTR,#g_mem+069H
1C58 EE                MOV     A,R6
1C59 F0                MOVX    @DPTR,A
1C5A A3                INC     DPTR
1C5B EF                MOV     A,R7
1C5C F0                MOVX    @DPTR,A
                                           ; SOURCE LINE # 890
1C5D 22                RET     
                                           ; SOURCE LINE # 893
1C5E         ?C0223:
                                           ; SOURCE LINE # 894
1C5E 900000      E     MOV     DPTR,#g_rx+03H
1C61 E0                MOVX    A,@DPTR
1C62 FF                MOV     R7,A
1C63 900000      E     MOV     DPTR,#g_mem+06FH
1C66 EF                MOV     A,R7
1C67 F0                MOVX    @DPTR,A
                                           ; SOURCE LINE # 895
1C68 22                RET     
                                           ; SOURCE LINE # 898
1C69         ?C0224:
                                           ; SOURCE LINE # 899
1C69 900000      E     MOV     DPTR,#g_rx+03H
1C6C E0                MOVX    A,@DPTR
1C6D FE                MOV     R6,A
1C6E A3                INC     DPTR
1C6F E0                MOVX    A,@DPTR
1C70 FF                MOV     R7,A
1C71 900000      E     MOV     DPTR,#g_mem+06BH
1C74 EE                MOV     A,R6
1C75 F0                MOVX    @DPTR,A
1C76 A3                INC     DPTR
1C77 EF                MOV     A,R7
1C78 F0                MOVX    @DPTR,A
                                           ; SOURCE LINE # 900
1C79 900000      E     MOV     DPTR,#g_rx+05H
1C7C E0                MOVX    A,@DPTR
1C7D FE                MOV     R6,A
1C7E A3                INC     DPTR
1C7F E0                MOVX    A,@DPTR
1C80 FF                MOV     R7,A
1C81 900000      E     MOV     DPTR,#g_mem+06DH
1C84 EE                MOV     A,R6
1C85 F0                MOVX    @DPTR,A
1C86 A3                INC     DPTR
1C87 EF                MOV     A,R7
1C88 F0                MOVX    @DPTR,A
                                           ; SOURCE LINE # 901
1C89 22                RET     
                                           ; SOURCE LINE # 904
1C8A         ?C0225:
                                           ; SOURCE LINE # 905
C51 COMPILER V9.51   COMMAND_PROCESSING                                                    02/09/2021 12:42:36 PAGE 117 

1C8A 900000      E     MOV     DPTR,#g_rx+03H
1C8D 120000      E     LCALL   ?C?LLDXDATA
1C90 900000      E     MOV     DPTR,#g_mem+070H
1C93 120000      E     LCALL   ?C?LSTXDATA
                                           ; SOURCE LINE # 906
1C96 900000      E     MOV     DPTR,#g_rx+07H
1C99 120000      E     LCALL   ?C?LLDXDATA
1C9C 900000      E     MOV     DPTR,#g_mem+074H
1C9F 120000      E     LCALL   ?C?LSTXDATA
                                           ; SOURCE LINE # 907
1CA2 22                RET     
                                           ; SOURCE LINE # 910
1CA3         ?C0226:
                                           ; SOURCE LINE # 911
1CA3 900000      E     MOV     DPTR,#g_rx+03H
1CA6 E0                MOVX    A,@DPTR
1CA7 FF                MOV     R7,A
1CA8 900000      E     MOV     DPTR,#g_mem+078H
1CAB EF                MOV     A,R7
1CAC F0                MOVX    @DPTR,A
                                           ; SOURCE LINE # 912
1CAD 22                RET     
                                           ; SOURCE LINE # 915
1CAE         ?C0227:
                                           ; SOURCE LINE # 916
1CAE 900000      E     MOV     DPTR,#g_rx+03H
1CB1 E0                MOVX    A,@DPTR
1CB2 FF                MOV     R7,A
1CB3 900000      R     MOV     DPTR,#aux_uchar
1CB6 EF                MOV     A,R7
1CB7 F0                MOVX    @DPTR,A
                                           ; SOURCE LINE # 917
1CB8 900000      R     MOV     DPTR,#aux_uchar
1CBB E0                MOVX    A,@DPTR
1CBC FF                MOV     R7,A
1CBD EF                MOV     A,R7
1CBE 6007              JZ      ?C0228
                                           ; SOURCE LINE # 918
1CC0 900000      E     MOV     DPTR,#g_mem+079H
1CC3 7401              MOV     A,#01H
1CC5 F0                MOVX    @DPTR,A
                                           ; SOURCE LINE # 919
1CC6 22                RET     
1CC7         ?C0228:
                                           ; SOURCE LINE # 920
1CC7 900000      E     MOV     DPTR,#g_mem+079H
1CCA E4                CLR     A
1CCB F0                MOVX    @DPTR,A
                                           ; SOURCE LINE # 921
                                           ; SOURCE LINE # 922
1CCC 22                RET     
                                           ; SOURCE LINE # 925
1CCD         ?C0230:
                                           ; SOURCE LINE # 926
1CCD 900000      E     MOV     DPTR,#g_rx+03H
1CD0 E0                MOVX    A,@DPTR
1CD1 FF                MOV     R7,A
1CD2 900000      E     MOV     DPTR,#g_mem+07AH
1CD5 EF                MOV     A,R7
1CD6 F0                MOVX    @DPTR,A
                                           ; SOURCE LINE # 927
1CD7 22                RET     
C51 COMPILER V9.51   COMMAND_PROCESSING                                                    02/09/2021 12:42:36 PAGE 118 

                                           ; SOURCE LINE # 930
1CD8         ?C0231:
                                           ; SOURCE LINE # 931
1CD8 900000      E     MOV     DPTR,#g_rx+03H
1CDB E0                MOVX    A,@DPTR
1CDC FF                MOV     R7,A
1CDD 900000      E     MOV     DPTR,#g_mem+07BH
1CE0 EF                MOV     A,R7
1CE1 F0                MOVX    @DPTR,A
                                           ; SOURCE LINE # 932
1CE2 22                RET     
                                           ; SOURCE LINE # 934
1CE3         ?C0232:
                                           ; SOURCE LINE # 935
1CE3 900000      E     MOV     DPTR,#g_rx+03H
1CE6 120000      E     LCALL   ?C?LLDXDATA
1CE9 900000      E     MOV     DPTR,#g_mem+096H
1CEC 120000      E     LCALL   ?C?LSTXDATA
                                           ; SOURCE LINE # 936
1CEF 900000      E     MOV     DPTR,#g_mem+096H
1CF2 120000      E     LCALL   ?C?LLDXDATA
1CF5 900000      E     MOV     DPTR,#g_mem+035H
1CF8 E0                MOVX    A,@DPTR
1CF9 F9                MOV     R1,A
1CFA A801              MOV     R0,AR1
1CFC 120000      E     LCALL   ?C?LSHL
1CFF 900000      E     MOV     DPTR,#g_mem+096H
1D02 120000      E     LCALL   ?C?LSTXDATA
                                           ; SOURCE LINE # 937
1D05 22                RET     
                                           ; SOURCE LINE # 939
1D06         ?C0233:
                                           ; SOURCE LINE # 940
1D06 900000      E     MOV     DPTR,#g_rx+03H
1D09 120000      E     LCALL   ?C?LLDXDATA
1D0C 900000      E     MOV     DPTR,#g_mem+09AH
1D0F 120000      E     LCALL   ?C?LSTXDATA
                                           ; SOURCE LINE # 941
1D12 7F0A              MOV     R7,#0AH
1D14 7E00              MOV     R6,#00H
1D16 7D00              MOV     R5,#00H
1D18 7C00              MOV     R4,#00H
1D1A 900000      E     MOV     DPTR,#g_mem+09AH
1D1D 120000      E     LCALL   ?C?LLDXDATA0
1D20 C3                CLR     C
1D21 120000      E     LCALL   ?C?SLCMP
1D24 4003              JC      $ + 5H
1D26 020000      R     LJMP    ?C0245
1D29 7F0A              MOV     R7,#0AH
1D2B 7E00              MOV     R6,#00H
1D2D 7D00              MOV     R5,#00H
1D2F 7C00              MOV     R4,#00H
1D31 900000      E     MOV     DPTR,#g_mem+09AH
1D34 120000      E     LCALL   ?C?LSTXDATA
                                           ; SOURCE LINE # 942
1D37 22                RET     
                                           ; SOURCE LINE # 944
1D38         ?C0235:
                                           ; SOURCE LINE # 945
1D38 900000      E     MOV     DPTR,#g_rx+03H
1D3B 120000      E     LCALL   ?C?LLDXDATA
1D3E 900000      E     MOV     DPTR,#g_mem+09EH
C51 COMPILER V9.51   COMMAND_PROCESSING                                                    02/09/2021 12:42:36 PAGE 119 

1D41 120000      E     LCALL   ?C?LSTXDATA
                                           ; SOURCE LINE # 946
1D44 22                RET     
                                           ; SOURCE LINE # 948
1D45         ?C0236:
                                           ; SOURCE LINE # 949
1D45 750000      R     MOV     i,#00H
1D48         ?C0237:
1D48 E500        R     MOV     A,i
1D4A C3                CLR     C
1D4B 9406              SUBB    A,#06H
1D4D 5074              JNC     ?C0245
                                           ; SOURCE LINE # 950
1D4F AF00        R     MOV     R7,i
1D51 EF                MOV     A,R7
1D52 25E0              ADD     A,ACC
1D54 25E0              ADD     A,ACC
1D56 2400        E     ADD     A,#LOW g_rx+03H
1D58 F582              MOV     DPL,A
1D5A E4                CLR     A
1D5B 3400        E     ADDC    A,#HIGH g_rx+03H
1D5D F583              MOV     DPH,A
1D5F 120000      E     LCALL   ?C?LLDXDATA
1D62 AB00        R     MOV     R3,i
1D64 EB                MOV     A,R3
1D65 25E0              ADD     A,ACC
1D67 25E0              ADD     A,ACC
1D69 2400        E     ADD     A,#LOW g_mem+07CH
1D6B F582              MOV     DPL,A
1D6D E4                CLR     A
1D6E 3400        E     ADDC    A,#HIGH g_mem+07CH
1D70 F583              MOV     DPH,A
1D72 120000      E     LCALL   ?C?LSTXDATA
1D75 0500        R     INC     i
1D77 80CF              SJMP    ?C0237
                                           ; SOURCE LINE # 951
                                           ; SOURCE LINE # 953
1D79         ?C0240:
                                           ; SOURCE LINE # 954
1D79 900000      E     MOV     DPTR,#g_rx+03H
1D7C E0                MOVX    A,@DPTR
1D7D FF                MOV     R7,A
1D7E 900000      E     MOV     DPTR,#g_mem+0A6H
1D81 EF                MOV     A,R7
1D82 F0                MOVX    @DPTR,A
                                           ; SOURCE LINE # 955
1D83 22                RET     
                                           ; SOURCE LINE # 957
1D84         ?C0241:
                                           ; SOURCE LINE # 958
1D84 900000      E     MOV     DPTR,#g_rx+03H
1D87 E0                MOVX    A,@DPTR
1D88 FF                MOV     R7,A
1D89 900000      E     MOV     DPTR,#g_mem+0A5H
1D8C EF                MOV     A,R7
1D8D F0                MOVX    @DPTR,A
                                           ; SOURCE LINE # 959
1D8E 22                RET     
                                           ; SOURCE LINE # 961
1D8F         ?C0242:
                                           ; SOURCE LINE # 962
1D8F 900000      E     MOV     DPTR,#g_rx+03H
C51 COMPILER V9.51   COMMAND_PROCESSING                                                    02/09/2021 12:42:36 PAGE 120 

1D92 E0                MOVX    A,@DPTR
1D93 FF                MOV     R7,A
1D94 900000      R     MOV     DPTR,#aux_uchar
1D97 EF                MOV     A,R7
1D98 F0                MOVX    @DPTR,A
                                           ; SOURCE LINE # 963
1D99 900000      R     MOV     DPTR,#aux_uchar
1D9C E0                MOVX    A,@DPTR
1D9D FF                MOV     R7,A
1D9E EF                MOV     A,R7
1D9F 6022              JZ      ?C0245
                                           ; SOURCE LINE # 964
1DA1 120000      E     LCALL   reset_counters
                                           ; SOURCE LINE # 965
                                           ; SOURCE LINE # 966
1DA4 22                RET     
                                           ; SOURCE LINE # 968
1DA5         ?C0244:
                                           ; SOURCE LINE # 969
1DA5 900000      E     MOV     DPTR,#g_rx+03H
1DA8 E0                MOVX    A,@DPTR
1DA9 FF                MOV     R7,A
1DAA 900000      E     MOV     DPTR,#g_mem+0A2H
1DAD EF                MOV     A,R7
1DAE F0                MOVX    @DPTR,A
                                           ; SOURCE LINE # 970
1DAF 900000      E     MOV     DPTR,#g_rx+04H
1DB2 E0                MOVX    A,@DPTR
1DB3 FF                MOV     R7,A
1DB4 900000      E     MOV     DPTR,#g_mem+0A3H
1DB7 EF                MOV     A,R7
1DB8 F0                MOVX    @DPTR,A
                                           ; SOURCE LINE # 971
1DB9 900000      E     MOV     DPTR,#g_rx+05H
1DBC E0                MOVX    A,@DPTR
1DBD FF                MOV     R7,A
1DBE 900000      E     MOV     DPTR,#g_mem+0A4H
1DC1 EF                MOV     A,R7
1DC2 F0                MOVX    @DPTR,A
                                           ; SOURCE LINE # 972
                                           ; SOURCE LINE # 973
                                           ; SOURCE LINE # 974
1DC3         ?C0245:
1DC3 22                RET     
             ; FUNCTION _get_param_list (END)

             ; FUNCTION setZeros (BEGIN)
                                           ; SOURCE LINE # 980
                                           ; SOURCE LINE # 981
                                           ; SOURCE LINE # 984
0000 750000      R     MOV     i,#00H
0003         ?C0246:
0003 E500        R     MOV     A,i
0005 C3                CLR     C
0006 9403              SUBB    A,#03H
0008 506F              JNC     ?C0247
                                           ; SOURCE LINE # 985
000A AF00        R     MOV     R7,i
000C EF                MOV     A,R7
000D 25E0              ADD     A,ACC
000F 2400        E     ADD     A,#LOW g_rx+01H
0011 F582              MOV     DPL,A
C51 COMPILER V9.51   COMMAND_PROCESSING                                                    02/09/2021 12:42:36 PAGE 121 

0013 E4                CLR     A
0014 3400        E     ADDC    A,#HIGH g_rx+01H
0016 F583              MOV     DPH,A
0018 E0                MOVX    A,@DPTR
0019 FE                MOV     R6,A
001A A3                INC     DPTR
001B E0                MOVX    A,@DPTR
001C FF                MOV     R7,A
001D EE                MOV     A,R6
001E 33                RLC     A
001F 95E0              SUBB    A,ACC
0021 FD                MOV     R5,A
0022 FC                MOV     R4,A
0023 AB00        R     MOV     R3,i
0025 EB                MOV     A,R3
0026 25E0              ADD     A,ACC
0028 25E0              ADD     A,ACC
002A 2400        E     ADD     A,#LOW g_mem+038H
002C F582              MOV     DPL,A
002E E4                CLR     A
002F 3400        E     ADDC    A,#HIGH g_mem+038H
0031 F583              MOV     DPH,A
0033 120000      E     LCALL   ?C?LSTXDATA
                                           ; SOURCE LINE # 986
0036 AF00        R     MOV     R7,i
0038 EF                MOV     A,R7
0039 25E0              ADD     A,ACC
003B 25E0              ADD     A,ACC
003D 2400        E     ADD     A,#LOW g_mem+038H
003F F582              MOV     DPL,A
0041 E4                CLR     A
0042 3400        E     ADDC    A,#HIGH g_mem+038H
0044 F583              MOV     DPH,A
0046 C083              PUSH    DPH
0048 C082              PUSH    DPL
004A 120000      E     LCALL   ?C?LLDXDATA
004D AB00        R     MOV     R3,i
004F 7400        E     MOV     A,#LOW g_mem+035H
0051 2B                ADD     A,R3
0052 F582              MOV     DPL,A
0054 E4                CLR     A
0055 3400        E     ADDC    A,#HIGH g_mem+035H
0057 F583              MOV     DPH,A
0059 E0                MOVX    A,@DPTR
005A F9                MOV     R1,A
005B A801              MOV     R0,AR1
005D 120000      E     LCALL   ?C?LSHL
0060 D082              POP     DPL
0062 D083              POP     DPH
0064 120000      E     LCALL   ?C?LSTXDATA
                                           ; SOURCE LINE # 988
0067 AF00        R     MOV     R7,i
0069 7400        E     MOV     A,#LOW g_meas+014H
006B 2F                ADD     A,R7
006C F582              MOV     DPL,A
006E E4                CLR     A
006F 3400        E     ADDC    A,#HIGH g_meas+014H
0071 F583              MOV     DPH,A
0073 E4                CLR     A
0074 F0                MOVX    @DPTR,A
                                           ; SOURCE LINE # 989
0075 0500        R     INC     i
C51 COMPILER V9.51   COMMAND_PROCESSING                                                    02/09/2021 12:42:36 PAGE 122 

0077 808A              SJMP    ?C0246
0079         ?C0247:
                                           ; SOURCE LINE # 990
0079 D200        E     SETB    reset_last_value_flag
                                           ; SOURCE LINE # 992
007B 7F01              MOV     R7,#01H
007D 120000      R     LCALL   _sendAcknowledgment
                                           ; SOURCE LINE # 993
0080 22                RET     
             ; FUNCTION setZeros (END)

             ; FUNCTION _prepare_generic_info (BEGIN)
                                           ; SOURCE LINE # 999
0000 900000      R     MOV     DPTR,#info_string
0003 120000      E     LCALL   ?C?PSTXDATA
                                           ; SOURCE LINE # 1000
                                           ; SOURCE LINE # 1003
0006 900000      E     MOV     DPTR,#c_mem+01H
0009 E0                MOVX    A,@DPTR
000A FF                MOV     R7,A
000B EF                MOV     A,R7
000C 64FA              XRL     A,#0FAH
000E 7003              JNZ     $ + 5H
0010 020000      R     LJMP    ?C0305
                                           ; SOURCE LINE # 1005
0013 7BFF              MOV     R3,#0FFH
0015 7A00        R     MOV     R2,#HIGH ?SC_141
0017 7900        R     MOV     R1,#LOW ?SC_141
0019 C003              PUSH    AR3
001B C002              PUSH    AR2
001D C001              PUSH    AR1
001F 900000      R     MOV     DPTR,#info_string
0022 120000      E     LCALL   ?C?PLDXDATA
0025 A801              MOV     R0,AR1
0027 AC02              MOV     R4,AR2
0029 AD03              MOV     R5,AR3
002B D001              POP     AR1
002D D002              POP     AR2
002F D003              POP     AR3
0031 120000      E     LCALL   ?C?STRCPYAMD
                                           ; SOURCE LINE # 1006
0034 900000      R     MOV     DPTR,#info_string
0037 120000      E     LCALL   ?C?PLDXDATA
003A C003              PUSH    AR3
003C C002              PUSH    AR2
003E C001              PUSH    AR1
0040 7BFF              MOV     R3,#0FFH
0042 7A00        R     MOV     R2,#HIGH ?SC_142
0044 7900        R     MOV     R1,#LOW ?SC_142
0046 900000      E     MOV     DPTR,#?_strcat?BYTE+03H
0049 120000      E     LCALL   ?C?PSTXDATA
004C D001              POP     AR1
004E D002              POP     AR2
0050 D003              POP     AR3
0052 120000      E     LCALL   _strcat
                                           ; SOURCE LINE # 1007
0055 900000      R     MOV     DPTR,#info_string
0058 120000      E     LCALL   ?C?PLDXDATA
005B C003              PUSH    AR3
005D C002              PUSH    AR2
005F C001              PUSH    AR1
0061 7BFF              MOV     R3,#0FFH
C51 COMPILER V9.51   COMMAND_PROCESSING                                                    02/09/2021 12:42:36 PAGE 123 

0063 7A00        R     MOV     R2,#HIGH ?SC_145
0065 7900        R     MOV     R1,#LOW ?SC_145
0067 900000      E     MOV     DPTR,#?_strcat?BYTE+03H
006A 120000      E     LCALL   ?C?PSTXDATA
006D D001              POP     AR1
006F D002              POP     AR2
0071 D003              POP     AR3
0073 120000      E     LCALL   _strcat
                                           ; SOURCE LINE # 1008
0076 900000      R     MOV     DPTR,#info_string
0079 120000      E     LCALL   ?C?PLDXDATA
007C C003              PUSH    AR3
007E C002              PUSH    AR2
0080 C001              PUSH    AR1
0082 7BFF              MOV     R3,#0FFH
0084 7A00        R     MOV     R2,#HIGH ?SC_164
0086 7900        R     MOV     R1,#LOW ?SC_164
0088 900000      E     MOV     DPTR,#?_strcat?BYTE+03H
008B 120000      E     LCALL   ?C?PSTXDATA
008E D001              POP     AR1
0090 D002              POP     AR2
0092 D003              POP     AR3
0094 120000      E     LCALL   _strcat
                                           ; SOURCE LINE # 1009
0097 900000      R     MOV     DPTR,#info_string
009A 120000      E     LCALL   ?C?PLDXDATA
009D C003              PUSH    AR3
009F C002              PUSH    AR2
00A1 C001              PUSH    AR1
00A3 7BFF              MOV     R3,#0FFH
00A5 7A00        R     MOV     R2,#HIGH ?SC_204
00A7 7900        R     MOV     R1,#LOW ?SC_204
00A9 900000      E     MOV     DPTR,#?_strcat?BYTE+03H
00AC 120000      E     LCALL   ?C?PSTXDATA
00AF D001              POP     AR1
00B1 D002              POP     AR2
00B3 D003              POP     AR3
00B5 120000      E     LCALL   _strcat
                                           ; SOURCE LINE # 1011
00B8 900000      R     MOV     DPTR,#info_string
00BB 120000      E     LCALL   ?C?PLDXDATA
00BE C003              PUSH    AR3
00C0 C002              PUSH    AR2
00C2 C001              PUSH    AR1
00C4 7BFF              MOV     R3,#0FFH
00C6 7A00        R     MOV     R2,#HIGH ?SC_210
00C8 7900        R     MOV     R1,#LOW ?SC_210
00CA 900000      E     MOV     DPTR,#?_strcat?BYTE+03H
00CD 120000      E     LCALL   ?C?PSTXDATA
00D0 D001              POP     AR1
00D2 D002              POP     AR2
00D4 D003              POP     AR3
00D6 120000      E     LCALL   _strcat
                                           ; SOURCE LINE # 1012
00D9 7B01              MOV     R3,#01H
00DB 7A00        R     MOV     R2,#HIGH str
00DD 7900        R     MOV     R1,#LOW str
00DF C003              PUSH    AR3
00E1 C002              PUSH    AR2
00E3 C001              PUSH    AR1
00E5 7BFF              MOV     R3,#0FFH
00E7 7A00        R     MOV     R2,#HIGH ?SC_224
C51 COMPILER V9.51   COMMAND_PROCESSING                                                    02/09/2021 12:42:36 PAGE 124 

00E9 7900        R     MOV     R1,#LOW ?SC_224
00EB 900000      E     MOV     DPTR,#?_sprintf?BYTE+03H
00EE 120000      E     LCALL   ?C?PSTXDATA
00F1 900000      E     MOV     DPTR,#c_mem+01H
00F4 E0                MOVX    A,@DPTR
00F5 FF                MOV     R7,A
00F6 7E00              MOV     R6,#00H
00F8 900000      E     MOV     DPTR,#?_sprintf?BYTE+06H
00FB EE                MOV     A,R6
00FC F0                MOVX    @DPTR,A
00FD A3                INC     DPTR
00FE EF                MOV     A,R7
00FF F0                MOVX    @DPTR,A
0100 D001              POP     AR1
0102 D002              POP     AR2
0104 D003              POP     AR3
0106 120000      E     LCALL   _sprintf
                                           ; SOURCE LINE # 1013
0109 900000      R     MOV     DPTR,#info_string
010C 120000      E     LCALL   ?C?PLDXDATA
010F C003              PUSH    AR3
0111 C002              PUSH    AR2
0113 C001              PUSH    AR1
0115 7B01              MOV     R3,#01H
0117 7A00        R     MOV     R2,#HIGH str
0119 7900        R     MOV     R1,#LOW str
011B 900000      E     MOV     DPTR,#?_strcat?BYTE+03H
011E 120000      E     LCALL   ?C?PSTXDATA
0121 D001              POP     AR1
0123 D002              POP     AR2
0125 D003              POP     AR3
0127 120000      E     LCALL   _strcat
                                           ; SOURCE LINE # 1014
012A 900000      R     MOV     DPTR,#info_string
012D 120000      E     LCALL   ?C?PLDXDATA
0130 C003              PUSH    AR3
0132 C002              PUSH    AR2
0134 C001              PUSH    AR1
0136 7BFF              MOV     R3,#0FFH
0138 7A00        R     MOV     R2,#HIGH ?SC_233
013A 7900        R     MOV     R1,#LOW ?SC_233
013C 900000      E     MOV     DPTR,#?_strcat?BYTE+03H
013F 120000      E     LCALL   ?C?PSTXDATA
0142 D001              POP     AR1
0144 D002              POP     AR2
0146 D003              POP     AR3
0148 120000      E     LCALL   _strcat
                                           ; SOURCE LINE # 1015
014B 900000      E     MOV     DPTR,#c_mem+07BH
014E E0                MOVX    A,@DPTR
014F FF                MOV     R7,A
0150 EF                MOV     A,R7
0151 B40123            CJNE    A,#01H,?C0251
                                           ; SOURCE LINE # 1016
0154 900000      R     MOV     DPTR,#info_string
0157 120000      E     LCALL   ?C?PLDXDATA
015A C003              PUSH    AR3
015C C002              PUSH    AR2
015E C001              PUSH    AR1
0160 7BFF              MOV     R3,#0FFH
0162 7A00        R     MOV     R2,#HIGH ?SC_260
0164 7900        R     MOV     R1,#LOW ?SC_260
C51 COMPILER V9.51   COMMAND_PROCESSING                                                    02/09/2021 12:42:36 PAGE 125 

0166 900000      E     MOV     DPTR,#?_strcat?BYTE+03H
0169 120000      E     LCALL   ?C?PSTXDATA
016C D001              POP     AR1
016E D002              POP     AR2
0170 D003              POP     AR3
0172 120000      E     LCALL   _strcat
0175 8021              SJMP    ?C0252
0177         ?C0251:
                                           ; SOURCE LINE # 1018
0177 900000      R     MOV     DPTR,#info_string
017A 120000      E     LCALL   ?C?PLDXDATA
017D C003              PUSH    AR3
017F C002              PUSH    AR2
0181 C001              PUSH    AR1
0183 7BFF              MOV     R3,#0FFH
0185 7A00        R     MOV     R2,#HIGH ?SC_265
0187 7900        R     MOV     R1,#LOW ?SC_265
0189 900000      E     MOV     DPTR,#?_strcat?BYTE+03H
018C 120000      E     LCALL   ?C?PSTXDATA
018F D001              POP     AR1
0191 D002              POP     AR2
0193 D003              POP     AR3
0195 120000      E     LCALL   _strcat
0198         ?C0252:
                                           ; SOURCE LINE # 1020
0198 7B01              MOV     R3,#01H
019A 7A00        R     MOV     R2,#HIGH str
019C 7900        R     MOV     R1,#LOW str
019E C003              PUSH    AR3
01A0 C002              PUSH    AR2
01A2 C001              PUSH    AR1
01A4 7BFF              MOV     R3,#0FFH
01A6 7A00        R     MOV     R2,#HIGH ?SC_269
01A8 7900        R     MOV     R1,#LOW ?SC_269
01AA 900000      E     MOV     DPTR,#?_sprintf?BYTE+03H
01AD 120000      E     LCALL   ?C?PSTXDATA
01B0 900000      E     MOV     DPTR,#dev_pwm_limit
01B3 E0                MOVX    A,@DPTR
01B4 FF                MOV     R7,A
01B5 7E00              MOV     R6,#00H
01B7 900000      E     MOV     DPTR,#?_sprintf?BYTE+06H
01BA EE                MOV     A,R6
01BB F0                MOVX    @DPTR,A
01BC A3                INC     DPTR
01BD EF                MOV     A,R7
01BE F0                MOVX    @DPTR,A
01BF D001              POP     AR1
01C1 D002              POP     AR2
01C3 D003              POP     AR3
01C5 120000      E     LCALL   _sprintf
                                           ; SOURCE LINE # 1021
01C8 900000      R     MOV     DPTR,#info_string
01CB 120000      E     LCALL   ?C?PLDXDATA
01CE C003              PUSH    AR3
01D0 C002              PUSH    AR2
01D2 C001              PUSH    AR1
01D4 7B01              MOV     R3,#01H
01D6 7A00        R     MOV     R2,#HIGH str
01D8 7900        R     MOV     R1,#LOW str
01DA 900000      E     MOV     DPTR,#?_strcat?BYTE+03H
01DD 120000      E     LCALL   ?C?PSTXDATA
01E0 D001              POP     AR1
C51 COMPILER V9.51   COMMAND_PROCESSING                                                    02/09/2021 12:42:36 PAGE 126 

01E2 D002              POP     AR2
01E4 D003              POP     AR3
01E6 120000      E     LCALL   _strcat
                                           ; SOURCE LINE # 1022
01E9 900000      R     MOV     DPTR,#info_string
01EC 120000      E     LCALL   ?C?PLDXDATA
01EF C003              PUSH    AR3
01F1 C002              PUSH    AR2
01F3 C001              PUSH    AR1
01F5 7BFF              MOV     R3,#0FFH
01F7 7A00        R     MOV     R2,#HIGH ?SC_142
01F9 7900        R     MOV     R1,#LOW ?SC_142
01FB 900000      E     MOV     DPTR,#?_strcat?BYTE+03H
01FE 120000      E     LCALL   ?C?PSTXDATA
0201 D001              POP     AR1
0203 D002              POP     AR2
0205 D003              POP     AR3
0207 120000      E     LCALL   _strcat
                                           ; SOURCE LINE # 1024
020A 900000      R     MOV     DPTR,#info_string
020D 120000      E     LCALL   ?C?PLDXDATA
0210 C003              PUSH    AR3
0212 C002              PUSH    AR2
0214 C001              PUSH    AR1
0216 7BFF              MOV     R3,#0FFH
0218 7A00        R     MOV     R2,#HIGH ?SC_285
021A 7900        R     MOV     R1,#LOW ?SC_285
021C 900000      E     MOV     DPTR,#?_strcat?BYTE+03H
021F 120000      E     LCALL   ?C?PSTXDATA
0222 D001              POP     AR1
0224 D002              POP     AR2
0226 D003              POP     AR3
0228 120000      E     LCALL   _strcat
                                           ; SOURCE LINE # 1025
022B 900000      R     MOV     DPTR,#info_string
022E 120000      E     LCALL   ?C?PLDXDATA
0231 C003              PUSH    AR3
0233 C002              PUSH    AR2
0235 C001              PUSH    AR1
0237 7BFF              MOV     R3,#0FFH
0239 7A00        R     MOV     R2,#HIGH ?SC_298
023B 7900        R     MOV     R1,#LOW ?SC_298
023D 900000      E     MOV     DPTR,#?_strcat?BYTE+03H
0240 120000      E     LCALL   ?C?PSTXDATA
0243 D001              POP     AR1
0245 D002              POP     AR2
0247 D003              POP     AR3
0249 120000      E     LCALL   _strcat
                                           ; SOURCE LINE # 1027
024C 900000      E     MOV     DPTR,#g_mem+034H
024F E0                MOVX    A,@DPTR
0250 FF                MOV     R7,A
0251 EF                MOV     A,R7
0252 B40223            CJNE    A,#02H,?C0253
                                           ; SOURCE LINE # 1028
0255 900000      R     MOV     DPTR,#info_string
0258 120000      E     LCALL   ?C?PLDXDATA
025B C003              PUSH    AR3
025D C002              PUSH    AR2
025F C001              PUSH    AR1
0261 7BFF              MOV     R3,#0FFH
0263 7A00        R     MOV     R2,#HIGH ?SC_314
C51 COMPILER V9.51   COMMAND_PROCESSING                                                    02/09/2021 12:42:36 PAGE 127 

0265 7900        R     MOV     R1,#LOW ?SC_314
0267 900000      E     MOV     DPTR,#?_strcat?BYTE+03H
026A 120000      E     LCALL   ?C?PSTXDATA
026D D001              POP     AR1
026F D002              POP     AR2
0271 D003              POP     AR3
0273 120000      E     LCALL   _strcat
0276 804D              SJMP    ?C0254
0278         ?C0253:
                                           ; SOURCE LINE # 1029
                                           ; SOURCE LINE # 1030
0278 900000      E     MOV     DPTR,#g_mem+034H
027B E0                MOVX    A,@DPTR
027C FF                MOV     R7,A
027D EF                MOV     A,R7
027E B40123            CJNE    A,#01H,?C0255
                                           ; SOURCE LINE # 1031
0281 900000      R     MOV     DPTR,#info_string
0284 120000      E     LCALL   ?C?PLDXDATA
0287 C003              PUSH    AR3
0289 C002              PUSH    AR2
028B C001              PUSH    AR1
028D 7BFF              MOV     R3,#0FFH
028F 7A00        R     MOV     R2,#HIGH ?SC_328
0291 7900        R     MOV     R1,#LOW ?SC_328
0293 900000      E     MOV     DPTR,#?_strcat?BYTE+03H
0296 120000      E     LCALL   ?C?PSTXDATA
0299 D001              POP     AR1
029B D002              POP     AR2
029D D003              POP     AR3
029F 120000      E     LCALL   _strcat
02A2 8021              SJMP    ?C0254
02A4         ?C0255:
                                           ; SOURCE LINE # 1033
02A4 900000      R     MOV     DPTR,#info_string
02A7 120000      E     LCALL   ?C?PLDXDATA
02AA C003              PUSH    AR3
02AC C002              PUSH    AR2
02AE C001              PUSH    AR1
02B0 7BFF              MOV     R3,#0FFH
02B2 7A00        R     MOV     R2,#HIGH ?SC_337
02B4 7900        R     MOV     R1,#LOW ?SC_337
02B6 900000      E     MOV     DPTR,#?_strcat?BYTE+03H
02B9 120000      E     LCALL   ?C?PSTXDATA
02BC D001              POP     AR1
02BE D002              POP     AR2
02C0 D003              POP     AR3
02C2 120000      E     LCALL   _strcat
                                           ; SOURCE LINE # 1034
02C5         ?C0254:
                                           ; SOURCE LINE # 1036
02C5 900000      R     MOV     DPTR,#i
02C8 E4                CLR     A
02C9 F0                MOVX    @DPTR,A
02CA A3                INC     DPTR
02CB E4                CLR     A
02CC F0                MOVX    @DPTR,A
02CD         ?C0257:
02CD 900000      R     MOV     DPTR,#i
02D0 E0                MOVX    A,@DPTR
02D1 FE                MOV     R6,A
02D2 A3                INC     DPTR
C51 COMPILER V9.51   COMMAND_PROCESSING                                                    02/09/2021 12:42:36 PAGE 128 

02D3 E0                MOVX    A,@DPTR
02D4 FF                MOV     R7,A
02D5 C3                CLR     C
02D6 EF                MOV     A,R7
02D7 9402              SUBB    A,#02H
02D9 EE                MOV     A,R6
02DA 6480              XRL     A,#080H
02DC 9480              SUBB    A,#080H
02DE 4003              JC      $ + 5H
02E0 020000      R     LJMP    ?C0258
                                           ; SOURCE LINE # 1037
02E3 900000      E     MOV     DPTR,#g_mem+034H
02E6 E0                MOVX    A,@DPTR
02E7 FF                MOV     R7,A
02E8 EF                MOV     A,R7
02E9 6402              XRL     A,#02H
02EB 706D              JNZ     ?C0260
                                           ; SOURCE LINE # 1038
02ED 7B01              MOV     R3,#01H
02EF 7A00        R     MOV     R2,#HIGH str
02F1 7900        R     MOV     R1,#LOW str
02F3 C003              PUSH    AR3
02F5 C002              PUSH    AR2
02F7 C001              PUSH    AR1
02F9 7BFF              MOV     R3,#0FFH
02FB 7A00        R     MOV     R2,#HIGH ?SC_351
02FD 7900        R     MOV     R1,#LOW ?SC_351
02FF 900000      E     MOV     DPTR,#?_sprintf?BYTE+03H
0302 120000      E     LCALL   ?C?PSTXDATA
0305 900000      R     MOV     DPTR,#i
0308 E0                MOVX    A,@DPTR
0309 FE                MOV     R6,A
030A A3                INC     DPTR
030B E0                MOVX    A,@DPTR
030C FF                MOV     R7,A
030D EF                MOV     A,R7
030E 7802              MOV     R0,#02H
0310         ?C0429:
0310 C3                CLR     C
0311 33                RLC     A
0312 CE                XCH     A,R6
0313 33                RLC     A
0314 CE                XCH     A,R6
0315 D8F9              DJNZ    R0,?C0429
0317 FF                MOV     R7,A
0318 7400        E     MOV     A,#LOW g_ref+08H
031A 2F                ADD     A,R7
031B F582              MOV     DPL,A
031D 7400        E     MOV     A,#HIGH g_ref+08H
031F 3E                ADDC    A,R6
0320 F583              MOV     DPH,A
0322 120000      E     LCALL   ?C?LLDXDATA
0325 900000      E     MOV     DPTR,#?_sprintf?BYTE+06H
0328 EE                MOV     A,R6
0329 F0                MOVX    @DPTR,A
032A A3                INC     DPTR
032B EF                MOV     A,R7
032C F0                MOVX    @DPTR,A
032D D001              POP     AR1
032F D002              POP     AR2
0331 D003              POP     AR3
0333 120000      E     LCALL   _sprintf
C51 COMPILER V9.51   COMMAND_PROCESSING                                                    02/09/2021 12:42:36 PAGE 129 

                                           ; SOURCE LINE # 1039
0336 900000      R     MOV     DPTR,#info_string
0339 120000      E     LCALL   ?C?PLDXDATA
033C C003              PUSH    AR3
033E C002              PUSH    AR2
0340 C001              PUSH    AR1
0342 7B01              MOV     R3,#01H
0344 7A00        R     MOV     R2,#HIGH str
0346 7900        R     MOV     R1,#LOW str
0348 900000      E     MOV     DPTR,#?_strcat?BYTE+03H
034B 120000      E     LCALL   ?C?PSTXDATA
034E D001              POP     AR1
0350 D002              POP     AR2
0352 D003              POP     AR3
0354 120000      E     LCALL   _strcat
                                           ; SOURCE LINE # 1040
0357 020000      R     LJMP    ?C0259
035A         ?C0260:
                                           ; SOURCE LINE # 1041
                                           ; SOURCE LINE # 1042
035A 900000      E     MOV     DPTR,#g_mem+034H
035D E0                MOVX    A,@DPTR
035E FF                MOV     R7,A
035F EF                MOV     A,R7
0360 6401              XRL     A,#01H
0362 706D              JNZ     ?C0262
                                           ; SOURCE LINE # 1043
0364 7B01              MOV     R3,#01H
0366 7A00        R     MOV     R2,#HIGH str
0368 7900        R     MOV     R1,#LOW str
036A C003              PUSH    AR3
036C C002              PUSH    AR2
036E C001              PUSH    AR1
0370 7BFF              MOV     R3,#0FFH
0372 7A00        R     MOV     R2,#HIGH ?SC_351
0374 7900        R     MOV     R1,#LOW ?SC_351
0376 900000      E     MOV     DPTR,#?_sprintf?BYTE+03H
0379 120000      E     LCALL   ?C?PSTXDATA
037C 900000      R     MOV     DPTR,#i
037F E0                MOVX    A,@DPTR
0380 FE                MOV     R6,A
0381 A3                INC     DPTR
0382 E0                MOVX    A,@DPTR
0383 FF                MOV     R7,A
0384 EF                MOV     A,R7
0385 7802              MOV     R0,#02H
0387         ?C0430:
0387 C3                CLR     C
0388 33                RLC     A
0389 CE                XCH     A,R6
038A 33                RLC     A
038B CE                XCH     A,R6
038C D8F9              DJNZ    R0,?C0430
038E FF                MOV     R7,A
038F 7400        E     MOV     A,#LOW g_ref+010H
0391 2F                ADD     A,R7
0392 F582              MOV     DPL,A
0394 7400        E     MOV     A,#HIGH g_ref+010H
0396 3E                ADDC    A,R6
0397 F583              MOV     DPH,A
0399 120000      E     LCALL   ?C?LLDXDATA
039C 900000      E     MOV     DPTR,#?_sprintf?BYTE+06H
C51 COMPILER V9.51   COMMAND_PROCESSING                                                    02/09/2021 12:42:36 PAGE 130 

039F EE                MOV     A,R6
03A0 F0                MOVX    @DPTR,A
03A1 A3                INC     DPTR
03A2 EF                MOV     A,R7
03A3 F0                MOVX    @DPTR,A
03A4 D001              POP     AR1
03A6 D002              POP     AR2
03A8 D003              POP     AR3
03AA 120000      E     LCALL   _sprintf
                                           ; SOURCE LINE # 1044
03AD 900000      R     MOV     DPTR,#info_string
03B0 120000      E     LCALL   ?C?PLDXDATA
03B3 C003              PUSH    AR3
03B5 C002              PUSH    AR2
03B7 C001              PUSH    AR1
03B9 7B01              MOV     R3,#01H
03BB 7A00        R     MOV     R2,#HIGH str
03BD 7900        R     MOV     R1,#LOW str
03BF 900000      E     MOV     DPTR,#?_strcat?BYTE+03H
03C2 120000      E     LCALL   ?C?PSTXDATA
03C5 D001              POP     AR1
03C7 D002              POP     AR2
03C9 D003              POP     AR3
03CB 120000      E     LCALL   _strcat
                                           ; SOURCE LINE # 1045
03CE 020000      R     LJMP    ?C0259
03D1         ?C0262:
                                           ; SOURCE LINE # 1046
                                           ; SOURCE LINE # 1047
03D1 7B01              MOV     R3,#01H
03D3 7A00        R     MOV     R2,#HIGH str
03D5 7900        R     MOV     R1,#LOW str
03D7 C003              PUSH    AR3
03D9 C002              PUSH    AR2
03DB C001              PUSH    AR1
03DD 7BFF              MOV     R3,#0FFH
03DF 7A00        R     MOV     R2,#HIGH ?SC_351
03E1 7900        R     MOV     R1,#LOW ?SC_351
03E3 900000      E     MOV     DPTR,#?_sprintf?BYTE+03H
03E6 120000      E     LCALL   ?C?PSTXDATA
03E9 900000      R     MOV     DPTR,#i
03EC E0                MOVX    A,@DPTR
03ED FE                MOV     R6,A
03EE A3                INC     DPTR
03EF E0                MOVX    A,@DPTR
03F0 FF                MOV     R7,A
03F1 EF                MOV     A,R7
03F2 7802              MOV     R0,#02H
03F4         ?C0431:
03F4 C3                CLR     C
03F5 33                RLC     A
03F6 CE                XCH     A,R6
03F7 33                RLC     A
03F8 CE                XCH     A,R6
03F9 D8F9              DJNZ    R0,?C0431
03FB FF                MOV     R7,A
03FC 7400        E     MOV     A,#LOW g_ref
03FE 2F                ADD     A,R7
03FF F582              MOV     DPL,A
0401 7400        E     MOV     A,#HIGH g_ref
0403 3E                ADDC    A,R6
0404 F583              MOV     DPH,A
C51 COMPILER V9.51   COMMAND_PROCESSING                                                    02/09/2021 12:42:36 PAGE 131 

0406 120000      E     LCALL   ?C?LLDXDATA
0409 900000      R     MOV     DPTR,#i
040C E0                MOVX    A,@DPTR
040D FA                MOV     R2,A
040E A3                INC     DPTR
040F E0                MOVX    A,@DPTR
0410 FB                MOV     R3,A
0411 7400        E     MOV     A,#LOW c_mem+035H
0413 2B                ADD     A,R3
0414 F582              MOV     DPL,A
0416 7400        E     MOV     A,#HIGH c_mem+035H
0418 3A                ADDC    A,R2
0419 F583              MOV     DPH,A
041B E0                MOVX    A,@DPTR
041C F9                MOV     R1,A
041D A801              MOV     R0,AR1
041F 120000      E     LCALL   ?C?SLSHR
0422 900000      E     MOV     DPTR,#?_sprintf?BYTE+06H
0425 EE                MOV     A,R6
0426 F0                MOVX    @DPTR,A
0427 A3                INC     DPTR
0428 EF                MOV     A,R7
0429 F0                MOVX    @DPTR,A
042A D001              POP     AR1
042C D002              POP     AR2
042E D003              POP     AR3
0430 120000      E     LCALL   _sprintf
                                           ; SOURCE LINE # 1048
0433 900000      R     MOV     DPTR,#info_string
0436 120000      E     LCALL   ?C?PLDXDATA
0439 C003              PUSH    AR3
043B C002              PUSH    AR2
043D C001              PUSH    AR1
043F 7B01              MOV     R3,#01H
0441 7A00        R     MOV     R2,#HIGH str
0443 7900        R     MOV     R1,#LOW str
0445 900000      E     MOV     DPTR,#?_strcat?BYTE+03H
0448 120000      E     LCALL   ?C?PSTXDATA
044B D001              POP     AR1
044D D002              POP     AR2
044F D003              POP     AR3
0451 120000      E     LCALL   _strcat
                                           ; SOURCE LINE # 1049
                                           ; SOURCE LINE # 1050
                                           ; SOURCE LINE # 1051
0454         ?C0259:
0454 900000      R     MOV     DPTR,#i
0457 E4                CLR     A
0458 75F001            MOV     B,#01H
045B 120000      E     LCALL   ?C?IILDX
045E 020000      R     LJMP    ?C0257
0461         ?C0258:
                                           ; SOURCE LINE # 1052
0461 900000      R     MOV     DPTR,#info_string
0464 120000      E     LCALL   ?C?PLDXDATA
0467 C003              PUSH    AR3
0469 C002              PUSH    AR2
046B C001              PUSH    AR1
046D 7BFF              MOV     R3,#0FFH
046F 7A00        R     MOV     R2,#HIGH ?SC_142
0471 7900        R     MOV     R1,#LOW ?SC_142
0473 900000      E     MOV     DPTR,#?_strcat?BYTE+03H
C51 COMPILER V9.51   COMMAND_PROCESSING                                                    02/09/2021 12:42:36 PAGE 132 

0476 120000      E     LCALL   ?C?PSTXDATA
0479 D001              POP     AR1
047B D002              POP     AR2
047D D003              POP     AR3
047F 120000      E     LCALL   _strcat
                                           ; SOURCE LINE # 1053
0482 900000      R     MOV     DPTR,#info_string
0485 120000      E     LCALL   ?C?PLDXDATA
0488 C003              PUSH    AR3
048A C002              PUSH    AR2
048C C001              PUSH    AR1
048E 7BFF              MOV     R3,#0FFH
0490 7A00        R     MOV     R2,#HIGH ?SC_142
0492 7900        R     MOV     R1,#LOW ?SC_142
0494 900000      E     MOV     DPTR,#?_strcat?BYTE+03H
0497 120000      E     LCALL   ?C?PSTXDATA
049A D001              POP     AR1
049C D002              POP     AR2
049E D003              POP     AR3
04A0 120000      E     LCALL   _strcat
                                           ; SOURCE LINE # 1055
04A3 7B01              MOV     R3,#01H
04A5 7A00        R     MOV     R2,#HIGH str
04A7 7900        R     MOV     R1,#LOW str
04A9 C003              PUSH    AR3
04AB C002              PUSH    AR2
04AD C001              PUSH    AR1
04AF 7BFF              MOV     R3,#0FFH
04B1 7A00        R     MOV     R2,#HIGH ?SC_355
04B3 7900        R     MOV     R1,#LOW ?SC_355
04B5 900000      E     MOV     DPTR,#?_sprintf?BYTE+03H
04B8 120000      E     LCALL   ?C?PSTXDATA
04BB D001              POP     AR1
04BD D002              POP     AR2
04BF D003              POP     AR3
04C1 120000      E     LCALL   _sprintf
                                           ; SOURCE LINE # 1056
04C4 900000      E     MOV     DPTR,#g_ref+018H
04C7 E0                MOVX    A,@DPTR
04C8 FF                MOV     R7,A
04C9 EF                MOV     A,R7
04CA 5403              ANL     A,#03H
04CC FF                MOV     R7,A
04CD EF                MOV     A,R7
04CE 6023              JZ      ?C0264
                                           ; SOURCE LINE # 1057
04D0 7B01              MOV     R3,#01H
04D2 7A00        R     MOV     R2,#HIGH str
04D4 7900        R     MOV     R1,#LOW str
04D6 C003              PUSH    AR3
04D8 C002              PUSH    AR2
04DA C001              PUSH    AR1
04DC 7BFF              MOV     R3,#0FFH
04DE 7A00        R     MOV     R2,#HIGH ?SC_371
04E0 7900        R     MOV     R1,#LOW ?SC_371
04E2 900000      E     MOV     DPTR,#?_strcat?BYTE+03H
04E5 120000      E     LCALL   ?C?PSTXDATA
04E8 D001              POP     AR1
04EA D002              POP     AR2
04EC D003              POP     AR3
04EE 120000      E     LCALL   _strcat
                                           ; SOURCE LINE # 1058
C51 COMPILER V9.51   COMMAND_PROCESSING                                                    02/09/2021 12:42:36 PAGE 133 

04F1 8021              SJMP    ?C0265
04F3         ?C0264:
                                           ; SOURCE LINE # 1059
04F3 7B01              MOV     R3,#01H
04F5 7A00        R     MOV     R2,#HIGH str
04F7 7900        R     MOV     R1,#LOW str
04F9 C003              PUSH    AR3
04FB C002              PUSH    AR2
04FD C001              PUSH    AR1
04FF 7BFF              MOV     R3,#0FFH
0501 7A00        R     MOV     R2,#HIGH ?SC_377
0503 7900        R     MOV     R1,#LOW ?SC_377
0505 900000      E     MOV     DPTR,#?_strcat?BYTE+03H
0508 120000      E     LCALL   ?C?PSTXDATA
050B D001              POP     AR1
050D D002              POP     AR2
050F D003              POP     AR3
0511 120000      E     LCALL   _strcat
                                           ; SOURCE LINE # 1060
0514         ?C0265:
                                           ; SOURCE LINE # 1061
0514 900000      R     MOV     DPTR,#info_string
0517 120000      E     LCALL   ?C?PLDXDATA
051A C003              PUSH    AR3
051C C002              PUSH    AR2
051E C001              PUSH    AR1
0520 7B01              MOV     R3,#01H
0522 7A00        R     MOV     R2,#HIGH str
0524 7900        R     MOV     R1,#LOW str
0526 900000      E     MOV     DPTR,#?_strcat?BYTE+03H
0529 120000      E     LCALL   ?C?PSTXDATA
052C D001              POP     AR1
052E D002              POP     AR2
0530 D003              POP     AR3
0532 120000      E     LCALL   _strcat
                                           ; SOURCE LINE # 1063
0535 900000      R     MOV     DPTR,#info_string
0538 120000      E     LCALL   ?C?PLDXDATA
053B C003              PUSH    AR3
053D C002              PUSH    AR2
053F C001              PUSH    AR1
0541 7BFF              MOV     R3,#0FFH
0543 7A00        R     MOV     R2,#HIGH ?SC_382
0545 7900        R     MOV     R1,#LOW ?SC_382
0547 900000      E     MOV     DPTR,#?_strcat?BYTE+03H
054A 120000      E     LCALL   ?C?PSTXDATA
054D D001              POP     AR1
054F D002              POP     AR2
0551 D003              POP     AR3
0553 120000      E     LCALL   _strcat
                                           ; SOURCE LINE # 1064
0556 900000      R     MOV     DPTR,#info_string
0559 120000      E     LCALL   ?C?PLDXDATA
055C C003              PUSH    AR3
055E C002              PUSH    AR2
0560 C001              PUSH    AR1
0562 7BFF              MOV     R3,#0FFH
0564 7A00        R     MOV     R2,#HIGH ?SC_404
0566 7900        R     MOV     R1,#LOW ?SC_404
0568 900000      E     MOV     DPTR,#?_strcat?BYTE+03H
056B 120000      E     LCALL   ?C?PSTXDATA
056E D001              POP     AR1
C51 COMPILER V9.51   COMMAND_PROCESSING                                                    02/09/2021 12:42:36 PAGE 134 

0570 D002              POP     AR2
0572 D003              POP     AR3
0574 120000      E     LCALL   _strcat
                                           ; SOURCE LINE # 1065
0577 900000      R     MOV     DPTR,#i
057A E4                CLR     A
057B F0                MOVX    @DPTR,A
057C A3                INC     DPTR
057D E4                CLR     A
057E F0                MOVX    @DPTR,A
057F         ?C0266:
057F 900000      R     MOV     DPTR,#i
0582 E0                MOVX    A,@DPTR
0583 FE                MOV     R6,A
0584 A3                INC     DPTR
0585 E0                MOVX    A,@DPTR
0586 FF                MOV     R7,A
0587 C3                CLR     C
0588 EF                MOV     A,R7
0589 9403              SUBB    A,#03H
058B EE                MOV     A,R6
058C 6480              XRL     A,#080H
058E 9480              SUBB    A,#080H
0590 4003              JC      $ + 5H
0592 020000      R     LJMP    ?C0267
                                           ; SOURCE LINE # 1067
0595 7B01              MOV     R3,#01H
0597 7A00        R     MOV     R2,#HIGH str
0599 7900        R     MOV     R1,#LOW str
059B C003              PUSH    AR3
059D C002              PUSH    AR2
059F C001              PUSH    AR1
05A1 7BFF              MOV     R3,#0FFH
05A3 7A00        R     MOV     R2,#HIGH ?SC_420
05A5 7900        R     MOV     R1,#LOW ?SC_420
05A7 900000      E     MOV     DPTR,#?_sprintf?BYTE+03H
05AA 120000      E     LCALL   ?C?PSTXDATA
05AD 900000      R     MOV     DPTR,#i
05B0 E0                MOVX    A,@DPTR
05B1 FE                MOV     R6,A
05B2 A3                INC     DPTR
05B3 E0                MOVX    A,@DPTR
05B4 FF                MOV     R7,A
05B5 EF                MOV     A,R7
05B6 2401              ADD     A,#01H
05B8 FF                MOV     R7,A
05B9 EE                MOV     A,R6
05BA 3400              ADDC    A,#00H
05BC FE                MOV     R6,A
05BD 900000      E     MOV     DPTR,#?_sprintf?BYTE+06H
05C0 EE                MOV     A,R6
05C1 F0                MOVX    @DPTR,A
05C2 A3                INC     DPTR
05C3 EF                MOV     A,R7
05C4 F0                MOVX    @DPTR,A
05C5 900000      R     MOV     DPTR,#i
05C8 E0                MOVX    A,@DPTR
05C9 FE                MOV     R6,A
05CA A3                INC     DPTR
05CB E0                MOVX    A,@DPTR
05CC FF                MOV     R7,A
05CD EF                MOV     A,R7
C51 COMPILER V9.51   COMMAND_PROCESSING                                                    02/09/2021 12:42:36 PAGE 135 

05CE 7802              MOV     R0,#02H
05D0         ?C0432:
05D0 C3                CLR     C
05D1 33                RLC     A
05D2 CE                XCH     A,R6
05D3 33                RLC     A
05D4 CE                XCH     A,R6
05D5 D8F9              DJNZ    R0,?C0432
05D7 FF                MOV     R7,A
05D8 7400        E     MOV     A,#LOW g_meas
05DA 2F                ADD     A,R7
05DB F582              MOV     DPL,A
05DD 7400        E     MOV     A,#HIGH g_meas
05DF 3E                ADDC    A,R6
05E0 F583              MOV     DPH,A
05E2 120000      E     LCALL   ?C?LLDXDATA
05E5 900000      R     MOV     DPTR,#i
05E8 E0                MOVX    A,@DPTR
05E9 FA                MOV     R2,A
05EA A3                INC     DPTR
05EB E0                MOVX    A,@DPTR
05EC FB                MOV     R3,A
05ED 7400        E     MOV     A,#LOW c_mem+035H
05EF 2B                ADD     A,R3
05F0 F582              MOV     DPL,A
05F2 7400        E     MOV     A,#HIGH c_mem+035H
05F4 3A                ADDC    A,R2
05F5 F583              MOV     DPH,A
05F7 E0                MOVX    A,@DPTR
05F8 F9                MOV     R1,A
05F9 A801              MOV     R0,AR1
05FB 120000      E     LCALL   ?C?SLSHR
05FE 900000      E     MOV     DPTR,#?_sprintf?BYTE+08H
0601 EE                MOV     A,R6
0602 F0                MOVX    @DPTR,A
0603 A3                INC     DPTR
0604 EF                MOV     A,R7
0605 F0                MOVX    @DPTR,A
0606 D001              POP     AR1
0608 D002              POP     AR2
060A D003              POP     AR3
060C 120000      E     LCALL   _sprintf
                                           ; SOURCE LINE # 1068
060F 900000      R     MOV     DPTR,#info_string
0612 120000      E     LCALL   ?C?PLDXDATA
0615 C003              PUSH    AR3
0617 C002              PUSH    AR2
0619 C001              PUSH    AR1
061B 7B01              MOV     R3,#01H
061D 7A00        R     MOV     R2,#HIGH str
061F 7900        R     MOV     R1,#LOW str
0621 900000      E     MOV     DPTR,#?_strcat?BYTE+03H
0624 120000      E     LCALL   ?C?PSTXDATA
0627 D001              POP     AR1
0629 D002              POP     AR2
062B D003              POP     AR3
062D 120000      E     LCALL   _strcat
                                           ; SOURCE LINE # 1069
0630 900000      R     MOV     DPTR,#info_string
0633 120000      E     LCALL   ?C?PLDXDATA
0636 C003              PUSH    AR3
0638 C002              PUSH    AR2
C51 COMPILER V9.51   COMMAND_PROCESSING                                                    02/09/2021 12:42:36 PAGE 136 

063A C001              PUSH    AR1
063C 7BFF              MOV     R3,#0FFH
063E 7A00        R     MOV     R2,#HIGH ?SC_142
0640 7900        R     MOV     R1,#LOW ?SC_142
0642 900000      E     MOV     DPTR,#?_strcat?BYTE+03H
0645 120000      E     LCALL   ?C?PSTXDATA
0648 D001              POP     AR1
064A D002              POP     AR2
064C D003              POP     AR3
064E 120000      E     LCALL   _strcat
                                           ; SOURCE LINE # 1070
0651 900000      R     MOV     DPTR,#i
0654 E4                CLR     A
0655 75F001            MOV     B,#01H
0658 120000      E     LCALL   ?C?IILDX
065B 020000      R     LJMP    ?C0266
065E         ?C0267:
                                           ; SOURCE LINE # 1072
065E 7B01              MOV     R3,#01H
0660 7A00        R     MOV     R2,#HIGH str
0662 7900        R     MOV     R1,#LOW str
0664 C003              PUSH    AR3
0666 C002              PUSH    AR2
0668 C001              PUSH    AR1
066A 7BFF              MOV     R3,#0FFH
066C 7A00        R     MOV     R2,#HIGH ?SC_429
066E 7900        R     MOV     R1,#LOW ?SC_429
0670 900000      E     MOV     DPTR,#?_sprintf?BYTE+03H
0673 120000      E     LCALL   ?C?PSTXDATA
0676 900000      E     MOV     DPTR,#dev_tension
0679 120000      E     LCALL   ?C?LLDXDATA
067C 900000      E     MOV     DPTR,#?_sprintf?BYTE+06H
067F 120000      E     LCALL   ?C?LSTXDATA
0682 D001              POP     AR1
0684 D002              POP     AR2
0686 D003              POP     AR3
0688 120000      E     LCALL   _sprintf
                                           ; SOURCE LINE # 1073
068B 900000      R     MOV     DPTR,#info_string
068E 120000      E     LCALL   ?C?PLDXDATA
0691 C003              PUSH    AR3
0693 C002              PUSH    AR2
0695 C001              PUSH    AR1
0697 7B01              MOV     R3,#01H
0699 7A00        R     MOV     R2,#HIGH str
069B 7900        R     MOV     R1,#LOW str
069D 900000      E     MOV     DPTR,#?_strcat?BYTE+03H
06A0 120000      E     LCALL   ?C?PSTXDATA
06A3 D001              POP     AR1
06A5 D002              POP     AR2
06A7 D003              POP     AR3
06A9 120000      E     LCALL   _strcat
                                           ; SOURCE LINE # 1074
06AC 900000      R     MOV     DPTR,#info_string
06AF 120000      E     LCALL   ?C?PLDXDATA
06B2 C003              PUSH    AR3
06B4 C002              PUSH    AR2
06B6 C001              PUSH    AR1
06B8 7BFF              MOV     R3,#0FFH
06BA 7A00        R     MOV     R2,#HIGH ?SC_142
06BC 7900        R     MOV     R1,#LOW ?SC_142
06BE 900000      E     MOV     DPTR,#?_strcat?BYTE+03H
C51 COMPILER V9.51   COMMAND_PROCESSING                                                    02/09/2021 12:42:36 PAGE 137 

06C1 120000      E     LCALL   ?C?PSTXDATA
06C4 D001              POP     AR1
06C6 D002              POP     AR2
06C8 D003              POP     AR3
06CA 120000      E     LCALL   _strcat
                                           ; SOURCE LINE # 1076
06CD 7B01              MOV     R3,#01H
06CF 7A00        R     MOV     R2,#HIGH str
06D1 7900        R     MOV     R1,#LOW str
06D3 C003              PUSH    AR3
06D5 C002              PUSH    AR2
06D7 C001              PUSH    AR1
06D9 7BFF              MOV     R3,#0FFH
06DB 7A00        R     MOV     R2,#HIGH ?SC_455
06DD 7900        R     MOV     R1,#LOW ?SC_455
06DF 900000      E     MOV     DPTR,#?_sprintf?BYTE+03H
06E2 120000      E     LCALL   ?C?PSTXDATA
06E5 900000      E     MOV     DPTR,#pow_tension
06E8 120000      E     LCALL   ?C?LLDXDATA
06EB 900000      E     MOV     DPTR,#?_sprintf?BYTE+06H
06EE 120000      E     LCALL   ?C?LSTXDATA
06F1 D001              POP     AR1
06F3 D002              POP     AR2
06F5 D003              POP     AR3
06F7 120000      E     LCALL   _sprintf
                                           ; SOURCE LINE # 1077
06FA 900000      R     MOV     DPTR,#info_string
06FD 120000      E     LCALL   ?C?PLDXDATA
0700 C003              PUSH    AR3
0702 C002              PUSH    AR2
0704 C001              PUSH    AR1
0706 7B01              MOV     R3,#01H
0708 7A00        R     MOV     R2,#HIGH str
070A 7900        R     MOV     R1,#LOW str
070C 900000      E     MOV     DPTR,#?_strcat?BYTE+03H
070F 120000      E     LCALL   ?C?PSTXDATA
0712 D001              POP     AR1
0714 D002              POP     AR2
0716 D003              POP     AR3
0718 120000      E     LCALL   _strcat
                                           ; SOURCE LINE # 1078
071B 900000      R     MOV     DPTR,#info_string
071E 120000      E     LCALL   ?C?PLDXDATA
0721 C003              PUSH    AR3
0723 C002              PUSH    AR2
0725 C001              PUSH    AR1
0727 7BFF              MOV     R3,#0FFH
0729 7A00        R     MOV     R2,#HIGH ?SC_142
072B 7900        R     MOV     R1,#LOW ?SC_142
072D 900000      E     MOV     DPTR,#?_strcat?BYTE+03H
0730 120000      E     LCALL   ?C?PSTXDATA
0733 D001              POP     AR1
0735 D002              POP     AR2
0737 D003              POP     AR3
0739 120000      E     LCALL   _strcat
                                           ; SOURCE LINE # 1080
073C 7B01              MOV     R3,#01H
073E 7A00        R     MOV     R2,#HIGH str
0740 7900        R     MOV     R1,#LOW str
0742 C003              PUSH    AR3
0744 C002              PUSH    AR2
0746 C001              PUSH    AR1
C51 COMPILER V9.51   COMMAND_PROCESSING                                                    02/09/2021 12:42:36 PAGE 138 

0748 7BFF              MOV     R3,#0FFH
074A 7A00        R     MOV     R2,#HIGH ?SC_491
074C 7900        R     MOV     R1,#LOW ?SC_491
074E 900000      E     MOV     DPTR,#?_sprintf?BYTE+03H
0751 120000      E     LCALL   ?C?PSTXDATA
0754 900000      E     MOV     DPTR,#g_meas+0CH
0757 120000      E     LCALL   ?C?LLDXDATA
075A 900000      E     MOV     DPTR,#?_sprintf?BYTE+06H
075D 120000      E     LCALL   ?C?LSTXDATA
0760 D001              POP     AR1
0762 D002              POP     AR2
0764 D003              POP     AR3
0766 120000      E     LCALL   _sprintf
                                           ; SOURCE LINE # 1081
0769 900000      R     MOV     DPTR,#info_string
076C 120000      E     LCALL   ?C?PLDXDATA
076F C003              PUSH    AR3
0771 C002              PUSH    AR2
0773 C001              PUSH    AR1
0775 7B01              MOV     R3,#01H
0777 7A00        R     MOV     R2,#HIGH str
0779 7900        R     MOV     R1,#LOW str
077B 900000      E     MOV     DPTR,#?_strcat?BYTE+03H
077E 120000      E     LCALL   ?C?PSTXDATA
0781 D001              POP     AR1
0783 D002              POP     AR2
0785 D003              POP     AR3
0787 120000      E     LCALL   _strcat
                                           ; SOURCE LINE # 1082
078A 900000      R     MOV     DPTR,#info_string
078D 120000      E     LCALL   ?C?PLDXDATA
0790 C003              PUSH    AR3
0792 C002              PUSH    AR2
0794 C001              PUSH    AR1
0796 7BFF              MOV     R3,#0FFH
0798 7A00        R     MOV     R2,#HIGH ?SC_142
079A 7900        R     MOV     R1,#LOW ?SC_142
079C 900000      E     MOV     DPTR,#?_strcat?BYTE+03H
079F 120000      E     LCALL   ?C?PSTXDATA
07A2 D001              POP     AR1
07A4 D002              POP     AR2
07A6 D003              POP     AR3
07A8 120000      E     LCALL   _strcat
                                           ; SOURCE LINE # 1085
07AB 900000      R     MOV     DPTR,#info_string
07AE 120000      E     LCALL   ?C?PLDXDATA
07B1 C003              PUSH    AR3
07B3 C002              PUSH    AR2
07B5 C001              PUSH    AR1
07B7 7BFF              MOV     R3,#0FFH
07B9 7A00        R     MOV     R2,#HIGH ?SC_509
07BB 7900        R     MOV     R1,#LOW ?SC_509
07BD 900000      E     MOV     DPTR,#?_strcat?BYTE+03H
07C0 120000      E     LCALL   ?C?PSTXDATA
07C3 D001              POP     AR1
07C5 D002              POP     AR2
07C7 D003              POP     AR3
07C9 120000      E     LCALL   _strcat
                                           ; SOURCE LINE # 1087
07CC 900000      R     MOV     DPTR,#info_string
07CF 120000      E     LCALL   ?C?PLDXDATA
07D2 C003              PUSH    AR3
C51 COMPILER V9.51   COMMAND_PROCESSING                                                    02/09/2021 12:42:36 PAGE 139 

07D4 C002              PUSH    AR2
07D6 C001              PUSH    AR1
07D8 7BFF              MOV     R3,#0FFH
07DA 7A00        R     MOV     R2,#HIGH ?SC_531
07DC 7900        R     MOV     R1,#LOW ?SC_531
07DE 900000      E     MOV     DPTR,#?_strcat?BYTE+03H
07E1 120000      E     LCALL   ?C?PSTXDATA
07E4 D001              POP     AR1
07E6 D002              POP     AR2
07E8 D003              POP     AR3
07EA 120000      E     LCALL   _strcat
                                           ; SOURCE LINE # 1088
07ED 900000      E     MOV     DPTR,#c_mem+034H
07F0 E0                MOVX    A,@DPTR
07F1 FF                MOV     R7,A
07F2 EF                MOV     A,R7
07F3 6403              XRL     A,#03H
07F5 7003              JNZ     $ + 5H
07F7 020000      R     LJMP    ?C0269
                                           ; SOURCE LINE # 1089
07FA 7B01              MOV     R3,#01H
07FC 7A00        R     MOV     R2,#HIGH str
07FE 7900        R     MOV     R1,#LOW str
0800 C003              PUSH    AR3
0802 C002              PUSH    AR2
0804 C001              PUSH    AR1
0806 7BFF              MOV     R3,#0FFH
0808 7A00        R     MOV     R2,#HIGH ?SC_549
080A 7900        R     MOV     R1,#LOW ?SC_549
080C 900000      E     MOV     DPTR,#?_sprintf?BYTE+03H
080F 120000      E     LCALL   ?C?PSTXDATA
0812 900000      E     MOV     DPTR,#c_mem+02H
0815 120000      E     LCALL   ?C?LLDXDATA
0818 EC                MOV     A,R4
0819 120000      E     LCALL   ?C?FCASTL
081C 7B00              MOV     R3,#00H
081E 7A00              MOV     R2,#00H
0820 7980              MOV     R1,#080H
0822 7847              MOV     R0,#047H
0824 120000      E     LCALL   ?C?FPDIV
0827 900000      E     MOV     DPTR,#?_sprintf?BYTE+06H
082A 120000      E     LCALL   ?C?LSTXDATA
082D D001              POP     AR1
082F D002              POP     AR2
0831 D003              POP     AR3
0833 120000      E     LCALL   _sprintf
                                           ; SOURCE LINE # 1090
0836 900000      R     MOV     DPTR,#info_string
0839 120000      E     LCALL   ?C?PLDXDATA
083C C003              PUSH    AR3
083E C002              PUSH    AR2
0840 C001              PUSH    AR1
0842 7B01              MOV     R3,#01H
0844 7A00        R     MOV     R2,#HIGH str
0846 7900        R     MOV     R1,#LOW str
0848 900000      E     MOV     DPTR,#?_strcat?BYTE+03H
084B 120000      E     LCALL   ?C?PSTXDATA
084E D001              POP     AR1
0850 D002              POP     AR2
0852 D003              POP     AR3
0854 120000      E     LCALL   _strcat
                                           ; SOURCE LINE # 1091
C51 COMPILER V9.51   COMMAND_PROCESSING                                                    02/09/2021 12:42:36 PAGE 140 

0857 7B01              MOV     R3,#01H
0859 7A00        R     MOV     R2,#HIGH str
085B 7900        R     MOV     R1,#LOW str
085D C003              PUSH    AR3
085F C002              PUSH    AR2
0861 C001              PUSH    AR1
0863 7BFF              MOV     R3,#0FFH
0865 7A00        R     MOV     R2,#HIGH ?SC_559
0867 7900        R     MOV     R1,#LOW ?SC_559
0869 900000      E     MOV     DPTR,#?_sprintf?BYTE+03H
086C 120000      E     LCALL   ?C?PSTXDATA
086F 900000      E     MOV     DPTR,#c_mem+06H
0872 120000      E     LCALL   ?C?LLDXDATA
0875 EC                MOV     A,R4
0876 120000      E     LCALL   ?C?FCASTL
0879 7B00              MOV     R3,#00H
087B 7A00              MOV     R2,#00H
087D 7980              MOV     R1,#080H
087F 7847              MOV     R0,#047H
0881 120000      E     LCALL   ?C?FPDIV
0884 900000      E     MOV     DPTR,#?_sprintf?BYTE+06H
0887 120000      E     LCALL   ?C?LSTXDATA
088A D001              POP     AR1
088C D002              POP     AR2
088E D003              POP     AR3
0890 120000      E     LCALL   _sprintf
                                           ; SOURCE LINE # 1092
0893 900000      R     MOV     DPTR,#info_string
0896 120000      E     LCALL   ?C?PLDXDATA
0899 C003              PUSH    AR3
089B C002              PUSH    AR2
089D C001              PUSH    AR1
089F 7B01              MOV     R3,#01H
08A1 7A00        R     MOV     R2,#HIGH str
08A3 7900        R     MOV     R1,#LOW str
08A5 900000      E     MOV     DPTR,#?_strcat?BYTE+03H
08A8 120000      E     LCALL   ?C?PSTXDATA
08AB D001              POP     AR1
08AD D002              POP     AR2
08AF D003              POP     AR3
08B1 120000      E     LCALL   _strcat
                                           ; SOURCE LINE # 1093
08B4 7B01              MOV     R3,#01H
08B6 7A00        R     MOV     R2,#HIGH str
08B8 7900        R     MOV     R1,#LOW str
08BA C003              PUSH    AR3
08BC C002              PUSH    AR2
08BE C001              PUSH    AR1
08C0 7BFF              MOV     R3,#0FFH
08C2 7A00        R     MOV     R2,#HIGH ?SC_569
08C4 7900        R     MOV     R1,#LOW ?SC_569
08C6 900000      E     MOV     DPTR,#?_sprintf?BYTE+03H
08C9 120000      E     LCALL   ?C?PSTXDATA
08CC 900000      E     MOV     DPTR,#c_mem+0AH
08CF 120000      E     LCALL   ?C?LLDXDATA
08D2 EC                MOV     A,R4
08D3 120000      E     LCALL   ?C?FCASTL
08D6 7B00              MOV     R3,#00H
08D8 7A00              MOV     R2,#00H
08DA 7980              MOV     R1,#080H
08DC 7847              MOV     R0,#047H
08DE 120000      E     LCALL   ?C?FPDIV
C51 COMPILER V9.51   COMMAND_PROCESSING                                                    02/09/2021 12:42:36 PAGE 141 

08E1 900000      E     MOV     DPTR,#?_sprintf?BYTE+06H
08E4 120000      E     LCALL   ?C?LSTXDATA
08E7 D001              POP     AR1
08E9 D002              POP     AR2
08EB D003              POP     AR3
08ED 120000      E     LCALL   _sprintf
                                           ; SOURCE LINE # 1094
08F0 900000      R     MOV     DPTR,#info_string
08F3 120000      E     LCALL   ?C?PLDXDATA
08F6 C003              PUSH    AR3
08F8 C002              PUSH    AR2
08FA C001              PUSH    AR1
08FC 7B01              MOV     R3,#01H
08FE 7A00        R     MOV     R2,#HIGH str
0900 7900        R     MOV     R1,#LOW str
0902 900000      E     MOV     DPTR,#?_strcat?BYTE+03H
0905 120000      E     LCALL   ?C?PSTXDATA
0908 D001              POP     AR1
090A D002              POP     AR2
090C D003              POP     AR3
090E 120000      E     LCALL   _strcat
                                           ; SOURCE LINE # 1095
0911 020000      R     LJMP    ?C0270
0914         ?C0269:
                                           ; SOURCE LINE # 1096
                                           ; SOURCE LINE # 1097
0914 7B01              MOV     R3,#01H
0916 7A00        R     MOV     R2,#HIGH str
0918 7900        R     MOV     R1,#LOW str
091A C003              PUSH    AR3
091C C002              PUSH    AR2
091E C001              PUSH    AR1
0920 7BFF              MOV     R3,#0FFH
0922 7A00        R     MOV     R2,#HIGH ?SC_549
0924 7900        R     MOV     R1,#LOW ?SC_549
0926 900000      E     MOV     DPTR,#?_sprintf?BYTE+03H
0929 120000      E     LCALL   ?C?PSTXDATA
092C 900000      E     MOV     DPTR,#c_mem+01AH
092F 120000      E     LCALL   ?C?LLDXDATA
0932 EC                MOV     A,R4
0933 120000      E     LCALL   ?C?FCASTL
0936 7B00              MOV     R3,#00H
0938 7A00              MOV     R2,#00H
093A 7900              MOV     R1,#00H
093C 7846              MOV     R0,#046H
093E 120000      E     LCALL   ?C?FPDIV
0941 900000      E     MOV     DPTR,#?_sprintf?BYTE+06H
0944 120000      E     LCALL   ?C?LSTXDATA
0947 D001              POP     AR1
0949 D002              POP     AR2
094B D003              POP     AR3
094D 120000      E     LCALL   _sprintf
                                           ; SOURCE LINE # 1098
0950 900000      R     MOV     DPTR,#info_string
0953 120000      E     LCALL   ?C?PLDXDATA
0956 C003              PUSH    AR3
0958 C002              PUSH    AR2
095A C001              PUSH    AR1
095C 7B01              MOV     R3,#01H
095E 7A00        R     MOV     R2,#HIGH str
0960 7900        R     MOV     R1,#LOW str
0962 900000      E     MOV     DPTR,#?_strcat?BYTE+03H
C51 COMPILER V9.51   COMMAND_PROCESSING                                                    02/09/2021 12:42:36 PAGE 142 

0965 120000      E     LCALL   ?C?PSTXDATA
0968 D001              POP     AR1
096A D002              POP     AR2
096C D003              POP     AR3
096E 120000      E     LCALL   _strcat
                                           ; SOURCE LINE # 1099
0971 7B01              MOV     R3,#01H
0973 7A00        R     MOV     R2,#HIGH str
0975 7900        R     MOV     R1,#LOW str
0977 C003              PUSH    AR3
0979 C002              PUSH    AR2
097B C001              PUSH    AR1
097D 7BFF              MOV     R3,#0FFH
097F 7A00        R     MOV     R2,#HIGH ?SC_559
0981 7900        R     MOV     R1,#LOW ?SC_559
0983 900000      E     MOV     DPTR,#?_sprintf?BYTE+03H
0986 120000      E     LCALL   ?C?PSTXDATA
0989 900000      E     MOV     DPTR,#c_mem+01EH
098C 120000      E     LCALL   ?C?LLDXDATA
098F EC                MOV     A,R4
0990 120000      E     LCALL   ?C?FCASTL
0993 7B00              MOV     R3,#00H
0995 7A00              MOV     R2,#00H
0997 7900              MOV     R1,#00H
0999 7846              MOV     R0,#046H
099B 120000      E     LCALL   ?C?FPDIV
099E 900000      E     MOV     DPTR,#?_sprintf?BYTE+06H
09A1 120000      E     LCALL   ?C?LSTXDATA
09A4 D001              POP     AR1
09A6 D002              POP     AR2
09A8 D003              POP     AR3
09AA 120000      E     LCALL   _sprintf
                                           ; SOURCE LINE # 1100
09AD 900000      R     MOV     DPTR,#info_string
09B0 120000      E     LCALL   ?C?PLDXDATA
09B3 C003              PUSH    AR3
09B5 C002              PUSH    AR2
09B7 C001              PUSH    AR1
09B9 7B01              MOV     R3,#01H
09BB 7A00        R     MOV     R2,#HIGH str
09BD 7900        R     MOV     R1,#LOW str
09BF 900000      E     MOV     DPTR,#?_strcat?BYTE+03H
09C2 120000      E     LCALL   ?C?PSTXDATA
09C5 D001              POP     AR1
09C7 D002              POP     AR2
09C9 D003              POP     AR3
09CB 120000      E     LCALL   _strcat
                                           ; SOURCE LINE # 1101
09CE 7B01              MOV     R3,#01H
09D0 7A00        R     MOV     R2,#HIGH str
09D2 7900        R     MOV     R1,#LOW str
09D4 C003              PUSH    AR3
09D6 C002              PUSH    AR2
09D8 C001              PUSH    AR1
09DA 7BFF              MOV     R3,#0FFH
09DC 7A00        R     MOV     R2,#HIGH ?SC_569
09DE 7900        R     MOV     R1,#LOW ?SC_569
09E0 900000      E     MOV     DPTR,#?_sprintf?BYTE+03H
09E3 120000      E     LCALL   ?C?PSTXDATA
09E6 900000      E     MOV     DPTR,#c_mem+022H
09E9 120000      E     LCALL   ?C?LLDXDATA
09EC EC                MOV     A,R4
C51 COMPILER V9.51   COMMAND_PROCESSING                                                    02/09/2021 12:42:36 PAGE 143 

09ED 120000      E     LCALL   ?C?FCASTL
09F0 7B00              MOV     R3,#00H
09F2 7A00              MOV     R2,#00H
09F4 7900              MOV     R1,#00H
09F6 7846              MOV     R0,#046H
09F8 120000      E     LCALL   ?C?FPDIV
09FB 900000      E     MOV     DPTR,#?_sprintf?BYTE+06H
09FE 120000      E     LCALL   ?C?LSTXDATA
0A01 D001              POP     AR1
0A03 D002              POP     AR2
0A05 D003              POP     AR3
0A07 120000      E     LCALL   _sprintf
                                           ; SOURCE LINE # 1102
0A0A 900000      R     MOV     DPTR,#info_string
0A0D 120000      E     LCALL   ?C?PLDXDATA
0A10 C003              PUSH    AR3
0A12 C002              PUSH    AR2
0A14 C001              PUSH    AR1
0A16 7B01              MOV     R3,#01H
0A18 7A00        R     MOV     R2,#HIGH str
0A1A 7900        R     MOV     R1,#LOW str
0A1C 900000      E     MOV     DPTR,#?_strcat?BYTE+03H
0A1F 120000      E     LCALL   ?C?PSTXDATA
0A22 D001              POP     AR1
0A24 D002              POP     AR2
0A26 D003              POP     AR3
0A28 120000      E     LCALL   _strcat
                                           ; SOURCE LINE # 1103
0A2B         ?C0270:
                                           ; SOURCE LINE # 1105
0A2B 900000      R     MOV     DPTR,#info_string
0A2E 120000      E     LCALL   ?C?PLDXDATA
0A31 C003              PUSH    AR3
0A33 C002              PUSH    AR2
0A35 C001              PUSH    AR1
0A37 7BFF              MOV     R3,#0FFH
0A39 7A00        R     MOV     R2,#HIGH ?SC_579
0A3B 7900        R     MOV     R1,#LOW ?SC_579
0A3D 900000      E     MOV     DPTR,#?_strcat?BYTE+03H
0A40 120000      E     LCALL   ?C?PSTXDATA
0A43 D001              POP     AR1
0A45 D002              POP     AR2
0A47 D003              POP     AR3
0A49 120000      E     LCALL   _strcat
                                           ; SOURCE LINE # 1106
0A4C 900000      E     MOV     DPTR,#c_mem+034H
0A4F E0                MOVX    A,@DPTR
0A50 FF                MOV     R7,A
0A51 EF                MOV     A,R7
0A52 6403              XRL     A,#03H
0A54 7003              JNZ     $ + 5H
0A56 020000      R     LJMP    ?C0271
                                           ; SOURCE LINE # 1107
0A59 7B01              MOV     R3,#01H
0A5B 7A00        R     MOV     R2,#HIGH str
0A5D 7900        R     MOV     R1,#LOW str
0A5F C003              PUSH    AR3
0A61 C002              PUSH    AR2
0A63 C001              PUSH    AR1
0A65 7BFF              MOV     R3,#0FFH
0A67 7A00        R     MOV     R2,#HIGH ?SC_549
0A69 7900        R     MOV     R1,#LOW ?SC_549
C51 COMPILER V9.51   COMMAND_PROCESSING                                                    02/09/2021 12:42:36 PAGE 144 

0A6B 900000      E     MOV     DPTR,#?_sprintf?BYTE+03H
0A6E 120000      E     LCALL   ?C?PSTXDATA
0A71 900000      E     MOV     DPTR,#c_mem+0EH
0A74 120000      E     LCALL   ?C?LLDXDATA
0A77 EC                MOV     A,R4
0A78 120000      E     LCALL   ?C?FCASTL
0A7B 7B00              MOV     R3,#00H
0A7D 7A00              MOV     R2,#00H
0A7F 7980              MOV     R1,#080H
0A81 7847              MOV     R0,#047H
0A83 120000      E     LCALL   ?C?FPDIV
0A86 900000      E     MOV     DPTR,#?_sprintf?BYTE+06H
0A89 120000      E     LCALL   ?C?LSTXDATA
0A8C D001              POP     AR1
0A8E D002              POP     AR2
0A90 D003              POP     AR3
0A92 120000      E     LCALL   _sprintf
                                           ; SOURCE LINE # 1108
0A95 900000      R     MOV     DPTR,#info_string
0A98 120000      E     LCALL   ?C?PLDXDATA
0A9B C003              PUSH    AR3
0A9D C002              PUSH    AR2
0A9F C001              PUSH    AR1
0AA1 7B01              MOV     R3,#01H
0AA3 7A00        R     MOV     R2,#HIGH str
0AA5 7900        R     MOV     R1,#LOW str
0AA7 900000      E     MOV     DPTR,#?_strcat?BYTE+03H
0AAA 120000      E     LCALL   ?C?PSTXDATA
0AAD D001              POP     AR1
0AAF D002              POP     AR2
0AB1 D003              POP     AR3
0AB3 120000      E     LCALL   _strcat
                                           ; SOURCE LINE # 1109
0AB6 7B01              MOV     R3,#01H
0AB8 7A00        R     MOV     R2,#HIGH str
0ABA 7900        R     MOV     R1,#LOW str
0ABC C003              PUSH    AR3
0ABE C002              PUSH    AR2
0AC0 C001              PUSH    AR1
0AC2 7BFF              MOV     R3,#0FFH
0AC4 7A00        R     MOV     R2,#HIGH ?SC_559
0AC6 7900        R     MOV     R1,#LOW ?SC_559
0AC8 900000      E     MOV     DPTR,#?_sprintf?BYTE+03H
0ACB 120000      E     LCALL   ?C?PSTXDATA
0ACE 900000      E     MOV     DPTR,#c_mem+012H
0AD1 120000      E     LCALL   ?C?LLDXDATA
0AD4 EC                MOV     A,R4
0AD5 120000      E     LCALL   ?C?FCASTL
0AD8 7B00              MOV     R3,#00H
0ADA 7A00              MOV     R2,#00H
0ADC 7980              MOV     R1,#080H
0ADE 7847              MOV     R0,#047H
0AE0 120000      E     LCALL   ?C?FPDIV
0AE3 900000      E     MOV     DPTR,#?_sprintf?BYTE+06H
0AE6 120000      E     LCALL   ?C?LSTXDATA
0AE9 D001              POP     AR1
0AEB D002              POP     AR2
0AED D003              POP     AR3
0AEF 120000      E     LCALL   _sprintf
                                           ; SOURCE LINE # 1110
0AF2 900000      R     MOV     DPTR,#info_string
0AF5 120000      E     LCALL   ?C?PLDXDATA
C51 COMPILER V9.51   COMMAND_PROCESSING                                                    02/09/2021 12:42:36 PAGE 145 

0AF8 C003              PUSH    AR3
0AFA C002              PUSH    AR2
0AFC C001              PUSH    AR1
0AFE 7B01              MOV     R3,#01H
0B00 7A00        R     MOV     R2,#HIGH str
0B02 7900        R     MOV     R1,#LOW str
0B04 900000      E     MOV     DPTR,#?_strcat?BYTE+03H
0B07 120000      E     LCALL   ?C?PSTXDATA
0B0A D001              POP     AR1
0B0C D002              POP     AR2
0B0E D003              POP     AR3
0B10 120000      E     LCALL   _strcat
                                           ; SOURCE LINE # 1111
0B13 7B01              MOV     R3,#01H
0B15 7A00        R     MOV     R2,#HIGH str
0B17 7900        R     MOV     R1,#LOW str
0B19 C003              PUSH    AR3
0B1B C002              PUSH    AR2
0B1D C001              PUSH    AR1
0B1F 7BFF              MOV     R3,#0FFH
0B21 7A00        R     MOV     R2,#HIGH ?SC_569
0B23 7900        R     MOV     R1,#LOW ?SC_569
0B25 900000      E     MOV     DPTR,#?_sprintf?BYTE+03H
0B28 120000      E     LCALL   ?C?PSTXDATA
0B2B 900000      E     MOV     DPTR,#c_mem+016H
0B2E 120000      E     LCALL   ?C?LLDXDATA
0B31 EC                MOV     A,R4
0B32 120000      E     LCALL   ?C?FCASTL
0B35 7B00              MOV     R3,#00H
0B37 7A00              MOV     R2,#00H
0B39 7980              MOV     R1,#080H
0B3B 7847              MOV     R0,#047H
0B3D 120000      E     LCALL   ?C?FPDIV
0B40 900000      E     MOV     DPTR,#?_sprintf?BYTE+06H
0B43 120000      E     LCALL   ?C?LSTXDATA
0B46 D001              POP     AR1
0B48 D002              POP     AR2
0B4A D003              POP     AR3
0B4C 120000      E     LCALL   _sprintf
                                           ; SOURCE LINE # 1112
0B4F 900000      R     MOV     DPTR,#info_string
0B52 120000      E     LCALL   ?C?PLDXDATA
0B55 C003              PUSH    AR3
0B57 C002              PUSH    AR2
0B59 C001              PUSH    AR1
0B5B 7B01              MOV     R3,#01H
0B5D 7A00        R     MOV     R2,#HIGH str
0B5F 7900        R     MOV     R1,#LOW str
0B61 900000      E     MOV     DPTR,#?_strcat?BYTE+03H
0B64 120000      E     LCALL   ?C?PSTXDATA
0B67 D001              POP     AR1
0B69 D002              POP     AR2
0B6B D003              POP     AR3
0B6D 120000      E     LCALL   _strcat
                                           ; SOURCE LINE # 1113
0B70 020000      R     LJMP    ?C0272
0B73         ?C0271:
                                           ; SOURCE LINE # 1114
                                           ; SOURCE LINE # 1115
0B73 7B01              MOV     R3,#01H
0B75 7A00        R     MOV     R2,#HIGH str
0B77 7900        R     MOV     R1,#LOW str
C51 COMPILER V9.51   COMMAND_PROCESSING                                                    02/09/2021 12:42:36 PAGE 146 

0B79 C003              PUSH    AR3
0B7B C002              PUSH    AR2
0B7D C001              PUSH    AR1
0B7F 7BFF              MOV     R3,#0FFH
0B81 7A00        R     MOV     R2,#HIGH ?SC_549
0B83 7900        R     MOV     R1,#LOW ?SC_549
0B85 900000      E     MOV     DPTR,#?_sprintf?BYTE+03H
0B88 120000      E     LCALL   ?C?PSTXDATA
0B8B 900000      E     MOV     DPTR,#c_mem+026H
0B8E 120000      E     LCALL   ?C?LLDXDATA
0B91 EC                MOV     A,R4
0B92 120000      E     LCALL   ?C?FCASTL
0B95 7B00              MOV     R3,#00H
0B97 7A00              MOV     R2,#00H
0B99 7900              MOV     R1,#00H
0B9B 7846              MOV     R0,#046H
0B9D 120000      E     LCALL   ?C?FPDIV
0BA0 900000      E     MOV     DPTR,#?_sprintf?BYTE+06H
0BA3 120000      E     LCALL   ?C?LSTXDATA
0BA6 D001              POP     AR1
0BA8 D002              POP     AR2
0BAA D003              POP     AR3
0BAC 120000      E     LCALL   _sprintf
                                           ; SOURCE LINE # 1116
0BAF 900000      R     MOV     DPTR,#info_string
0BB2 120000      E     LCALL   ?C?PLDXDATA
0BB5 C003              PUSH    AR3
0BB7 C002              PUSH    AR2
0BB9 C001              PUSH    AR1
0BBB 7B01              MOV     R3,#01H
0BBD 7A00        R     MOV     R2,#HIGH str
0BBF 7900        R     MOV     R1,#LOW str
0BC1 900000      E     MOV     DPTR,#?_strcat?BYTE+03H
0BC4 120000      E     LCALL   ?C?PSTXDATA
0BC7 D001              POP     AR1
0BC9 D002              POP     AR2
0BCB D003              POP     AR3
0BCD 120000      E     LCALL   _strcat
                                           ; SOURCE LINE # 1117
0BD0 7B01              MOV     R3,#01H
0BD2 7A00        R     MOV     R2,#HIGH str
0BD4 7900        R     MOV     R1,#LOW str
0BD6 C003              PUSH    AR3
0BD8 C002              PUSH    AR2
0BDA C001              PUSH    AR1
0BDC 7BFF              MOV     R3,#0FFH
0BDE 7A00        R     MOV     R2,#HIGH ?SC_559
0BE0 7900        R     MOV     R1,#LOW ?SC_559
0BE2 900000      E     MOV     DPTR,#?_sprintf?BYTE+03H
0BE5 120000      E     LCALL   ?C?PSTXDATA
0BE8 900000      E     MOV     DPTR,#c_mem+02AH
0BEB 120000      E     LCALL   ?C?LLDXDATA
0BEE EC                MOV     A,R4
0BEF 120000      E     LCALL   ?C?FCASTL
0BF2 7B00              MOV     R3,#00H
0BF4 7A00              MOV     R2,#00H
0BF6 7900              MOV     R1,#00H
0BF8 7846              MOV     R0,#046H
0BFA 120000      E     LCALL   ?C?FPDIV
0BFD 900000      E     MOV     DPTR,#?_sprintf?BYTE+06H
0C00 120000      E     LCALL   ?C?LSTXDATA
0C03 D001              POP     AR1
C51 COMPILER V9.51   COMMAND_PROCESSING                                                    02/09/2021 12:42:36 PAGE 147 

0C05 D002              POP     AR2
0C07 D003              POP     AR3
0C09 120000      E     LCALL   _sprintf
                                           ; SOURCE LINE # 1118
0C0C 900000      R     MOV     DPTR,#info_string
0C0F 120000      E     LCALL   ?C?PLDXDATA
0C12 C003              PUSH    AR3
0C14 C002              PUSH    AR2
0C16 C001              PUSH    AR1
0C18 7B01              MOV     R3,#01H
0C1A 7A00        R     MOV     R2,#HIGH str
0C1C 7900        R     MOV     R1,#LOW str
0C1E 900000      E     MOV     DPTR,#?_strcat?BYTE+03H
0C21 120000      E     LCALL   ?C?PSTXDATA
0C24 D001              POP     AR1
0C26 D002              POP     AR2
0C28 D003              POP     AR3
0C2A 120000      E     LCALL   _strcat
                                           ; SOURCE LINE # 1119
0C2D 7B01              MOV     R3,#01H
0C2F 7A00        R     MOV     R2,#HIGH str
0C31 7900        R     MOV     R1,#LOW str
0C33 C003              PUSH    AR3
0C35 C002              PUSH    AR2
0C37 C001              PUSH    AR1
0C39 7BFF              MOV     R3,#0FFH
0C3B 7A00        R     MOV     R2,#HIGH ?SC_569
0C3D 7900        R     MOV     R1,#LOW ?SC_569
0C3F 900000      E     MOV     DPTR,#?_sprintf?BYTE+03H
0C42 120000      E     LCALL   ?C?PSTXDATA
0C45 900000      E     MOV     DPTR,#c_mem+02EH
0C48 120000      E     LCALL   ?C?LLDXDATA
0C4B EC                MOV     A,R4
0C4C 120000      E     LCALL   ?C?FCASTL
0C4F 7B00              MOV     R3,#00H
0C51 7A00              MOV     R2,#00H
0C53 7900              MOV     R1,#00H
0C55 7846              MOV     R0,#046H
0C57 120000      E     LCALL   ?C?FPDIV
0C5A 900000      E     MOV     DPTR,#?_sprintf?BYTE+06H
0C5D 120000      E     LCALL   ?C?LSTXDATA
0C60 D001              POP     AR1
0C62 D002              POP     AR2
0C64 D003              POP     AR3
0C66 120000      E     LCALL   _sprintf
                                           ; SOURCE LINE # 1120
0C69 900000      R     MOV     DPTR,#info_string
0C6C 120000      E     LCALL   ?C?PLDXDATA
0C6F C003              PUSH    AR3
0C71 C002              PUSH    AR2
0C73 C001              PUSH    AR1
0C75 7B01              MOV     R3,#01H
0C77 7A00        R     MOV     R2,#HIGH str
0C79 7900        R     MOV     R1,#LOW str
0C7B 900000      E     MOV     DPTR,#?_strcat?BYTE+03H
0C7E 120000      E     LCALL   ?C?PSTXDATA
0C81 D001              POP     AR1
0C83 D002              POP     AR2
0C85 D003              POP     AR3
0C87 120000      E     LCALL   _strcat
                                           ; SOURCE LINE # 1121
0C8A         ?C0272:
C51 COMPILER V9.51   COMMAND_PROCESSING                                                    02/09/2021 12:42:36 PAGE 148 

                                           ; SOURCE LINE # 1123
0C8A 900000      R     MOV     DPTR,#info_string
0C8D 120000      E     LCALL   ?C?PLDXDATA
0C90 C003              PUSH    AR3
0C92 C002              PUSH    AR2
0C94 C001              PUSH    AR1
0C96 7BFF              MOV     R3,#0FFH
0C98 7A00        R     MOV     R2,#HIGH ?SC_142
0C9A 7900        R     MOV     R1,#LOW ?SC_142
0C9C 900000      E     MOV     DPTR,#?_strcat?BYTE+03H
0C9F 120000      E     LCALL   ?C?PSTXDATA
0CA2 D001              POP     AR1
0CA4 D002              POP     AR2
0CA6 D003              POP     AR3
0CA8 120000      E     LCALL   _strcat
                                           ; SOURCE LINE # 1125
0CAB 900000      E     MOV     DPTR,#c_mem+032H
0CAE E0                MOVX    A,@DPTR
0CAF FF                MOV     R7,A
0CB0 EF                MOV     A,R7
0CB1 B40323            CJNE    A,#03H,?C0273
                                           ; SOURCE LINE # 1126
0CB4 900000      R     MOV     DPTR,#info_string
0CB7 120000      E     LCALL   ?C?PLDXDATA
0CBA C003              PUSH    AR3
0CBC C002              PUSH    AR2
0CBE C001              PUSH    AR1
0CC0 7BFF              MOV     R3,#0FFH
0CC2 7A00        R     MOV     R2,#HIGH ?SC_605
0CC4 7900        R     MOV     R1,#LOW ?SC_605
0CC6 900000      E     MOV     DPTR,#?_strcat?BYTE+03H
0CC9 120000      E     LCALL   ?C?PSTXDATA
0CCC D001              POP     AR1
0CCE D002              POP     AR2
0CD0 D003              POP     AR3
0CD2 120000      E     LCALL   _strcat
0CD5 8021              SJMP    ?C0274
0CD7         ?C0273:
                                           ; SOURCE LINE # 1128
0CD7 900000      R     MOV     DPTR,#info_string
0CDA 120000      E     LCALL   ?C?PLDXDATA
0CDD C003              PUSH    AR3
0CDF C002              PUSH    AR2
0CE1 C001              PUSH    AR1
0CE3 7BFF              MOV     R3,#0FFH
0CE5 7A00        R     MOV     R2,#HIGH ?SC_631
0CE7 7900        R     MOV     R1,#LOW ?SC_631
0CE9 900000      E     MOV     DPTR,#?_strcat?BYTE+03H
0CEC 120000      E     LCALL   ?C?PSTXDATA
0CEF D001              POP     AR1
0CF1 D002              POP     AR2
0CF3 D003              POP     AR3
0CF5 120000      E     LCALL   _strcat
0CF8         ?C0274:
                                           ; SOURCE LINE # 1130
0CF8 900000      E     MOV     DPTR,#c_mem+033H
0CFB E0                MOVX    A,@DPTR
0CFC FF                MOV     R7,A
0CFD EF                MOV     A,R7
0CFE 120000      E     LCALL   ?C?CCASE
0D01 0000        R     DW      ?C0276
0D03 00                DB      00H
C51 COMPILER V9.51   COMMAND_PROCESSING                                                    02/09/2021 12:42:36 PAGE 149 

0D04 0000        R     DW      ?C0277
0D06 01                DB      01H
0D07 0000        R     DW      ?C0278
0D09 02                DB      02H
0D0A 0000        R     DW      ?C0279
0D0C 03                DB      03H
0D0D 0000        R     DW      ?C0280
0D0F 04                DB      04H
0D10 0000        R     DW      ?C0281
0D12 05                DB      05H
0D13 0000              DW      00H
0D15 0000        R     DW      ?C0275
                                           ; SOURCE LINE # 1131
0D17         ?C0276:
                                           ; SOURCE LINE # 1132
0D17 900000      R     MOV     DPTR,#info_string
0D1A 120000      E     LCALL   ?C?PLDXDATA
0D1D C003              PUSH    AR3
0D1F C002              PUSH    AR2
0D21 C001              PUSH    AR1
0D23 7BFF              MOV     R3,#0FFH
0D25 7A00        R     MOV     R2,#HIGH ?SC_656
0D27 7900        R     MOV     R1,#LOW ?SC_656
0D29 900000      E     MOV     DPTR,#?_strcat?BYTE+03H
0D2C 120000      E     LCALL   ?C?PSTXDATA
0D2F D001              POP     AR1
0D31 D002              POP     AR2
0D33 D003              POP     AR3
0D35 120000      E     LCALL   _strcat
                                           ; SOURCE LINE # 1133
0D38 020000      R     LJMP    ?C0275
                                           ; SOURCE LINE # 1134
0D3B         ?C0277:
                                           ; SOURCE LINE # 1135
0D3B 900000      R     MOV     DPTR,#info_string
0D3E 120000      E     LCALL   ?C?PLDXDATA
0D41 C003              PUSH    AR3
0D43 C002              PUSH    AR2
0D45 C001              PUSH    AR1
0D47 7BFF              MOV     R3,#0FFH
0D49 7A00        R     MOV     R2,#HIGH ?SC_674
0D4B 7900        R     MOV     R1,#LOW ?SC_674
0D4D 900000      E     MOV     DPTR,#?_strcat?BYTE+03H
0D50 120000      E     LCALL   ?C?PSTXDATA
0D53 D001              POP     AR1
0D55 D002              POP     AR2
0D57 D003              POP     AR3
0D59 120000      E     LCALL   _strcat
                                           ; SOURCE LINE # 1136
0D5C 020000      R     LJMP    ?C0275
                                           ; SOURCE LINE # 1137
0D5F         ?C0278:
                                           ; SOURCE LINE # 1138
0D5F 900000      R     MOV     DPTR,#info_string
0D62 120000      E     LCALL   ?C?PLDXDATA
0D65 C003              PUSH    AR3
0D67 C002              PUSH    AR2
0D69 C001              PUSH    AR1
0D6B 7BFF              MOV     R3,#0FFH
0D6D 7A00        R     MOV     R2,#HIGH ?SC_695
0D6F 7900        R     MOV     R1,#LOW ?SC_695
0D71 900000      E     MOV     DPTR,#?_strcat?BYTE+03H
C51 COMPILER V9.51   COMMAND_PROCESSING                                                    02/09/2021 12:42:36 PAGE 150 

0D74 120000      E     LCALL   ?C?PSTXDATA
0D77 D001              POP     AR1
0D79 D002              POP     AR2
0D7B D003              POP     AR3
0D7D 120000      E     LCALL   _strcat
                                           ; SOURCE LINE # 1139
0D80 8067              SJMP    ?C0275
                                           ; SOURCE LINE # 1140
0D82         ?C0279:
                                           ; SOURCE LINE # 1141
0D82 900000      R     MOV     DPTR,#info_string
0D85 120000      E     LCALL   ?C?PLDXDATA
0D88 C003              PUSH    AR3
0D8A C002              PUSH    AR2
0D8C C001              PUSH    AR1
0D8E 7BFF              MOV     R3,#0FFH
0D90 7A00        R     MOV     R2,#HIGH ?SC_726
0D92 7900        R     MOV     R1,#LOW ?SC_726
0D94 900000      E     MOV     DPTR,#?_strcat?BYTE+03H
0D97 120000      E     LCALL   ?C?PSTXDATA
0D9A D001              POP     AR1
0D9C D002              POP     AR2
0D9E D003              POP     AR3
0DA0 120000      E     LCALL   _strcat
                                           ; SOURCE LINE # 1142
0DA3 8044              SJMP    ?C0275
                                           ; SOURCE LINE # 1143
0DA5         ?C0280:
                                           ; SOURCE LINE # 1144
0DA5 900000      R     MOV     DPTR,#info_string
0DA8 120000      E     LCALL   ?C?PLDXDATA
0DAB C003              PUSH    AR3
0DAD C002              PUSH    AR2
0DAF C001              PUSH    AR1
0DB1 7BFF              MOV     R3,#0FFH
0DB3 7A00        R     MOV     R2,#HIGH ?SC_753
0DB5 7900        R     MOV     R1,#LOW ?SC_753
0DB7 900000      E     MOV     DPTR,#?_strcat?BYTE+03H
0DBA 120000      E     LCALL   ?C?PSTXDATA
0DBD D001              POP     AR1
0DBF D002              POP     AR2
0DC1 D003              POP     AR3
0DC3 120000      E     LCALL   _strcat
                                           ; SOURCE LINE # 1145
0DC6 8021              SJMP    ?C0275
                                           ; SOURCE LINE # 1146
0DC8         ?C0281:
                                           ; SOURCE LINE # 1147
0DC8 900000      R     MOV     DPTR,#info_string
0DCB 120000      E     LCALL   ?C?PLDXDATA
0DCE C003              PUSH    AR3
0DD0 C002              PUSH    AR2
0DD2 C001              PUSH    AR1
0DD4 7BFF              MOV     R3,#0FFH
0DD6 7A00        R     MOV     R2,#HIGH ?SC_776
0DD8 7900        R     MOV     R1,#LOW ?SC_776
0DDA 900000      E     MOV     DPTR,#?_strcat?BYTE+03H
0DDD 120000      E     LCALL   ?C?PSTXDATA
0DE0 D001              POP     AR1
0DE2 D002              POP     AR2
0DE4 D003              POP     AR3
0DE6 120000      E     LCALL   _strcat
C51 COMPILER V9.51   COMMAND_PROCESSING                                                    02/09/2021 12:42:36 PAGE 151 

                                           ; SOURCE LINE # 1148
                                           ; SOURCE LINE # 1149
0DE9         ?C0275:
                                           ; SOURCE LINE # 1151
0DE9 900000      E     MOV     DPTR,#c_mem+034H
0DEC E0                MOVX    A,@DPTR
0DED FF                MOV     R7,A
0DEE EF                MOV     A,R7
0DEF 120000      E     LCALL   ?C?CCASE
0DF2 0000        R     DW      ?C0283
0DF4 00                DB      00H
0DF5 0000        R     DW      ?C0284
0DF7 01                DB      01H
0DF8 0000        R     DW      ?C0285
0DFA 02                DB      02H
0DFB 0000        R     DW      ?C0286
0DFD 03                DB      03H
0DFE 0000              DW      00H
0E00 0000        R     DW      ?C0282
                                           ; SOURCE LINE # 1152
0E02         ?C0283:
                                           ; SOURCE LINE # 1153
0E02 900000      R     MOV     DPTR,#info_string
0E05 120000      E     LCALL   ?C?PLDXDATA
0E08 C003              PUSH    AR3
0E0A C002              PUSH    AR2
0E0C C001              PUSH    AR1
0E0E 7BFF              MOV     R3,#0FFH
0E10 7A00        R     MOV     R2,#HIGH ?SC_803
0E12 7900        R     MOV     R1,#LOW ?SC_803
0E14 900000      E     MOV     DPTR,#?_strcat?BYTE+03H
0E17 120000      E     LCALL   ?C?PSTXDATA
0E1A D001              POP     AR1
0E1C D002              POP     AR2
0E1E D003              POP     AR3
0E20 120000      E     LCALL   _strcat
                                           ; SOURCE LINE # 1154
0E23 8067              SJMP    ?C0282
                                           ; SOURCE LINE # 1155
0E25         ?C0284:
                                           ; SOURCE LINE # 1156
0E25 900000      R     MOV     DPTR,#info_string
0E28 120000      E     LCALL   ?C?PLDXDATA
0E2B C003              PUSH    AR3
0E2D C002              PUSH    AR2
0E2F C001              PUSH    AR1
0E31 7BFF              MOV     R3,#0FFH
0E33 7A00        R     MOV     R2,#HIGH ?SC_828
0E35 7900        R     MOV     R1,#LOW ?SC_828
0E37 900000      E     MOV     DPTR,#?_strcat?BYTE+03H
0E3A 120000      E     LCALL   ?C?PSTXDATA
0E3D D001              POP     AR1
0E3F D002              POP     AR2
0E41 D003              POP     AR3
0E43 120000      E     LCALL   _strcat
                                           ; SOURCE LINE # 1157
0E46 8044              SJMP    ?C0282
                                           ; SOURCE LINE # 1158
0E48         ?C0285:
                                           ; SOURCE LINE # 1159
0E48 900000      R     MOV     DPTR,#info_string
0E4B 120000      E     LCALL   ?C?PLDXDATA
C51 COMPILER V9.51   COMMAND_PROCESSING                                                    02/09/2021 12:42:36 PAGE 152 

0E4E C003              PUSH    AR3
0E50 C002              PUSH    AR2
0E52 C001              PUSH    AR1
0E54 7BFF              MOV     R3,#0FFH
0E56 7A00        R     MOV     R2,#HIGH ?SC_848
0E58 7900        R     MOV     R1,#LOW ?SC_848
0E5A 900000      E     MOV     DPTR,#?_strcat?BYTE+03H
0E5D 120000      E     LCALL   ?C?PSTXDATA
0E60 D001              POP     AR1
0E62 D002              POP     AR2
0E64 D003              POP     AR3
0E66 120000      E     LCALL   _strcat
                                           ; SOURCE LINE # 1160
0E69 8021              SJMP    ?C0282
                                           ; SOURCE LINE # 1161
0E6B         ?C0286:
                                           ; SOURCE LINE # 1162
0E6B 900000      R     MOV     DPTR,#info_string
0E6E 120000      E     LCALL   ?C?PLDXDATA
0E71 C003              PUSH    AR3
0E73 C002              PUSH    AR2
0E75 C001              PUSH    AR1
0E77 7BFF              MOV     R3,#0FFH
0E79 7A00        R     MOV     R2,#HIGH ?SC_872
0E7B 7900        R     MOV     R1,#LOW ?SC_872
0E7D 900000      E     MOV     DPTR,#?_strcat?BYTE+03H
0E80 120000      E     LCALL   ?C?PSTXDATA
0E83 D001              POP     AR1
0E85 D002              POP     AR2
0E87 D003              POP     AR3
0E89 120000      E     LCALL   _strcat
                                           ; SOURCE LINE # 1163
                                           ; SOURCE LINE # 1164
                                           ; SOURCE LINE # 1165
                                           ; SOURCE LINE # 1166
0E8C         ?C0282:
                                           ; SOURCE LINE # 1168
0E8C 900000      E     MOV     DPTR,#c_mem+079H
0E8F E0                MOVX    A,@DPTR
0E90 FF                MOV     R7,A
0E91 EF                MOV     A,R7
0E92 6023              JZ      ?C0288
                                           ; SOURCE LINE # 1169
0E94 900000      R     MOV     DPTR,#info_string
0E97 120000      E     LCALL   ?C?PLDXDATA
0E9A C003              PUSH    AR3
0E9C C002              PUSH    AR2
0E9E C001              PUSH    AR1
0EA0 7BFF              MOV     R3,#0FFH
0EA2 7A00        R     MOV     R2,#HIGH ?SC_909
0EA4 7900        R     MOV     R1,#LOW ?SC_909
0EA6 900000      E     MOV     DPTR,#?_strcat?BYTE+03H
0EA9 120000      E     LCALL   ?C?PSTXDATA
0EAC D001              POP     AR1
0EAE D002              POP     AR2
0EB0 D003              POP     AR3
0EB2 120000      E     LCALL   _strcat
0EB5 8021              SJMP    ?C0289
0EB7         ?C0288:
                                           ; SOURCE LINE # 1171
0EB7 900000      R     MOV     DPTR,#info_string
0EBA 120000      E     LCALL   ?C?PLDXDATA
C51 COMPILER V9.51   COMMAND_PROCESSING                                                    02/09/2021 12:42:36 PAGE 153 

0EBD C003              PUSH    AR3
0EBF C002              PUSH    AR2
0EC1 C001              PUSH    AR1
0EC3 7BFF              MOV     R3,#0FFH
0EC5 7A00        R     MOV     R2,#HIGH ?SC_942
0EC7 7900        R     MOV     R1,#LOW ?SC_942
0EC9 900000      E     MOV     DPTR,#?_strcat?BYTE+03H
0ECC 120000      E     LCALL   ?C?PSTXDATA
0ECF D001              POP     AR1
0ED1 D002              POP     AR2
0ED3 D003              POP     AR3
0ED5 120000      E     LCALL   _strcat
0ED8         ?C0289:
                                           ; SOURCE LINE # 1173
0ED8 7B01              MOV     R3,#01H
0EDA 7A00        R     MOV     R2,#HIGH str
0EDC 7900        R     MOV     R1,#LOW str
0EDE C003              PUSH    AR3
0EE0 C002              PUSH    AR2
0EE2 C001              PUSH    AR1
0EE4 7BFF              MOV     R3,#0FFH
0EE6 7A00        R     MOV     R2,#HIGH ?SC_974
0EE8 7900        R     MOV     R1,#LOW ?SC_974
0EEA 900000      E     MOV     DPTR,#?_sprintf?BYTE+03H
0EED 120000      E     LCALL   ?C?PSTXDATA
0EF0 900000      E     MOV     DPTR,#c_mem+07AH
0EF3 E0                MOVX    A,@DPTR
0EF4 FF                MOV     R7,A
0EF5 EF                MOV     A,R7
0EF6 33                RLC     A
0EF7 95E0              SUBB    A,ACC
0EF9 FE                MOV     R6,A
0EFA 900000      E     MOV     DPTR,#?_sprintf?BYTE+06H
0EFD EE                MOV     A,R6
0EFE F0                MOVX    @DPTR,A
0EFF A3                INC     DPTR
0F00 EF                MOV     A,R7
0F01 F0                MOVX    @DPTR,A
0F02 D001              POP     AR1
0F04 D002              POP     AR2
0F06 D003              POP     AR3
0F08 120000      E     LCALL   _sprintf
                                           ; SOURCE LINE # 1174
0F0B 900000      R     MOV     DPTR,#info_string
0F0E 120000      E     LCALL   ?C?PLDXDATA
0F11 C003              PUSH    AR3
0F13 C002              PUSH    AR2
0F15 C001              PUSH    AR1
0F17 7B01              MOV     R3,#01H
0F19 7A00        R     MOV     R2,#HIGH str
0F1B 7900        R     MOV     R1,#LOW str
0F1D 900000      E     MOV     DPTR,#?_strcat?BYTE+03H
0F20 120000      E     LCALL   ?C?PSTXDATA
0F23 D001              POP     AR1
0F25 D002              POP     AR2
0F27 D003              POP     AR3
0F29 120000      E     LCALL   _strcat
                                           ; SOURCE LINE # 1176
0F2C 900000      R     MOV     DPTR,#info_string
0F2F 120000      E     LCALL   ?C?PLDXDATA
0F32 C003              PUSH    AR3
0F34 C002              PUSH    AR2
C51 COMPILER V9.51   COMMAND_PROCESSING                                                    02/09/2021 12:42:36 PAGE 154 

0F36 C001              PUSH    AR1
0F38 7BFF              MOV     R3,#0FFH
0F3A 7A00        R     MOV     R2,#HIGH ?SC_999
0F3C 7900        R     MOV     R1,#LOW ?SC_999
0F3E 900000      E     MOV     DPTR,#?_strcat?BYTE+03H
0F41 120000      E     LCALL   ?C?PSTXDATA
0F44 D001              POP     AR1
0F46 D002              POP     AR2
0F48 D003              POP     AR3
0F4A 120000      E     LCALL   _strcat
                                           ; SOURCE LINE # 1177
0F4D 900000      R     MOV     DPTR,#i
0F50 E4                CLR     A
0F51 F0                MOVX    @DPTR,A
0F52 A3                INC     DPTR
0F53 E4                CLR     A
0F54 F0                MOVX    @DPTR,A
0F55         ?C0290:
0F55 900000      R     MOV     DPTR,#i
0F58 E0                MOVX    A,@DPTR
0F59 FE                MOV     R6,A
0F5A A3                INC     DPTR
0F5B E0                MOVX    A,@DPTR
0F5C FF                MOV     R7,A
0F5D C3                CLR     C
0F5E EF                MOV     A,R7
0F5F 9403              SUBB    A,#03H
0F61 EE                MOV     A,R6
0F62 6480              XRL     A,#080H
0F64 9480              SUBB    A,#080H
0F66 4003              JC      $ + 5H
0F68 020000      R     LJMP    ?C0291
                                           ; SOURCE LINE # 1178
0F6B 7B01              MOV     R3,#01H
0F6D 7A00        R     MOV     R2,#HIGH str
0F6F 7900        R     MOV     R1,#LOW str
0F71 C003              PUSH    AR3
0F73 C002              PUSH    AR2
0F75 C001              PUSH    AR1
0F77 7BFF              MOV     R3,#0FFH
0F79 7A00        R     MOV     R2,#HIGH ?SC_420
0F7B 7900        R     MOV     R1,#LOW ?SC_420
0F7D 900000      E     MOV     DPTR,#?_sprintf?BYTE+03H
0F80 120000      E     LCALL   ?C?PSTXDATA
0F83 900000      R     MOV     DPTR,#i
0F86 E0                MOVX    A,@DPTR
0F87 FE                MOV     R6,A
0F88 A3                INC     DPTR
0F89 E0                MOVX    A,@DPTR
0F8A FF                MOV     R7,A
0F8B EF                MOV     A,R7
0F8C 2401              ADD     A,#01H
0F8E FF                MOV     R7,A
0F8F EE                MOV     A,R6
0F90 3400              ADDC    A,#00H
0F92 FE                MOV     R6,A
0F93 900000      E     MOV     DPTR,#?_sprintf?BYTE+06H
0F96 EE                MOV     A,R6
0F97 F0                MOVX    @DPTR,A
0F98 A3                INC     DPTR
0F99 EF                MOV     A,R7
0F9A F0                MOVX    @DPTR,A
C51 COMPILER V9.51   COMMAND_PROCESSING                                                    02/09/2021 12:42:36 PAGE 155 

0F9B 900000      R     MOV     DPTR,#i
0F9E E0                MOVX    A,@DPTR
0F9F FE                MOV     R6,A
0FA0 A3                INC     DPTR
0FA1 E0                MOVX    A,@DPTR
0FA2 FF                MOV     R7,A
0FA3 7400        E     MOV     A,#LOW c_mem+035H
0FA5 2F                ADD     A,R7
0FA6 F582              MOV     DPL,A
0FA8 7400        E     MOV     A,#HIGH c_mem+035H
0FAA 3E                ADDC    A,R6
0FAB F583              MOV     DPH,A
0FAD E0                MOVX    A,@DPTR
0FAE FF                MOV     R7,A
0FAF 7E00              MOV     R6,#00H
0FB1 900000      E     MOV     DPTR,#?_sprintf?BYTE+08H
0FB4 EE                MOV     A,R6
0FB5 F0                MOVX    @DPTR,A
0FB6 A3                INC     DPTR
0FB7 EF                MOV     A,R7
0FB8 F0                MOVX    @DPTR,A
0FB9 D001              POP     AR1
0FBB D002              POP     AR2
0FBD D003              POP     AR3
0FBF 120000      E     LCALL   _sprintf
                                           ; SOURCE LINE # 1179
0FC2 900000      R     MOV     DPTR,#info_string
0FC5 120000      E     LCALL   ?C?PLDXDATA
0FC8 C003              PUSH    AR3
0FCA C002              PUSH    AR2
0FCC C001              PUSH    AR1
0FCE 7B01              MOV     R3,#01H
0FD0 7A00        R     MOV     R2,#HIGH str
0FD2 7900        R     MOV     R1,#LOW str
0FD4 900000      E     MOV     DPTR,#?_strcat?BYTE+03H
0FD7 120000      E     LCALL   ?C?PSTXDATA
0FDA D001              POP     AR1
0FDC D002              POP     AR2
0FDE D003              POP     AR3
0FE0 120000      E     LCALL   _strcat
                                           ; SOURCE LINE # 1180
0FE3 900000      R     MOV     DPTR,#info_string
0FE6 120000      E     LCALL   ?C?PLDXDATA
0FE9 C003              PUSH    AR3
0FEB C002              PUSH    AR2
0FED C001              PUSH    AR1
0FEF 7BFF              MOV     R3,#0FFH
0FF1 7A00        R     MOV     R2,#HIGH ?SC_142
0FF3 7900        R     MOV     R1,#LOW ?SC_142
0FF5 900000      E     MOV     DPTR,#?_strcat?BYTE+03H
0FF8 120000      E     LCALL   ?C?PSTXDATA
0FFB D001              POP     AR1
0FFD D002              POP     AR2
0FFF D003              POP     AR3
1001 120000      E     LCALL   _strcat
                                           ; SOURCE LINE # 1181
1004 900000      R     MOV     DPTR,#i
1007 E4                CLR     A
1008 75F001            MOV     B,#01H
100B 120000      E     LCALL   ?C?IILDX
100E 020000      R     LJMP    ?C0290
1011         ?C0291:
C51 COMPILER V9.51   COMMAND_PROCESSING                                                    02/09/2021 12:42:36 PAGE 156 

                                           ; SOURCE LINE # 1183
1011 900000      R     MOV     DPTR,#info_string
1014 120000      E     LCALL   ?C?PLDXDATA
1017 C003              PUSH    AR3
1019 C002              PUSH    AR2
101B C001              PUSH    AR1
101D 7BFF              MOV     R3,#0FFH
101F 7A00        R     MOV     R2,#HIGH ?SC_1020
1021 7900        R     MOV     R1,#LOW ?SC_1020
1023 900000      E     MOV     DPTR,#?_strcat?BYTE+03H
1026 120000      E     LCALL   ?C?PSTXDATA
1029 D001              POP     AR1
102B D002              POP     AR2
102D D003              POP     AR3
102F 120000      E     LCALL   _strcat
                                           ; SOURCE LINE # 1184
1032 900000      R     MOV     DPTR,#i
1035 E4                CLR     A
1036 F0                MOVX    @DPTR,A
1037 A3                INC     DPTR
1038 E4                CLR     A
1039 F0                MOVX    @DPTR,A
103A         ?C0293:
103A 900000      R     MOV     DPTR,#i
103D E0                MOVX    A,@DPTR
103E FE                MOV     R6,A
103F A3                INC     DPTR
1040 E0                MOVX    A,@DPTR
1041 FF                MOV     R7,A
1042 C3                CLR     C
1043 EF                MOV     A,R7
1044 9403              SUBB    A,#03H
1046 EE                MOV     A,R6
1047 6480              XRL     A,#080H
1049 9480              SUBB    A,#080H
104B 4003              JC      $ + 5H
104D 020000      R     LJMP    ?C0294
                                           ; SOURCE LINE # 1185
1050 7B01              MOV     R3,#01H
1052 7A00        R     MOV     R2,#HIGH str
1054 7900        R     MOV     R1,#LOW str
1056 C003              PUSH    AR3
1058 C002              PUSH    AR2
105A C001              PUSH    AR1
105C 7BFF              MOV     R3,#0FFH
105E 7A00        R     MOV     R2,#HIGH ?SC_1042
1060 7900        R     MOV     R1,#LOW ?SC_1042
1062 900000      E     MOV     DPTR,#?_sprintf?BYTE+03H
1065 120000      E     LCALL   ?C?PSTXDATA
1068 900000      R     MOV     DPTR,#i
106B E0                MOVX    A,@DPTR
106C FE                MOV     R6,A
106D A3                INC     DPTR
106E E0                MOVX    A,@DPTR
106F FF                MOV     R7,A
1070 EF                MOV     A,R7
1071 2401              ADD     A,#01H
1073 FF                MOV     R7,A
1074 EE                MOV     A,R6
1075 3400              ADDC    A,#00H
1077 FE                MOV     R6,A
1078 900000      E     MOV     DPTR,#?_sprintf?BYTE+06H
C51 COMPILER V9.51   COMMAND_PROCESSING                                                    02/09/2021 12:42:36 PAGE 157 

107B EE                MOV     A,R6
107C F0                MOVX    @DPTR,A
107D A3                INC     DPTR
107E EF                MOV     A,R7
107F F0                MOVX    @DPTR,A
1080 900000      R     MOV     DPTR,#i
1083 E0                MOVX    A,@DPTR
1084 FE                MOV     R6,A
1085 A3                INC     DPTR
1086 E0                MOVX    A,@DPTR
1087 FF                MOV     R7,A
1088 EF                MOV     A,R7
1089 7802              MOV     R0,#02H
108B         ?C0433:
108B C3                CLR     C
108C 33                RLC     A
108D CE                XCH     A,R6
108E 33                RLC     A
108F CE                XCH     A,R6
1090 D8F9              DJNZ    R0,?C0433
1092 FF                MOV     R7,A
1093 7400        E     MOV     A,#LOW c_mem+038H
1095 2F                ADD     A,R7
1096 F582              MOV     DPL,A
1098 7400        E     MOV     A,#HIGH c_mem+038H
109A 3E                ADDC    A,R6
109B F583              MOV     DPH,A
109D 120000      E     LCALL   ?C?LLDXDATA
10A0 900000      R     MOV     DPTR,#i
10A3 E0                MOVX    A,@DPTR
10A4 FA                MOV     R2,A
10A5 A3                INC     DPTR
10A6 E0                MOVX    A,@DPTR
10A7 FB                MOV     R3,A
10A8 7400        E     MOV     A,#LOW c_mem+035H
10AA 2B                ADD     A,R3
10AB F582              MOV     DPL,A
10AD 7400        E     MOV     A,#HIGH c_mem+035H
10AF 3A                ADDC    A,R2
10B0 F583              MOV     DPH,A
10B2 E0                MOVX    A,@DPTR
10B3 F9                MOV     R1,A
10B4 A801              MOV     R0,AR1
10B6 120000      E     LCALL   ?C?SLSHR
10B9 900000      E     MOV     DPTR,#?_sprintf?BYTE+08H
10BC 120000      E     LCALL   ?C?LSTXDATA
10BF D001              POP     AR1
10C1 D002              POP     AR2
10C3 D003              POP     AR3
10C5 120000      E     LCALL   _sprintf
                                           ; SOURCE LINE # 1186
10C8 900000      R     MOV     DPTR,#info_string
10CB 120000      E     LCALL   ?C?PLDXDATA
10CE C003              PUSH    AR3
10D0 C002              PUSH    AR2
10D2 C001              PUSH    AR1
10D4 7B01              MOV     R3,#01H
10D6 7A00        R     MOV     R2,#HIGH str
10D8 7900        R     MOV     R1,#LOW str
10DA 900000      E     MOV     DPTR,#?_strcat?BYTE+03H
10DD 120000      E     LCALL   ?C?PSTXDATA
10E0 D001              POP     AR1
C51 COMPILER V9.51   COMMAND_PROCESSING                                                    02/09/2021 12:42:36 PAGE 158 

10E2 D002              POP     AR2
10E4 D003              POP     AR3
10E6 120000      E     LCALL   _strcat
                                           ; SOURCE LINE # 1187
10E9 900000      R     MOV     DPTR,#info_string
10EC 120000      E     LCALL   ?C?PLDXDATA
10EF C003              PUSH    AR3
10F1 C002              PUSH    AR2
10F3 C001              PUSH    AR1
10F5 7BFF              MOV     R3,#0FFH
10F7 7A00        R     MOV     R2,#HIGH ?SC_142
10F9 7900        R     MOV     R1,#LOW ?SC_142
10FB 900000      E     MOV     DPTR,#?_strcat?BYTE+03H
10FE 120000      E     LCALL   ?C?PSTXDATA
1101 D001              POP     AR1
1103 D002              POP     AR2
1105 D003              POP     AR3
1107 120000      E     LCALL   _strcat
                                           ; SOURCE LINE # 1188
110A 900000      R     MOV     DPTR,#i
110D E4                CLR     A
110E 75F001            MOV     B,#01H
1111 120000      E     LCALL   ?C?IILDX
1114 020000      R     LJMP    ?C0293
1117         ?C0294:
                                           ; SOURCE LINE # 1190
1117 900000      R     MOV     DPTR,#info_string
111A 120000      E     LCALL   ?C?PLDXDATA
111D C003              PUSH    AR3
111F C002              PUSH    AR2
1121 C001              PUSH    AR1
1123 7BFF              MOV     R3,#0FFH
1125 7A00        R     MOV     R2,#HIGH ?SC_1052
1127 7900        R     MOV     R1,#LOW ?SC_1052
1129 900000      E     MOV     DPTR,#?_strcat?BYTE+03H
112C 120000      E     LCALL   ?C?PSTXDATA
112F D001              POP     AR1
1131 D002              POP     AR2
1133 D003              POP     AR3
1135 120000      E     LCALL   _strcat
                                           ; SOURCE LINE # 1191
1138 900000      R     MOV     DPTR,#i
113B E4                CLR     A
113C F0                MOVX    @DPTR,A
113D A3                INC     DPTR
113E E4                CLR     A
113F F0                MOVX    @DPTR,A
1140         ?C0296:
1140 900000      R     MOV     DPTR,#i
1143 E0                MOVX    A,@DPTR
1144 FE                MOV     R6,A
1145 A3                INC     DPTR
1146 E0                MOVX    A,@DPTR
1147 FF                MOV     R7,A
1148 C3                CLR     C
1149 EF                MOV     A,R7
114A 9403              SUBB    A,#03H
114C EE                MOV     A,R6
114D 6480              XRL     A,#080H
114F 9480              SUBB    A,#080H
1151 4003              JC      $ + 5H
1153 020000      R     LJMP    ?C0297
C51 COMPILER V9.51   COMMAND_PROCESSING                                                    02/09/2021 12:42:36 PAGE 159 

                                           ; SOURCE LINE # 1192
1156 7B01              MOV     R3,#01H
1158 7A00        R     MOV     R2,#HIGH str
115A 7900        R     MOV     R1,#LOW str
115C C003              PUSH    AR3
115E C002              PUSH    AR2
1160 C001              PUSH    AR1
1162 7BFF              MOV     R3,#0FFH
1164 7A00        R     MOV     R2,#HIGH ?SC_1078
1166 7900        R     MOV     R1,#LOW ?SC_1078
1168 900000      E     MOV     DPTR,#?_sprintf?BYTE+03H
116B 120000      E     LCALL   ?C?PSTXDATA
116E 900000      R     MOV     DPTR,#i
1171 E0                MOVX    A,@DPTR
1172 FE                MOV     R6,A
1173 A3                INC     DPTR
1174 E0                MOVX    A,@DPTR
1175 FF                MOV     R7,A
1176 EF                MOV     A,R7
1177 2401              ADD     A,#01H
1179 FF                MOV     R7,A
117A EE                MOV     A,R6
117B 3400              ADDC    A,#00H
117D FE                MOV     R6,A
117E 900000      E     MOV     DPTR,#?_sprintf?BYTE+06H
1181 EE                MOV     A,R6
1182 F0                MOVX    @DPTR,A
1183 A3                INC     DPTR
1184 EF                MOV     A,R7
1185 F0                MOVX    @DPTR,A
1186 900000      R     MOV     DPTR,#i
1189 E0                MOVX    A,@DPTR
118A FE                MOV     R6,A
118B A3                INC     DPTR
118C E0                MOVX    A,@DPTR
118D FF                MOV     R7,A
118E EF                MOV     A,R7
118F 7802              MOV     R0,#02H
1191         ?C0434:
1191 C3                CLR     C
1192 33                RLC     A
1193 CE                XCH     A,R6
1194 33                RLC     A
1195 CE                XCH     A,R6
1196 D8F9              DJNZ    R0,?C0434
1198 FF                MOV     R7,A
1199 7400        E     MOV     A,#LOW c_mem+044H
119B 2F                ADD     A,R7
119C F582              MOV     DPL,A
119E 7400        E     MOV     A,#HIGH c_mem+044H
11A0 3E                ADDC    A,R6
11A1 F583              MOV     DPH,A
11A3 120000      E     LCALL   ?C?LLDXDATA
11A6 900000      E     MOV     DPTR,#?_sprintf?BYTE+08H
11A9 120000      E     LCALL   ?C?LSTXDATA
11AC D001              POP     AR1
11AE D002              POP     AR2
11B0 D003              POP     AR3
11B2 120000      E     LCALL   _sprintf
                                           ; SOURCE LINE # 1193
11B5 900000      R     MOV     DPTR,#info_string
11B8 120000      E     LCALL   ?C?PLDXDATA
C51 COMPILER V9.51   COMMAND_PROCESSING                                                    02/09/2021 12:42:36 PAGE 160 

11BB C003              PUSH    AR3
11BD C002              PUSH    AR2
11BF C001              PUSH    AR1
11C1 7B01              MOV     R3,#01H
11C3 7A00        R     MOV     R2,#HIGH str
11C5 7900        R     MOV     R1,#LOW str
11C7 900000      E     MOV     DPTR,#?_strcat?BYTE+03H
11CA 120000      E     LCALL   ?C?PSTXDATA
11CD D001              POP     AR1
11CF D002              POP     AR2
11D1 D003              POP     AR3
11D3 120000      E     LCALL   _strcat
                                           ; SOURCE LINE # 1194
11D6 900000      R     MOV     DPTR,#info_string
11D9 120000      E     LCALL   ?C?PLDXDATA
11DC C003              PUSH    AR3
11DE C002              PUSH    AR2
11E0 C001              PUSH    AR1
11E2 7BFF              MOV     R3,#0FFH
11E4 7A00        R     MOV     R2,#HIGH ?SC_142
11E6 7900        R     MOV     R1,#LOW ?SC_142
11E8 900000      E     MOV     DPTR,#?_strcat?BYTE+03H
11EB 120000      E     LCALL   ?C?PSTXDATA
11EE D001              POP     AR1
11F0 D002              POP     AR2
11F2 D003              POP     AR3
11F4 120000      E     LCALL   _strcat
                                           ; SOURCE LINE # 1195
11F7 900000      R     MOV     DPTR,#i
11FA E4                CLR     A
11FB 75F001            MOV     B,#01H
11FE 120000      E     LCALL   ?C?IILDX
1201 020000      R     LJMP    ?C0296
1204         ?C0297:
                                           ; SOURCE LINE # 1197
1204 900000      R     MOV     DPTR,#info_string
1207 120000      E     LCALL   ?C?PLDXDATA
120A C003              PUSH    AR3
120C C002              PUSH    AR2
120E C001              PUSH    AR1
1210 7BFF              MOV     R3,#0FFH
1212 7A00        R     MOV     R2,#HIGH ?SC_1087
1214 7900        R     MOV     R1,#LOW ?SC_1087
1216 900000      E     MOV     DPTR,#?_strcat?BYTE+03H
1219 120000      E     LCALL   ?C?PSTXDATA
121C D001              POP     AR1
121E D002              POP     AR2
1220 D003              POP     AR3
1222 120000      E     LCALL   _strcat
                                           ; SOURCE LINE # 1198
1225 7B01              MOV     R3,#01H
1227 7A00        R     MOV     R2,#HIGH str
1229 7900        R     MOV     R1,#LOW str
122B C003              PUSH    AR3
122D C002              PUSH    AR2
122F C001              PUSH    AR1
1231 7BFF              MOV     R3,#0FFH
1233 7A00        R     MOV     R2,#HIGH ?SC_1111
1235 7900        R     MOV     R1,#LOW ?SC_1111
1237 900000      E     MOV     DPTR,#?_sprintf?BYTE+03H
123A 120000      E     LCALL   ?C?PSTXDATA
123D 900000      E     MOV     DPTR,#c_mem+07CH
C51 COMPILER V9.51   COMMAND_PROCESSING                                                    02/09/2021 12:42:36 PAGE 161 

1240 120000      E     LCALL   ?C?LLDXDATA
1243 900000      E     MOV     DPTR,#?_sprintf?BYTE+06H
1246 120000      E     LCALL   ?C?LSTXDATA
1249 900000      E     MOV     DPTR,#c_mem+080H
124C 120000      E     LCALL   ?C?LLDXDATA
124F 900000      E     MOV     DPTR,#?_sprintf?BYTE+0AH
1252 120000      E     LCALL   ?C?LSTXDATA
1255 900000      E     MOV     DPTR,#c_mem+084H
1258 120000      E     LCALL   ?C?LLDXDATA
125B 900000      E     MOV     DPTR,#?_sprintf?BYTE+0EH
125E 120000      E     LCALL   ?C?LSTXDATA
1261 D001              POP     AR1
1263 D002              POP     AR2
1265 D003              POP     AR3
1267 120000      E     LCALL   _sprintf
                                           ; SOURCE LINE # 1199
126A 900000      R     MOV     DPTR,#info_string
126D 120000      E     LCALL   ?C?PLDXDATA
1270 C003              PUSH    AR3
1272 C002              PUSH    AR2
1274 C001              PUSH    AR1
1276 7B01              MOV     R3,#01H
1278 7A00        R     MOV     R2,#HIGH str
127A 7900        R     MOV     R1,#LOW str
127C 900000      E     MOV     DPTR,#?_strcat?BYTE+03H
127F 120000      E     LCALL   ?C?PSTXDATA
1282 D001              POP     AR1
1284 D002              POP     AR2
1286 D003              POP     AR3
1288 120000      E     LCALL   _strcat
                                           ; SOURCE LINE # 1200
128B 7B01              MOV     R3,#01H
128D 7A00        R     MOV     R2,#HIGH str
128F 7900        R     MOV     R1,#LOW str
1291 C003              PUSH    AR3
1293 C002              PUSH    AR2
1295 C001              PUSH    AR1
1297 7BFF              MOV     R3,#0FFH
1299 7A00        R     MOV     R2,#HIGH ?SC_1136
129B 7900        R     MOV     R1,#LOW ?SC_1136
129D 900000      E     MOV     DPTR,#?_sprintf?BYTE+03H
12A0 120000      E     LCALL   ?C?PSTXDATA
12A3 900000      E     MOV     DPTR,#c_mem+088H
12A6 120000      E     LCALL   ?C?LLDXDATA
12A9 900000      E     MOV     DPTR,#?_sprintf?BYTE+06H
12AC 120000      E     LCALL   ?C?LSTXDATA
12AF 900000      E     MOV     DPTR,#c_mem+08CH
12B2 120000      E     LCALL   ?C?LLDXDATA
12B5 900000      E     MOV     DPTR,#?_sprintf?BYTE+0AH
12B8 120000      E     LCALL   ?C?LSTXDATA
12BB 900000      E     MOV     DPTR,#c_mem+090H
12BE 120000      E     LCALL   ?C?LLDXDATA
12C1 900000      E     MOV     DPTR,#?_sprintf?BYTE+0EH
12C4 120000      E     LCALL   ?C?LSTXDATA
12C7 D001              POP     AR1
12C9 D002              POP     AR2
12CB D003              POP     AR3
12CD 120000      E     LCALL   _sprintf
                                           ; SOURCE LINE # 1201
12D0 900000      R     MOV     DPTR,#info_string
12D3 120000      E     LCALL   ?C?PLDXDATA
12D6 C003              PUSH    AR3
C51 COMPILER V9.51   COMMAND_PROCESSING                                                    02/09/2021 12:42:36 PAGE 162 

12D8 C002              PUSH    AR2
12DA C001              PUSH    AR1
12DC 7B01              MOV     R3,#01H
12DE 7A00        R     MOV     R2,#HIGH str
12E0 7900        R     MOV     R1,#LOW str
12E2 900000      E     MOV     DPTR,#?_strcat?BYTE+03H
12E5 120000      E     LCALL   ?C?PSTXDATA
12E8 D001              POP     AR1
12EA D002              POP     AR2
12EC D003              POP     AR3
12EE 120000      E     LCALL   _strcat
                                           ; SOURCE LINE # 1202
12F1 900000      R     MOV     DPTR,#info_string
12F4 120000      E     LCALL   ?C?PLDXDATA
12F7 C003              PUSH    AR3
12F9 C002              PUSH    AR2
12FB C001              PUSH    AR1
12FD 7BFF              MOV     R3,#0FFH
12FF 7A00        R     MOV     R2,#HIGH ?SC_142
1301 7900        R     MOV     R1,#LOW ?SC_142
1303 900000      E     MOV     DPTR,#?_strcat?BYTE+03H
1306 120000      E     LCALL   ?C?PSTXDATA
1309 D001              POP     AR1
130B D002              POP     AR2
130D D003              POP     AR3
130F 120000      E     LCALL   _strcat
                                           ; SOURCE LINE # 1205
1312 7B01              MOV     R3,#01H
1314 7A00        R     MOV     R2,#HIGH str
1316 7900        R     MOV     R1,#LOW str
1318 C003              PUSH    AR3
131A C002              PUSH    AR2
131C C001              PUSH    AR1
131E 7BFF              MOV     R3,#0FFH
1320 7A00        R     MOV     R2,#HIGH ?SC_1161
1322 7900        R     MOV     R1,#LOW ?SC_1161
1324 900000      E     MOV     DPTR,#?_sprintf?BYTE+03H
1327 120000      E     LCALL   ?C?PSTXDATA
132A 900000      E     MOV     DPTR,#g_mem+050H
132D E0                MOVX    A,@DPTR
132E FF                MOV     R7,A
132F 7E00              MOV     R6,#00H
1331 900000      E     MOV     DPTR,#?_sprintf?BYTE+06H
1334 EE                MOV     A,R6
1335 F0                MOVX    @DPTR,A
1336 A3                INC     DPTR
1337 EF                MOV     A,R7
1338 F0                MOVX    @DPTR,A
1339 D001              POP     AR1
133B D002              POP     AR2
133D D003              POP     AR3
133F 120000      E     LCALL   _sprintf
                                           ; SOURCE LINE # 1206
1342 900000      R     MOV     DPTR,#info_string
1345 120000      E     LCALL   ?C?PLDXDATA
1348 C003              PUSH    AR3
134A C002              PUSH    AR2
134C C001              PUSH    AR1
134E 7B01              MOV     R3,#01H
1350 7A00        R     MOV     R2,#HIGH str
1352 7900        R     MOV     R1,#LOW str
1354 900000      E     MOV     DPTR,#?_strcat?BYTE+03H
C51 COMPILER V9.51   COMMAND_PROCESSING                                                    02/09/2021 12:42:36 PAGE 163 

1357 120000      E     LCALL   ?C?PSTXDATA
135A D001              POP     AR1
135C D002              POP     AR2
135E D003              POP     AR3
1360 120000      E     LCALL   _strcat
                                           ; SOURCE LINE # 1207
1363 900000      R     MOV     DPTR,#info_string
1366 120000      E     LCALL   ?C?PLDXDATA
1369 C003              PUSH    AR3
136B C002              PUSH    AR2
136D C001              PUSH    AR1
136F 7BFF              MOV     R3,#0FFH
1371 7A00        R     MOV     R2,#HIGH ?SC_142
1373 7900        R     MOV     R1,#LOW ?SC_142
1375 900000      E     MOV     DPTR,#?_strcat?BYTE+03H
1378 120000      E     LCALL   ?C?PSTXDATA
137B D001              POP     AR1
137D D002              POP     AR2
137F D003              POP     AR3
1381 120000      E     LCALL   _strcat
                                           ; SOURCE LINE # 1209
1384 900000      R     MOV     DPTR,#i
1387 E4                CLR     A
1388 F0                MOVX    @DPTR,A
1389 A3                INC     DPTR
138A E4                CLR     A
138B F0                MOVX    @DPTR,A
138C         ?C0299:
138C 900000      R     MOV     DPTR,#i
138F E0                MOVX    A,@DPTR
1390 FE                MOV     R6,A
1391 A3                INC     DPTR
1392 E0                MOVX    A,@DPTR
1393 FF                MOV     R7,A
1394 C3                CLR     C
1395 EF                MOV     A,R7
1396 9401              SUBB    A,#01H
1398 EE                MOV     A,R6
1399 6480              XRL     A,#080H
139B 9480              SUBB    A,#080H
139D 4003              JC      $ + 5H
139F 020000      R     LJMP    ?C0300
                                           ; SOURCE LINE # 1211
13A2 7B01              MOV     R3,#01H
13A4 7A00        R     MOV     R2,#HIGH str
13A6 7900        R     MOV     R1,#LOW str
13A8 C003              PUSH    AR3
13AA C002              PUSH    AR2
13AC C001              PUSH    AR1
13AE 7BFF              MOV     R3,#0FFH
13B0 7A00        R     MOV     R2,#HIGH ?SC_1187
13B2 7900        R     MOV     R1,#LOW ?SC_1187
13B4 900000      E     MOV     DPTR,#?_sprintf?BYTE+03H
13B7 120000      E     LCALL   ?C?PSTXDATA
13BA 900000      R     MOV     DPTR,#i
13BD E0                MOVX    A,@DPTR
13BE FE                MOV     R6,A
13BF A3                INC     DPTR
13C0 E0                MOVX    A,@DPTR
13C1 FF                MOV     R7,A
13C2 EF                MOV     A,R7
13C3 2401              ADD     A,#01H
C51 COMPILER V9.51   COMMAND_PROCESSING                                                    02/09/2021 12:42:36 PAGE 164 

13C5 FF                MOV     R7,A
13C6 EE                MOV     A,R6
13C7 3400              ADDC    A,#00H
13C9 FE                MOV     R6,A
13CA 900000      E     MOV     DPTR,#?_sprintf?BYTE+06H
13CD EE                MOV     A,R6
13CE F0                MOVX    @DPTR,A
13CF A3                INC     DPTR
13D0 EF                MOV     A,R7
13D1 F0                MOVX    @DPTR,A
13D2 900000      R     MOV     DPTR,#i
13D5 E0                MOVX    A,@DPTR
13D6 FE                MOV     R6,A
13D7 A3                INC     DPTR
13D8 E0                MOVX    A,@DPTR
13D9 FF                MOV     R7,A
13DA EF                MOV     A,R7
13DB 7802              MOV     R0,#02H
13DD         ?C0435:
13DD C3                CLR     C
13DE 33                RLC     A
13DF CE                XCH     A,R6
13E0 33                RLC     A
13E1 CE                XCH     A,R6
13E2 D8F9              DJNZ    R0,?C0435
13E4 FF                MOV     R7,A
13E5 7400        E     MOV     A,#LOW g_mem+051H
13E7 2F                ADD     A,R7
13E8 F582              MOV     DPL,A
13EA 7400        E     MOV     A,#HIGH g_mem+051H
13EC 3E                ADDC    A,R6
13ED F583              MOV     DPH,A
13EF 120000      E     LCALL   ?C?LLDXDATA
13F2 900000      R     MOV     DPTR,#i
13F5 E0                MOVX    A,@DPTR
13F6 FA                MOV     R2,A
13F7 A3                INC     DPTR
13F8 E0                MOVX    A,@DPTR
13F9 FB                MOV     R3,A
13FA 7400        E     MOV     A,#LOW g_mem+035H
13FC 2B                ADD     A,R3
13FD F582              MOV     DPL,A
13FF 7400        E     MOV     A,#HIGH g_mem+035H
1401 3A                ADDC    A,R2
1402 F583              MOV     DPH,A
1404 E0                MOVX    A,@DPTR
1405 F9                MOV     R1,A
1406 A801              MOV     R0,AR1
1408 120000      E     LCALL   ?C?SLSHR
140B 900000      E     MOV     DPTR,#?_sprintf?BYTE+08H
140E 120000      E     LCALL   ?C?LSTXDATA
1411 D001              POP     AR1
1413 D002              POP     AR2
1415 D003              POP     AR3
1417 120000      E     LCALL   _sprintf
                                           ; SOURCE LINE # 1212
141A 900000      R     MOV     DPTR,#info_string
141D 120000      E     LCALL   ?C?PLDXDATA
1420 C003              PUSH    AR3
1422 C002              PUSH    AR2
1424 C001              PUSH    AR1
1426 7B01              MOV     R3,#01H
C51 COMPILER V9.51   COMMAND_PROCESSING                                                    02/09/2021 12:42:36 PAGE 165 

1428 7A00        R     MOV     R2,#HIGH str
142A 7900        R     MOV     R1,#LOW str
142C 900000      E     MOV     DPTR,#?_strcat?BYTE+03H
142F 120000      E     LCALL   ?C?PSTXDATA
1432 D001              POP     AR1
1434 D002              POP     AR2
1436 D003              POP     AR3
1438 120000      E     LCALL   _strcat
                                           ; SOURCE LINE # 1215
143B 7B01              MOV     R3,#01H
143D 7A00        R     MOV     R2,#HIGH str
143F 7900        R     MOV     R1,#LOW str
1441 C003              PUSH    AR3
1443 C002              PUSH    AR2
1445 C001              PUSH    AR1
1447 7BFF              MOV     R3,#0FFH
1449 7A00        R     MOV     R2,#HIGH ?SC_1225
144B 7900        R     MOV     R1,#LOW ?SC_1225
144D 900000      E     MOV     DPTR,#?_sprintf?BYTE+03H
1450 120000      E     LCALL   ?C?PSTXDATA
1453 900000      R     MOV     DPTR,#i
1456 E0                MOVX    A,@DPTR
1457 FE                MOV     R6,A
1458 A3                INC     DPTR
1459 E0                MOVX    A,@DPTR
145A FF                MOV     R7,A
145B EF                MOV     A,R7
145C 7802              MOV     R0,#02H
145E         ?C0436:
145E C3                CLR     C
145F 33                RLC     A
1460 CE                XCH     A,R6
1461 33                RLC     A
1462 CE                XCH     A,R6
1463 D8F9              DJNZ    R0,?C0436
1465 FF                MOV     R7,A
1466 7400        E     MOV     A,#LOW g_mem+059H
1468 2F                ADD     A,R7
1469 F582              MOV     DPL,A
146B 7400        E     MOV     A,#HIGH g_mem+059H
146D 3E                ADDC    A,R6
146E F583              MOV     DPH,A
1470 120000      E     LCALL   ?C?LLDXDATA
1473 900000      R     MOV     DPTR,#i
1476 E0                MOVX    A,@DPTR
1477 FA                MOV     R2,A
1478 A3                INC     DPTR
1479 E0                MOVX    A,@DPTR
147A FB                MOV     R3,A
147B 7400        E     MOV     A,#LOW g_mem+035H
147D 2B                ADD     A,R3
147E F582              MOV     DPL,A
1480 7400        E     MOV     A,#HIGH g_mem+035H
1482 3A                ADDC    A,R2
1483 F583              MOV     DPH,A
1485 E0                MOVX    A,@DPTR
1486 F9                MOV     R1,A
1487 A801              MOV     R0,AR1
1489 120000      E     LCALL   ?C?SLSHR
148C 900000      E     MOV     DPTR,#?_sprintf?BYTE+06H
148F 120000      E     LCALL   ?C?LSTXDATA
1492 D001              POP     AR1
C51 COMPILER V9.51   COMMAND_PROCESSING                                                    02/09/2021 12:42:36 PAGE 166 

1494 D002              POP     AR2
1496 D003              POP     AR3
1498 120000      E     LCALL   _sprintf
                                           ; SOURCE LINE # 1216
149B 900000      R     MOV     DPTR,#info_string
149E 120000      E     LCALL   ?C?PLDXDATA
14A1 C003              PUSH    AR3
14A3 C002              PUSH    AR2
14A5 C001              PUSH    AR1
14A7 7B01              MOV     R3,#01H
14A9 7A00        R     MOV     R2,#HIGH str
14AB 7900        R     MOV     R1,#LOW str
14AD 900000      E     MOV     DPTR,#?_strcat?BYTE+03H
14B0 120000      E     LCALL   ?C?PSTXDATA
14B3 D001              POP     AR1
14B5 D002              POP     AR2
14B7 D003              POP     AR3
14B9 120000      E     LCALL   _strcat
                                           ; SOURCE LINE # 1217
14BC 900000      R     MOV     DPTR,#i
14BF E4                CLR     A
14C0 75F001            MOV     B,#01H
14C3 120000      E     LCALL   ?C?IILDX
14C6 020000      R     LJMP    ?C0299
14C9         ?C0300:
                                           ; SOURCE LINE # 1219
14C9 7B01              MOV     R3,#01H
14CB 7A00        R     MOV     R2,#HIGH str
14CD 7900        R     MOV     R1,#LOW str
14CF C003              PUSH    AR3
14D1 C002              PUSH    AR2
14D3 C001              PUSH    AR1
14D5 7BFF              MOV     R3,#0FFH
14D7 7A00        R     MOV     R2,#HIGH ?SC_1238
14D9 7900        R     MOV     R1,#LOW ?SC_1238
14DB 900000      E     MOV     DPTR,#?_sprintf?BYTE+03H
14DE 120000      E     LCALL   ?C?PSTXDATA
14E1 900000      E     MOV     DPTR,#g_mem+061H
14E4 120000      E     LCALL   ?C?LLDXDATA
14E7 900000      E     MOV     DPTR,#?_sprintf?BYTE+06H
14EA EE                MOV     A,R6
14EB F0                MOVX    @DPTR,A
14EC A3                INC     DPTR
14ED EF                MOV     A,R7
14EE F0                MOVX    @DPTR,A
14EF 900000      E     MOV     DPTR,#g_mem+065H
14F2 120000      E     LCALL   ?C?LLDXDATA
14F5 900000      E     MOV     DPTR,#?_sprintf?BYTE+08H
14F8 EE                MOV     A,R6
14F9 F0                MOVX    @DPTR,A
14FA A3                INC     DPTR
14FB EF                MOV     A,R7
14FC F0                MOVX    @DPTR,A
14FD D001              POP     AR1
14FF D002              POP     AR2
1501 D003              POP     AR3
1503 120000      E     LCALL   _sprintf
                                           ; SOURCE LINE # 1220
1506 900000      R     MOV     DPTR,#info_string
1509 120000      E     LCALL   ?C?PLDXDATA
150C C003              PUSH    AR3
150E C002              PUSH    AR2
C51 COMPILER V9.51   COMMAND_PROCESSING                                                    02/09/2021 12:42:36 PAGE 167 

1510 C001              PUSH    AR1
1512 7B01              MOV     R3,#01H
1514 7A00        R     MOV     R2,#HIGH str
1516 7900        R     MOV     R1,#LOW str
1518 900000      E     MOV     DPTR,#?_strcat?BYTE+03H
151B 120000      E     LCALL   ?C?PSTXDATA
151E D001              POP     AR1
1520 D002              POP     AR2
1522 D003              POP     AR3
1524 120000      E     LCALL   _strcat
                                           ; SOURCE LINE # 1221
1527 900000      R     MOV     DPTR,#info_string
152A 120000      E     LCALL   ?C?PLDXDATA
152D C003              PUSH    AR3
152F C002              PUSH    AR2
1531 C001              PUSH    AR1
1533 7BFF              MOV     R3,#0FFH
1535 7A00        R     MOV     R2,#HIGH ?SC_142
1537 7900        R     MOV     R1,#LOW ?SC_142
1539 900000      E     MOV     DPTR,#?_strcat?BYTE+03H
153C 120000      E     LCALL   ?C?PSTXDATA
153F D001              POP     AR1
1541 D002              POP     AR2
1543 D003              POP     AR3
1545 120000      E     LCALL   _strcat
                                           ; SOURCE LINE # 1223
1548 7B01              MOV     R3,#01H
154A 7A00        R     MOV     R2,#HIGH str
154C 7900        R     MOV     R1,#LOW str
154E C003              PUSH    AR3
1550 C002              PUSH    AR2
1552 C001              PUSH    AR1
1554 7BFF              MOV     R3,#0FFH
1556 7A00        R     MOV     R2,#HIGH ?SC_1266
1558 7900        R     MOV     R1,#LOW ?SC_1266
155A 900000      E     MOV     DPTR,#?_sprintf?BYTE+03H
155D 120000      E     LCALL   ?C?PSTXDATA
1560 900000      E     MOV     DPTR,#g_mem+069H
1563 E0                MOVX    A,@DPTR
1564 FE                MOV     R6,A
1565 A3                INC     DPTR
1566 E0                MOVX    A,@DPTR
1567 FF                MOV     R7,A
1568 900000      E     MOV     DPTR,#?_sprintf?BYTE+06H
156B EE                MOV     A,R6
156C F0                MOVX    @DPTR,A
156D A3                INC     DPTR
156E EF                MOV     A,R7
156F F0                MOVX    @DPTR,A
1570 D001              POP     AR1
1572 D002              POP     AR2
1574 D003              POP     AR3
1576 120000      E     LCALL   _sprintf
                                           ; SOURCE LINE # 1224
1579 900000      R     MOV     DPTR,#info_string
157C 120000      E     LCALL   ?C?PLDXDATA
157F C003              PUSH    AR3
1581 C002              PUSH    AR2
1583 C001              PUSH    AR1
1585 7B01              MOV     R3,#01H
1587 7A00        R     MOV     R2,#HIGH str
1589 7900        R     MOV     R1,#LOW str
C51 COMPILER V9.51   COMMAND_PROCESSING                                                    02/09/2021 12:42:36 PAGE 168 

158B 900000      E     MOV     DPTR,#?_strcat?BYTE+03H
158E 120000      E     LCALL   ?C?PSTXDATA
1591 D001              POP     AR1
1593 D002              POP     AR2
1595 D003              POP     AR3
1597 120000      E     LCALL   _strcat
                                           ; SOURCE LINE # 1225
159A 900000      R     MOV     DPTR,#info_string
159D 120000      E     LCALL   ?C?PLDXDATA
15A0 C003              PUSH    AR3
15A2 C002              PUSH    AR2
15A4 C001              PUSH    AR1
15A6 7BFF              MOV     R3,#0FFH
15A8 7A00        R     MOV     R2,#HIGH ?SC_142
15AA 7900        R     MOV     R1,#LOW ?SC_142
15AC 900000      E     MOV     DPTR,#?_strcat?BYTE+03H
15AF 120000      E     LCALL   ?C?PSTXDATA
15B2 D001              POP     AR1
15B4 D002              POP     AR2
15B6 D003              POP     AR3
15B8 120000      E     LCALL   _strcat
                                           ; SOURCE LINE # 1227
15BB 7B01              MOV     R3,#01H
15BD 7A00        R     MOV     R2,#HIGH str
15BF 7900        R     MOV     R1,#LOW str
15C1 C003              PUSH    AR3
15C3 C002              PUSH    AR2
15C5 C001              PUSH    AR1
15C7 7BFF              MOV     R3,#0FFH
15C9 7A00        R     MOV     R2,#HIGH ?SC_1284
15CB 7900        R     MOV     R1,#LOW ?SC_1284
15CD 900000      E     MOV     DPTR,#?_sprintf?BYTE+03H
15D0 120000      E     LCALL   ?C?PSTXDATA
15D3 900000      E     MOV     DPTR,#g_mem+06BH
15D6 E0                MOVX    A,@DPTR
15D7 FE                MOV     R6,A
15D8 A3                INC     DPTR
15D9 E0                MOVX    A,@DPTR
15DA FF                MOV     R7,A
15DB 900000      E     MOV     DPTR,#?_sprintf?BYTE+06H
15DE EE                MOV     A,R6
15DF F0                MOVX    @DPTR,A
15E0 A3                INC     DPTR
15E1 EF                MOV     A,R7
15E2 F0                MOVX    @DPTR,A
15E3 900000      E     MOV     DPTR,#g_mem+06DH
15E6 E0                MOVX    A,@DPTR
15E7 FE                MOV     R6,A
15E8 A3                INC     DPTR
15E9 E0                MOVX    A,@DPTR
15EA FF                MOV     R7,A
15EB 900000      E     MOV     DPTR,#?_sprintf?BYTE+08H
15EE EE                MOV     A,R6
15EF F0                MOVX    @DPTR,A
15F0 A3                INC     DPTR
15F1 EF                MOV     A,R7
15F2 F0                MOVX    @DPTR,A
15F3 D001              POP     AR1
15F5 D002              POP     AR2
15F7 D003              POP     AR3
15F9 120000      E     LCALL   _sprintf
                                           ; SOURCE LINE # 1228
C51 COMPILER V9.51   COMMAND_PROCESSING                                                    02/09/2021 12:42:36 PAGE 169 

15FC 900000      R     MOV     DPTR,#info_string
15FF 120000      E     LCALL   ?C?PLDXDATA
1602 C003              PUSH    AR3
1604 C002              PUSH    AR2
1606 C001              PUSH    AR1
1608 7B01              MOV     R3,#01H
160A 7A00        R     MOV     R2,#HIGH str
160C 7900        R     MOV     R1,#LOW str
160E 900000      E     MOV     DPTR,#?_strcat?BYTE+03H
1611 120000      E     LCALL   ?C?PSTXDATA
1614 D001              POP     AR1
1616 D002              POP     AR2
1618 D003              POP     AR3
161A 120000      E     LCALL   _strcat
                                           ; SOURCE LINE # 1229
161D 900000      R     MOV     DPTR,#info_string
1620 120000      E     LCALL   ?C?PLDXDATA
1623 C003              PUSH    AR3
1625 C002              PUSH    AR2
1627 C001              PUSH    AR1
1629 7BFF              MOV     R3,#0FFH
162B 7A00        R     MOV     R2,#HIGH ?SC_142
162D 7900        R     MOV     R1,#LOW ?SC_142
162F 900000      E     MOV     DPTR,#?_strcat?BYTE+03H
1632 120000      E     LCALL   ?C?PSTXDATA
1635 D001              POP     AR1
1637 D002              POP     AR2
1639 D003              POP     AR3
163B 120000      E     LCALL   _strcat
                                           ; SOURCE LINE # 1231
163E 7B01              MOV     R3,#01H
1640 7A00        R     MOV     R2,#HIGH str
1642 7900        R     MOV     R1,#LOW str
1644 C003              PUSH    AR3
1646 C002              PUSH    AR2
1648 C001              PUSH    AR1
164A 7BFF              MOV     R3,#0FFH
164C 7A00        R     MOV     R2,#HIGH ?SC_1318
164E 7900        R     MOV     R1,#LOW ?SC_1318
1650 900000      E     MOV     DPTR,#?_sprintf?BYTE+03H
1653 120000      E     LCALL   ?C?PSTXDATA
1656 900000      E     MOV     DPTR,#g_mem+070H
1659 120000      E     LCALL   ?C?LLDXDATA
165C 900000      E     MOV     DPTR,#?_sprintf?BYTE+06H
165F 120000      E     LCALL   ?C?LSTXDATA
1662 900000      E     MOV     DPTR,#g_mem+074H
1665 120000      E     LCALL   ?C?LLDXDATA
1668 900000      E     MOV     DPTR,#?_sprintf?BYTE+0AH
166B 120000      E     LCALL   ?C?LSTXDATA
166E D001              POP     AR1
1670 D002              POP     AR2
1672 D003              POP     AR3
1674 120000      E     LCALL   _sprintf
                                           ; SOURCE LINE # 1232
1677 900000      R     MOV     DPTR,#info_string
167A 120000      E     LCALL   ?C?PLDXDATA
167D C003              PUSH    AR3
167F C002              PUSH    AR2
1681 C001              PUSH    AR1
1683 7B01              MOV     R3,#01H
1685 7A00        R     MOV     R2,#HIGH str
1687 7900        R     MOV     R1,#LOW str
C51 COMPILER V9.51   COMMAND_PROCESSING                                                    02/09/2021 12:42:36 PAGE 170 

1689 900000      E     MOV     DPTR,#?_strcat?BYTE+03H
168C 120000      E     LCALL   ?C?PSTXDATA
168F D001              POP     AR1
1691 D002              POP     AR2
1693 D003              POP     AR3
1695 120000      E     LCALL   _strcat
                                           ; SOURCE LINE # 1233
1698 900000      R     MOV     DPTR,#info_string
169B 120000      E     LCALL   ?C?PLDXDATA
169E C003              PUSH    AR3
16A0 C002              PUSH    AR2
16A2 C001              PUSH    AR1
16A4 7BFF              MOV     R3,#0FFH
16A6 7A00        R     MOV     R2,#HIGH ?SC_142
16A8 7900        R     MOV     R1,#LOW ?SC_142
16AA 900000      E     MOV     DPTR,#?_strcat?BYTE+03H
16AD 120000      E     LCALL   ?C?PSTXDATA
16B0 D001              POP     AR1
16B2 D002              POP     AR2
16B4 D003              POP     AR3
16B6 120000      E     LCALL   _strcat
                                           ; SOURCE LINE # 1235
16B9 900000      E     MOV     DPTR,#g_mem+06FH
16BC E0                MOVX    A,@DPTR
16BD FF                MOV     R7,A
16BE EF                MOV     A,R7
16BF 6023              JZ      ?C0302
                                           ; SOURCE LINE # 1236
16C1 900000      R     MOV     DPTR,#info_string
16C4 120000      E     LCALL   ?C?PLDXDATA
16C7 C003              PUSH    AR3
16C9 C002              PUSH    AR2
16CB C001              PUSH    AR1
16CD 7BFF              MOV     R3,#0FFH
16CF 7A00        R     MOV     R2,#HIGH ?SC_1354
16D1 7900        R     MOV     R1,#LOW ?SC_1354
16D3 900000      E     MOV     DPTR,#?_strcat?BYTE+03H
16D6 120000      E     LCALL   ?C?PSTXDATA
16D9 D001              POP     AR1
16DB D002              POP     AR2
16DD D003              POP     AR3
16DF 120000      E     LCALL   _strcat
16E2 8021              SJMP    ?C0303
16E4         ?C0302:
                                           ; SOURCE LINE # 1238
16E4 900000      R     MOV     DPTR,#info_string
16E7 120000      E     LCALL   ?C?PLDXDATA
16EA C003              PUSH    AR3
16EC C002              PUSH    AR2
16EE C001              PUSH    AR1
16F0 7BFF              MOV     R3,#0FFH
16F2 7A00        R     MOV     R2,#HIGH ?SC_1381
16F4 7900        R     MOV     R1,#LOW ?SC_1381
16F6 900000      E     MOV     DPTR,#?_strcat?BYTE+03H
16F9 120000      E     LCALL   ?C?PSTXDATA
16FC D001              POP     AR1
16FE D002              POP     AR2
1700 D003              POP     AR3
1702 120000      E     LCALL   _strcat
1705         ?C0303:
                                           ; SOURCE LINE # 1240
1705 7B01              MOV     R3,#01H
C51 COMPILER V9.51   COMMAND_PROCESSING                                                    02/09/2021 12:42:36 PAGE 171 

1707 7A00        R     MOV     R2,#HIGH str
1709 7900        R     MOV     R1,#LOW str
170B C003              PUSH    AR3
170D C002              PUSH    AR2
170F C001              PUSH    AR1
1711 7BFF              MOV     R3,#0FFH
1713 7A00        R     MOV     R2,#HIGH ?SC_1407
1715 7900        R     MOV     R1,#LOW ?SC_1407
1717 900000      E     MOV     DPTR,#?_sprintf?BYTE+03H
171A 120000      E     LCALL   ?C?PSTXDATA
171D 900000      E     MOV     DPTR,#g_mem+078H
1720 E0                MOVX    A,@DPTR
1721 FF                MOV     R7,A
1722 7E00              MOV     R6,#00H
1724 900000      E     MOV     DPTR,#?_sprintf?BYTE+06H
1727 EE                MOV     A,R6
1728 F0                MOVX    @DPTR,A
1729 A3                INC     DPTR
172A EF                MOV     A,R7
172B F0                MOVX    @DPTR,A
172C D001              POP     AR1
172E D002              POP     AR2
1730 D003              POP     AR3
1732 120000      E     LCALL   _sprintf
                                           ; SOURCE LINE # 1241
1735 900000      R     MOV     DPTR,#info_string
1738 120000      E     LCALL   ?C?PLDXDATA
173B C003              PUSH    AR3
173D C002              PUSH    AR2
173F C001              PUSH    AR1
1741 7B01              MOV     R3,#01H
1743 7A00        R     MOV     R2,#HIGH str
1745 7900        R     MOV     R1,#LOW str
1747 900000      E     MOV     DPTR,#?_strcat?BYTE+03H
174A 120000      E     LCALL   ?C?PSTXDATA
174D D001              POP     AR1
174F D002              POP     AR2
1751 D003              POP     AR3
1753 120000      E     LCALL   _strcat
                                           ; SOURCE LINE # 1242
1756 900000      R     MOV     DPTR,#info_string
1759 120000      E     LCALL   ?C?PLDXDATA
175C C003              PUSH    AR3
175E C002              PUSH    AR2
1760 C001              PUSH    AR1
1762 7BFF              MOV     R3,#0FFH
1764 7A00        R     MOV     R2,#HIGH ?SC_142
1766 7900        R     MOV     R1,#LOW ?SC_142
1768 900000      E     MOV     DPTR,#?_strcat?BYTE+03H
176B 120000      E     LCALL   ?C?PSTXDATA
176E D001              POP     AR1
1770 D002              POP     AR2
1772 D003              POP     AR3
1774 120000      E     LCALL   _strcat
                                           ; SOURCE LINE # 1244
1777 900000      E     MOV     DPTR,#g_mem+0A6H
177A E0                MOVX    A,@DPTR
177B FF                MOV     R7,A
177C EF                MOV     A,R7
177D 6401              XRL     A,#01H
177F 6003              JZ      $ + 5H
1781 020000      R     LJMP    ?C0304
C51 COMPILER V9.51   COMMAND_PROCESSING                                                    02/09/2021 12:42:36 PAGE 172 

                                           ; SOURCE LINE # 1245
1784 7B01              MOV     R3,#01H
1786 7A00        R     MOV     R2,#HIGH str
1788 7900        R     MOV     R1,#LOW str
178A C003              PUSH    AR3
178C C002              PUSH    AR2
178E C001              PUSH    AR1
1790 7BFF              MOV     R3,#0FFH
1792 7A00        R     MOV     R2,#HIGH ?SC_1425
1794 7900        R     MOV     R1,#LOW ?SC_1425
1796 900000      E     MOV     DPTR,#?_sprintf?BYTE+03H
1799 120000      E     LCALL   ?C?PSTXDATA
179C 900000      E     MOV     DPTR,#g_mem+09AH
179F 120000      E     LCALL   ?C?LLDXDATA
17A2 900000      E     MOV     DPTR,#?_sprintf?BYTE+06H
17A5 EE                MOV     A,R6
17A6 F0                MOVX    @DPTR,A
17A7 A3                INC     DPTR
17A8 EF                MOV     A,R7
17A9 F0                MOVX    @DPTR,A
17AA D001              POP     AR1
17AC D002              POP     AR2
17AE D003              POP     AR3
17B0 120000      E     LCALL   _sprintf
                                           ; SOURCE LINE # 1246
17B3 900000      R     MOV     DPTR,#info_string
17B6 120000      E     LCALL   ?C?PLDXDATA
17B9 C003              PUSH    AR3
17BB C002              PUSH    AR2
17BD C001              PUSH    AR1
17BF 7B01              MOV     R3,#01H
17C1 7A00        R     MOV     R2,#HIGH str
17C3 7900        R     MOV     R1,#LOW str
17C5 900000      E     MOV     DPTR,#?_strcat?BYTE+03H
17C8 120000      E     LCALL   ?C?PSTXDATA
17CB D001              POP     AR1
17CD D002              POP     AR2
17CF D003              POP     AR3
17D1 120000      E     LCALL   _strcat
                                           ; SOURCE LINE # 1247
17D4 900000      R     MOV     DPTR,#info_string
17D7 120000      E     LCALL   ?C?PLDXDATA
17DA C003              PUSH    AR3
17DC C002              PUSH    AR2
17DE C001              PUSH    AR1
17E0 7BFF              MOV     R3,#0FFH
17E2 7A00        R     MOV     R2,#HIGH ?SC_142
17E4 7900        R     MOV     R1,#LOW ?SC_142
17E6 900000      E     MOV     DPTR,#?_strcat?BYTE+03H
17E9 120000      E     LCALL   ?C?PSTXDATA
17EC D001              POP     AR1
17EE D002              POP     AR2
17F0 D003              POP     AR3
17F2 120000      E     LCALL   _strcat
                                           ; SOURCE LINE # 1249
17F5 7B01              MOV     R3,#01H
17F7 7A00        R     MOV     R2,#HIGH str
17F9 7900        R     MOV     R1,#LOW str
17FB C003              PUSH    AR3
17FD C002              PUSH    AR2
17FF C001              PUSH    AR1
1801 7BFF              MOV     R3,#0FFH
C51 COMPILER V9.51   COMMAND_PROCESSING                                                    02/09/2021 12:42:36 PAGE 173 

1803 7A00        R     MOV     R2,#HIGH ?SC_1450
1805 7900        R     MOV     R1,#LOW ?SC_1450
1807 900000      E     MOV     DPTR,#?_sprintf?BYTE+03H
180A 120000      E     LCALL   ?C?PSTXDATA
180D 900000      E     MOV     DPTR,#g_mem+09EH
1810 120000      E     LCALL   ?C?LLDXDATA
1813 900000      E     MOV     DPTR,#?_sprintf?BYTE+06H
1816 EE                MOV     A,R6
1817 F0                MOVX    @DPTR,A
1818 A3                INC     DPTR
1819 EF                MOV     A,R7
181A F0                MOVX    @DPTR,A
181B D001              POP     AR1
181D D002              POP     AR2
181F D003              POP     AR3
1821 120000      E     LCALL   _sprintf
                                           ; SOURCE LINE # 1250
1824 900000      R     MOV     DPTR,#info_string
1827 120000      E     LCALL   ?C?PLDXDATA
182A C003              PUSH    AR3
182C C002              PUSH    AR2
182E C001              PUSH    AR1
1830 7B01              MOV     R3,#01H
1832 7A00        R     MOV     R2,#HIGH str
1834 7900        R     MOV     R1,#LOW str
1836 900000      E     MOV     DPTR,#?_strcat?BYTE+03H
1839 120000      E     LCALL   ?C?PSTXDATA
183C D001              POP     AR1
183E D002              POP     AR2
1840 D003              POP     AR3
1842 120000      E     LCALL   _strcat
                                           ; SOURCE LINE # 1251
1845 900000      R     MOV     DPTR,#info_string
1848 120000      E     LCALL   ?C?PLDXDATA
184B C003              PUSH    AR3
184D C002              PUSH    AR2
184F C001              PUSH    AR1
1851 7BFF              MOV     R3,#0FFH
1853 7A00        R     MOV     R2,#HIGH ?SC_142
1855 7900        R     MOV     R1,#LOW ?SC_142
1857 900000      E     MOV     DPTR,#?_strcat?BYTE+03H
185A 120000      E     LCALL   ?C?PSTXDATA
185D D001              POP     AR1
185F D002              POP     AR2
1861 D003              POP     AR3
1863 120000      E     LCALL   _strcat
                                           ; SOURCE LINE # 1253
1866 7B01              MOV     R3,#01H
1868 7A00        R     MOV     R2,#HIGH str
186A 7900        R     MOV     R1,#LOW str
186C C003              PUSH    AR3
186E C002              PUSH    AR2
1870 C001              PUSH    AR1
1872 7BFF              MOV     R3,#0FFH
1874 7A00        R     MOV     R2,#HIGH ?SC_1488
1876 7900        R     MOV     R1,#LOW ?SC_1488
1878 900000      E     MOV     DPTR,#?_sprintf?BYTE+03H
187B 120000      E     LCALL   ?C?PSTXDATA
187E 900000      E     MOV     DPTR,#g_mem+096H
1881 120000      E     LCALL   ?C?LLDXDATA
1884 900000      E     MOV     DPTR,#c_mem+035H
1887 E0                MOVX    A,@DPTR
C51 COMPILER V9.51   COMMAND_PROCESSING                                                    02/09/2021 12:42:36 PAGE 174 

1888 F9                MOV     R1,A
1889 A801              MOV     R0,AR1
188B 120000      E     LCALL   ?C?SLSHR
188E 900000      E     MOV     DPTR,#?_sprintf?BYTE+06H
1891 EE                MOV     A,R6
1892 F0                MOVX    @DPTR,A
1893 A3                INC     DPTR
1894 EF                MOV     A,R7
1895 F0                MOVX    @DPTR,A
1896 D001              POP     AR1
1898 D002              POP     AR2
189A D003              POP     AR3
189C 120000      E     LCALL   _sprintf
                                           ; SOURCE LINE # 1254
189F 900000      R     MOV     DPTR,#info_string
18A2 120000      E     LCALL   ?C?PLDXDATA
18A5 C003              PUSH    AR3
18A7 C002              PUSH    AR2
18A9 C001              PUSH    AR1
18AB 7B01              MOV     R3,#01H
18AD 7A00        R     MOV     R2,#HIGH str
18AF 7900        R     MOV     R1,#LOW str
18B1 900000      E     MOV     DPTR,#?_strcat?BYTE+03H
18B4 120000      E     LCALL   ?C?PSTXDATA
18B7 D001              POP     AR1
18B9 D002              POP     AR2
18BB D003              POP     AR3
18BD 120000      E     LCALL   _strcat
                                           ; SOURCE LINE # 1255
18C0 900000      R     MOV     DPTR,#info_string
18C3 120000      E     LCALL   ?C?PLDXDATA
18C6 C003              PUSH    AR3
18C8 C002              PUSH    AR2
18CA C001              PUSH    AR1
18CC 7BFF              MOV     R3,#0FFH
18CE 7A00        R     MOV     R2,#HIGH ?SC_142
18D0 7900        R     MOV     R1,#LOW ?SC_142
18D2 900000      E     MOV     DPTR,#?_strcat?BYTE+03H
18D5 120000      E     LCALL   ?C?PSTXDATA
18D8 D001              POP     AR1
18DA D002              POP     AR2
18DC D003              POP     AR3
18DE 120000      E     LCALL   _strcat
                                           ; SOURCE LINE # 1256
18E1         ?C0304:
                                           ; SOURCE LINE # 1258
18E1 7B01              MOV     R3,#01H
18E3 7A00        R     MOV     R2,#HIGH str
18E5 7900        R     MOV     R1,#LOW str
18E7 C003              PUSH    AR3
18E9 C002              PUSH    AR2
18EB C001              PUSH    AR1
18ED 7BFF              MOV     R3,#0FFH
18EF 7A00        R     MOV     R2,#HIGH ?SC_1506
18F1 7900        R     MOV     R1,#LOW ?SC_1506
18F3 900000      E     MOV     DPTR,#?_sprintf?BYTE+03H
18F6 120000      E     LCALL   ?C?PSTXDATA
18F9 900000      E     MOV     DPTR,#timer_value
18FC 120000      E     LCALL   ?C?LLDXDATA0
18FF 900000      E     MOV     DPTR,#timer_value0
1902 120000      E     LCALL   ?C?LLDXDATA
1905 120000      E     LCALL   ?C?LSUB
C51 COMPILER V9.51   COMMAND_PROCESSING                                                    02/09/2021 12:42:36 PAGE 175 

1908 900000      E     MOV     DPTR,#?_sprintf?BYTE+06H
190B 120000      E     LCALL   ?C?LSTXDATA
190E D001              POP     AR1
1910 D002              POP     AR2
1912 D003              POP     AR3
1914 120000      E     LCALL   _sprintf
                                           ; SOURCE LINE # 1259
1917 900000      R     MOV     DPTR,#info_string
191A 120000      E     LCALL   ?C?PLDXDATA
191D C003              PUSH    AR3
191F C002              PUSH    AR2
1921 C001              PUSH    AR1
1923 7B01              MOV     R3,#01H
1925 7A00        R     MOV     R2,#HIGH str
1927 7900        R     MOV     R1,#LOW str
1929 900000      E     MOV     DPTR,#?_strcat?BYTE+03H
192C 120000      E     LCALL   ?C?PSTXDATA
192F D001              POP     AR1
1931 D002              POP     AR2
1933 D003              POP     AR3
1935 120000      E     LCALL   _strcat
                                           ; SOURCE LINE # 1260
1938 900000      R     MOV     DPTR,#info_string
193B 120000      E     LCALL   ?C?PLDXDATA
193E C003              PUSH    AR3
1940 C002              PUSH    AR2
1942 C001              PUSH    AR1
1944 7BFF              MOV     R3,#0FFH
1946 7A00        R     MOV     R2,#HIGH ?SC_142
1948 7900        R     MOV     R1,#LOW ?SC_142
194A 900000      E     MOV     DPTR,#?_strcat?BYTE+03H
194D 120000      E     LCALL   ?C?PSTXDATA
1950 D001              POP     AR1
1952 D002              POP     AR2
1954 D003              POP     AR3
1956 120000      E     LCALL   _strcat
                                           ; SOURCE LINE # 1261
                                           ; SOURCE LINE # 1262
1959         ?C0305:
1959 22                RET     
             ; FUNCTION _prepare_generic_info (END)

             ; FUNCTION _prepare_counter_info (BEGIN)
                                           ; SOURCE LINE # 1268
0000 900000      R     MOV     DPTR,#info_string
0003 120000      E     LCALL   ?C?PSTXDATA
                                           ; SOURCE LINE # 1269
                                           ; SOURCE LINE # 1274
0006 900000      R     MOV     DPTR,#info_string
0009 120000      E     LCALL   ?C?PLDXDATA
000C C003              PUSH    AR3
000E C002              PUSH    AR2
0010 C001              PUSH    AR1
0012 7BFF              MOV     R3,#0FFH
0014 7A00        R     MOV     R2,#HIGH ?SC_1517
0016 7900        R     MOV     R1,#LOW ?SC_1517
0018 900000      E     MOV     DPTR,#?_strcat?BYTE+03H
001B 120000      E     LCALL   ?C?PSTXDATA
001E D001              POP     AR1
0020 D002              POP     AR2
0022 D003              POP     AR3
0024 120000      E     LCALL   _strcat
C51 COMPILER V9.51   COMMAND_PROCESSING                                                    02/09/2021 12:42:36 PAGE 176 

                                           ; SOURCE LINE # 1275
0027 900000      R     MOV     DPTR,#info_string
002A 120000      E     LCALL   ?C?PLDXDATA
002D C003              PUSH    AR3
002F C002              PUSH    AR2
0031 C001              PUSH    AR1
0033 7BFF              MOV     R3,#0FFH
0035 7A00        R     MOV     R2,#HIGH ?SC_142
0037 7900        R     MOV     R1,#LOW ?SC_142
0039 900000      E     MOV     DPTR,#?_strcat?BYTE+03H
003C 120000      E     LCALL   ?C?PSTXDATA
003F D001              POP     AR1
0041 D002              POP     AR2
0043 D003              POP     AR3
0045 120000      E     LCALL   _strcat
                                           ; SOURCE LINE # 1277
0048 7B01              MOV     R3,#01H
004A 7A00        R     MOV     R2,#HIGH str
004C 7900        R     MOV     R1,#LOW str
004E C003              PUSH    AR3
0050 C002              PUSH    AR2
0052 C001              PUSH    AR1
0054 7BFF              MOV     R3,#0FFH
0056 7A00        R     MOV     R2,#HIGH ?SC_1538
0058 7900        R     MOV     R1,#LOW ?SC_1538
005A 900000      E     MOV     DPTR,#?_sprintf?BYTE+03H
005D 120000      E     LCALL   ?C?PSTXDATA
0060 900000      E     MOV     DPTR,#g_mem+0A2H
0063 E0                MOVX    A,@DPTR
0064 FF                MOV     R7,A
0065 7E00              MOV     R6,#00H
0067 900000      E     MOV     DPTR,#?_sprintf?BYTE+06H
006A EE                MOV     A,R6
006B F0                MOVX    @DPTR,A
006C A3                INC     DPTR
006D EF                MOV     A,R7
006E F0                MOVX    @DPTR,A
006F 900000      E     MOV     DPTR,#g_mem+0A3H
0072 E0                MOVX    A,@DPTR
0073 FF                MOV     R7,A
0074 7E00              MOV     R6,#00H
0076 900000      E     MOV     DPTR,#?_sprintf?BYTE+08H
0079 EE                MOV     A,R6
007A F0                MOVX    @DPTR,A
007B A3                INC     DPTR
007C EF                MOV     A,R7
007D F0                MOVX    @DPTR,A
007E 900000      E     MOV     DPTR,#g_mem+0A4H
0081 E0                MOVX    A,@DPTR
0082 FF                MOV     R7,A
0083 7E00              MOV     R6,#00H
0085 900000      E     MOV     DPTR,#?_sprintf?BYTE+0AH
0088 EE                MOV     A,R6
0089 F0                MOVX    @DPTR,A
008A A3                INC     DPTR
008B EF                MOV     A,R7
008C F0                MOVX    @DPTR,A
008D D001              POP     AR1
008F D002              POP     AR2
0091 D003              POP     AR3
0093 120000      E     LCALL   _sprintf
                                           ; SOURCE LINE # 1278
C51 COMPILER V9.51   COMMAND_PROCESSING                                                    02/09/2021 12:42:36 PAGE 177 

0096 900000      R     MOV     DPTR,#info_string
0099 120000      E     LCALL   ?C?PLDXDATA
009C C003              PUSH    AR3
009E C002              PUSH    AR2
00A0 C001              PUSH    AR1
00A2 7B01              MOV     R3,#01H
00A4 7A00        R     MOV     R2,#HIGH str
00A6 7900        R     MOV     R1,#LOW str
00A8 900000      E     MOV     DPTR,#?_strcat?BYTE+03H
00AB 120000      E     LCALL   ?C?PSTXDATA
00AE D001              POP     AR1
00B0 D002              POP     AR2
00B2 D003              POP     AR3
00B4 120000      E     LCALL   _strcat
                                           ; SOURCE LINE # 1280
00B7 7B01              MOV     R3,#01H
00B9 7A00        R     MOV     R2,#HIGH str
00BB 7900        R     MOV     R1,#LOW str
00BD C003              PUSH    AR3
00BF C002              PUSH    AR2
00C1 C001              PUSH    AR1
00C3 7BFF              MOV     R3,#0FFH
00C5 7A00        R     MOV     R2,#HIGH ?SC_1572
00C7 7900        R     MOV     R1,#LOW ?SC_1572
00C9 900000      E     MOV     DPTR,#?_sprintf?BYTE+03H
00CC 120000      E     LCALL   ?C?PSTXDATA
00CF D001              POP     AR1
00D1 D002              POP     AR2
00D3 D003              POP     AR3
00D5 120000      E     LCALL   _sprintf
                                           ; SOURCE LINE # 1281
00D8 900000      R     MOV     DPTR,#info_string
00DB 120000      E     LCALL   ?C?PLDXDATA
00DE C003              PUSH    AR3
00E0 C002              PUSH    AR2
00E2 C001              PUSH    AR1
00E4 7B01              MOV     R3,#01H
00E6 7A00        R     MOV     R2,#HIGH str
00E8 7900        R     MOV     R1,#LOW str
00EA 900000      E     MOV     DPTR,#?_strcat?BYTE+03H
00ED 120000      E     LCALL   ?C?PSTXDATA
00F0 D001              POP     AR1
00F2 D002              POP     AR2
00F4 D003              POP     AR3
00F6 120000      E     LCALL   _strcat
                                           ; SOURCE LINE # 1282
00F9 900000      E     MOV     DPTR,#g_mem+059H
00FC 120000      E     LCALL   ?C?LLDXDATA
00FF 900000      E     MOV     DPTR,#g_mem+035H
0102 E0                MOVX    A,@DPTR
0103 F9                MOV     R1,A
0104 A801              MOV     R0,AR1
0106 120000      E     LCALL   ?C?SLSHR
0109 7C00              MOV     R4,#00H
010B 7D0A              MOV     R5,#0AH
010D 120000      E     LCALL   ?C?SIDIV
0110 900000      R     MOV     DPTR,#step
0113 EE                MOV     A,R6
0114 F0                MOVX    @DPTR,A
0115 A3                INC     DPTR
0116 EF                MOV     A,R7
0117 F0                MOVX    @DPTR,A
C51 COMPILER V9.51   COMMAND_PROCESSING                                                    02/09/2021 12:42:36 PAGE 178 

                                           ; SOURCE LINE # 1283
0118 900000      R     MOV     DPTR,#i
011B E4                CLR     A
011C F0                MOVX    @DPTR,A
011D A3                INC     DPTR
011E 7401              MOV     A,#01H
0120 F0                MOVX    @DPTR,A
0121         ?C0306:
0121 900000      R     MOV     DPTR,#i
0124 E0                MOVX    A,@DPTR
0125 FE                MOV     R6,A
0126 A3                INC     DPTR
0127 E0                MOVX    A,@DPTR
0128 FF                MOV     R7,A
0129 D3                SETB    C
012A EF                MOV     A,R7
012B 940A              SUBB    A,#0AH
012D EE                MOV     A,R6
012E 6480              XRL     A,#080H
0130 9480              SUBB    A,#080H
0132 4003              JC      $ + 5H
0134 020000      R     LJMP    ?C0307
                                           ; SOURCE LINE # 1284
0137 7B01              MOV     R3,#01H
0139 7A00        R     MOV     R2,#HIGH str
013B 7900        R     MOV     R1,#LOW str
013D C003              PUSH    AR3
013F C002              PUSH    AR2
0141 C001              PUSH    AR1
0143 7BFF              MOV     R3,#0FFH
0145 7A00        R     MOV     R2,#HIGH ?SC_1603
0147 7900        R     MOV     R1,#LOW ?SC_1603
0149 900000      E     MOV     DPTR,#?_sprintf?BYTE+03H
014C 120000      E     LCALL   ?C?PSTXDATA
014F 900000      R     MOV     DPTR,#i
0152 E0                MOVX    A,@DPTR
0153 FE                MOV     R6,A
0154 A3                INC     DPTR
0155 E0                MOVX    A,@DPTR
0156 FF                MOV     R7,A
0157 900000      E     MOV     DPTR,#?_sprintf?BYTE+06H
015A EE                MOV     A,R6
015B F0                MOVX    @DPTR,A
015C A3                INC     DPTR
015D EF                MOV     A,R7
015E F0                MOVX    @DPTR,A
015F 900000      R     MOV     DPTR,#i
0162 E0                MOVX    A,@DPTR
0163 FE                MOV     R6,A
0164 A3                INC     DPTR
0165 E0                MOVX    A,@DPTR
0166 FF                MOV     R7,A
0167 EF                MOV     A,R7
0168 24FF              ADD     A,#0FFH
016A FF                MOV     R7,A
016B EE                MOV     A,R6
016C 34FF              ADDC    A,#0FFH
016E FE                MOV     R6,A
016F 900000      R     MOV     DPTR,#step
0172 E0                MOVX    A,@DPTR
0173 FC                MOV     R4,A
0174 A3                INC     DPTR
C51 COMPILER V9.51   COMMAND_PROCESSING                                                    02/09/2021 12:42:36 PAGE 179 

0175 E0                MOVX    A,@DPTR
0176 FD                MOV     R5,A
0177 120000      E     LCALL   ?C?IMUL
017A EF                MOV     A,R7
017B 2401              ADD     A,#01H
017D FF                MOV     R7,A
017E EE                MOV     A,R6
017F 3400              ADDC    A,#00H
0181 FE                MOV     R6,A
0182 900000      E     MOV     DPTR,#?_sprintf?BYTE+08H
0185 EE                MOV     A,R6
0186 F0                MOVX    @DPTR,A
0187 A3                INC     DPTR
0188 EF                MOV     A,R7
0189 F0                MOVX    @DPTR,A
018A 900000      R     MOV     DPTR,#i
018D E0                MOVX    A,@DPTR
018E FC                MOV     R4,A
018F A3                INC     DPTR
0190 E0                MOVX    A,@DPTR
0191 FD                MOV     R5,A
0192 900000      R     MOV     DPTR,#step
0195 E0                MOVX    A,@DPTR
0196 FE                MOV     R6,A
0197 A3                INC     DPTR
0198 E0                MOVX    A,@DPTR
0199 FF                MOV     R7,A
019A 120000      E     LCALL   ?C?IMUL
019D 900000      E     MOV     DPTR,#?_sprintf?BYTE+0AH
01A0 EE                MOV     A,R6
01A1 F0                MOVX    @DPTR,A
01A2 A3                INC     DPTR
01A3 EF                MOV     A,R7
01A4 F0                MOVX    @DPTR,A
01A5 900000      R     MOV     DPTR,#i
01A8 E0                MOVX    A,@DPTR
01A9 FE                MOV     R6,A
01AA A3                INC     DPTR
01AB E0                MOVX    A,@DPTR
01AC FF                MOV     R7,A
01AD EF                MOV     A,R7
01AE 7802              MOV     R0,#02H
01B0         ?C0437:
01B0 C3                CLR     C
01B1 33                RLC     A
01B2 CE                XCH     A,R6
01B3 33                RLC     A
01B4 CE                XCH     A,R6
01B5 D8F9              DJNZ    R0,?C0437
01B7 FF                MOV     R7,A
01B8 7400        E     MOV     A,#LOW g_mem+0B4H
01BA 2F                ADD     A,R7
01BB F582              MOV     DPL,A
01BD 7400        E     MOV     A,#HIGH g_mem+0B4H
01BF 3E                ADDC    A,R6
01C0 F583              MOV     DPH,A
01C2 120000      E     LCALL   ?C?LLDXDATA
01C5 900000      E     MOV     DPTR,#?_sprintf?BYTE+0CH
01C8 120000      E     LCALL   ?C?LSTXDATA
01CB D001              POP     AR1
01CD D002              POP     AR2
01CF D003              POP     AR3
C51 COMPILER V9.51   COMMAND_PROCESSING                                                    02/09/2021 12:42:36 PAGE 180 

01D1 120000      E     LCALL   _sprintf
                                           ; SOURCE LINE # 1285
01D4 900000      R     MOV     DPTR,#info_string
01D7 120000      E     LCALL   ?C?PLDXDATA
01DA C003              PUSH    AR3
01DC C002              PUSH    AR2
01DE C001              PUSH    AR1
01E0 7B01              MOV     R3,#01H
01E2 7A00        R     MOV     R2,#HIGH str
01E4 7900        R     MOV     R1,#LOW str
01E6 900000      E     MOV     DPTR,#?_strcat?BYTE+03H
01E9 120000      E     LCALL   ?C?PSTXDATA
01EC D001              POP     AR1
01EE D002              POP     AR2
01F0 D003              POP     AR3
01F2 120000      E     LCALL   _strcat
                                           ; SOURCE LINE # 1286
01F5 900000      R     MOV     DPTR,#i
01F8 E4                CLR     A
01F9 75F001            MOV     B,#01H
01FC 120000      E     LCALL   ?C?IILDX
01FF 020000      R     LJMP    ?C0306
0202         ?C0307:
                                           ; SOURCE LINE # 1287
0202 900000      R     MOV     DPTR,#info_string
0205 120000      E     LCALL   ?C?PLDXDATA
0208 C003              PUSH    AR3
020A C002              PUSH    AR2
020C C001              PUSH    AR1
020E 7BFF              MOV     R3,#0FFH
0210 7A00        R     MOV     R2,#HIGH ?SC_142
0212 7900        R     MOV     R1,#LOW ?SC_142
0214 900000      E     MOV     DPTR,#?_strcat?BYTE+03H
0217 120000      E     LCALL   ?C?PSTXDATA
021A D001              POP     AR1
021C D002              POP     AR2
021E D003              POP     AR3
0220 120000      E     LCALL   _strcat
                                           ; SOURCE LINE # 1289
0223 7B01              MOV     R3,#01H
0225 7A00        R     MOV     R2,#HIGH str
0227 7900        R     MOV     R1,#LOW str
0229 C003              PUSH    AR3
022B C002              PUSH    AR2
022D C001              PUSH    AR1
022F 7BFF              MOV     R3,#0FFH
0231 7A00        R     MOV     R2,#HIGH ?SC_1625
0233 7900        R     MOV     R1,#LOW ?SC_1625
0235 900000      E     MOV     DPTR,#?_sprintf?BYTE+03H
0238 120000      E     LCALL   ?C?PSTXDATA
023B D001              POP     AR1
023D D002              POP     AR2
023F D003              POP     AR3
0241 120000      E     LCALL   _sprintf
                                           ; SOURCE LINE # 1290
0244 900000      R     MOV     DPTR,#info_string
0247 120000      E     LCALL   ?C?PLDXDATA
024A C003              PUSH    AR3
024C C002              PUSH    AR2
024E C001              PUSH    AR1
0250 7B01              MOV     R3,#01H
0252 7A00        R     MOV     R2,#HIGH str
C51 COMPILER V9.51   COMMAND_PROCESSING                                                    02/09/2021 12:42:36 PAGE 181 

0254 7900        R     MOV     R1,#LOW str
0256 900000      E     MOV     DPTR,#?_strcat?BYTE+03H
0259 120000      E     LCALL   ?C?PSTXDATA
025C D001              POP     AR1
025E D002              POP     AR2
0260 D003              POP     AR3
0262 120000      E     LCALL   _strcat
                                           ; SOURCE LINE # 1291
0265 900000      E     MOV     DPTR,#g_mem+069H
0268 E0                MOVX    A,@DPTR
0269 FE                MOV     R6,A
026A A3                INC     DPTR
026B E0                MOVX    A,@DPTR
026C FF                MOV     R7,A
026D 7C00              MOV     R4,#00H
026F 7D04              MOV     R5,#04H
0271 120000      E     LCALL   ?C?SIDIV
0274 900000      R     MOV     DPTR,#step
0277 EE                MOV     A,R6
0278 F0                MOVX    @DPTR,A
0279 A3                INC     DPTR
027A EF                MOV     A,R7
027B F0                MOVX    @DPTR,A
                                           ; SOURCE LINE # 1292
027C 900000      R     MOV     DPTR,#i
027F E4                CLR     A
0280 F0                MOVX    @DPTR,A
0281 A3                INC     DPTR
0282 7401              MOV     A,#01H
0284 F0                MOVX    @DPTR,A
0285         ?C0309:
0285 900000      R     MOV     DPTR,#i
0288 E0                MOVX    A,@DPTR
0289 FE                MOV     R6,A
028A A3                INC     DPTR
028B E0                MOVX    A,@DPTR
028C FF                MOV     R7,A
028D D3                SETB    C
028E EF                MOV     A,R7
028F 9404              SUBB    A,#04H
0291 EE                MOV     A,R6
0292 6480              XRL     A,#080H
0294 9480              SUBB    A,#080H
0296 4003              JC      $ + 5H
0298 020000      R     LJMP    ?C0310
                                           ; SOURCE LINE # 1293
029B 7B01              MOV     R3,#01H
029D 7A00        R     MOV     R2,#HIGH str
029F 7900        R     MOV     R1,#LOW str
02A1 C003              PUSH    AR3
02A3 C002              PUSH    AR2
02A5 C001              PUSH    AR1
02A7 7BFF              MOV     R3,#0FFH
02A9 7A00        R     MOV     R2,#HIGH ?SC_1651
02AB 7900        R     MOV     R1,#LOW ?SC_1651
02AD 900000      E     MOV     DPTR,#?_sprintf?BYTE+03H
02B0 120000      E     LCALL   ?C?PSTXDATA
02B3 900000      R     MOV     DPTR,#i
02B6 E0                MOVX    A,@DPTR
02B7 FE                MOV     R6,A
02B8 A3                INC     DPTR
02B9 E0                MOVX    A,@DPTR
C51 COMPILER V9.51   COMMAND_PROCESSING                                                    02/09/2021 12:42:36 PAGE 182 

02BA FF                MOV     R7,A
02BB 900000      E     MOV     DPTR,#?_sprintf?BYTE+06H
02BE EE                MOV     A,R6
02BF F0                MOVX    @DPTR,A
02C0 A3                INC     DPTR
02C1 EF                MOV     A,R7
02C2 F0                MOVX    @DPTR,A
02C3 900000      R     MOV     DPTR,#i
02C6 E0                MOVX    A,@DPTR
02C7 FE                MOV     R6,A
02C8 A3                INC     DPTR
02C9 E0                MOVX    A,@DPTR
02CA FF                MOV     R7,A
02CB EF                MOV     A,R7
02CC 24FF              ADD     A,#0FFH
02CE FF                MOV     R7,A
02CF EE                MOV     A,R6
02D0 34FF              ADDC    A,#0FFH
02D2 FE                MOV     R6,A
02D3 900000      R     MOV     DPTR,#step
02D6 E0                MOVX    A,@DPTR
02D7 FC                MOV     R4,A
02D8 A3                INC     DPTR
02D9 E0                MOVX    A,@DPTR
02DA FD                MOV     R5,A
02DB 120000      E     LCALL   ?C?IMUL
02DE 900000      E     MOV     DPTR,#?_sprintf?BYTE+08H
02E1 EE                MOV     A,R6
02E2 F0                MOVX    @DPTR,A
02E3 A3                INC     DPTR
02E4 EF                MOV     A,R7
02E5 F0                MOVX    @DPTR,A
02E6 900000      R     MOV     DPTR,#i
02E9 E0                MOVX    A,@DPTR
02EA FC                MOV     R4,A
02EB A3                INC     DPTR
02EC E0                MOVX    A,@DPTR
02ED FD                MOV     R5,A
02EE 900000      R     MOV     DPTR,#step
02F1 E0                MOVX    A,@DPTR
02F2 FE                MOV     R6,A
02F3 A3                INC     DPTR
02F4 E0                MOVX    A,@DPTR
02F5 FF                MOV     R7,A
02F6 120000      E     LCALL   ?C?IMUL
02F9 900000      E     MOV     DPTR,#?_sprintf?BYTE+0AH
02FC EE                MOV     A,R6
02FD F0                MOVX    @DPTR,A
02FE A3                INC     DPTR
02FF EF                MOV     A,R7
0300 F0                MOVX    @DPTR,A
0301 900000      R     MOV     DPTR,#i
0304 E0                MOVX    A,@DPTR
0305 FE                MOV     R6,A
0306 A3                INC     DPTR
0307 E0                MOVX    A,@DPTR
0308 FF                MOV     R7,A
0309 EF                MOV     A,R7
030A 7802              MOV     R0,#02H
030C         ?C0438:
030C C3                CLR     C
030D 33                RLC     A
C51 COMPILER V9.51   COMMAND_PROCESSING                                                    02/09/2021 12:42:36 PAGE 183 

030E CE                XCH     A,R6
030F 33                RLC     A
0310 CE                XCH     A,R6
0311 D8F9              DJNZ    R0,?C0438
0313 FF                MOV     R7,A
0314 7400        E     MOV     A,#LOW g_mem+0DCH
0316 2F                ADD     A,R7
0317 F582              MOV     DPL,A
0319 7400        E     MOV     A,#HIGH g_mem+0DCH
031B 3E                ADDC    A,R6
031C F583              MOV     DPH,A
031E 120000      E     LCALL   ?C?LLDXDATA
0321 900000      E     MOV     DPTR,#?_sprintf?BYTE+0CH
0324 120000      E     LCALL   ?C?LSTXDATA
0327 D001              POP     AR1
0329 D002              POP     AR2
032B D003              POP     AR3
032D 120000      E     LCALL   _sprintf
                                           ; SOURCE LINE # 1294
0330 900000      R     MOV     DPTR,#info_string
0333 120000      E     LCALL   ?C?PLDXDATA
0336 C003              PUSH    AR3
0338 C002              PUSH    AR2
033A C001              PUSH    AR1
033C 7B01              MOV     R3,#01H
033E 7A00        R     MOV     R2,#HIGH str
0340 7900        R     MOV     R1,#LOW str
0342 900000      E     MOV     DPTR,#?_strcat?BYTE+03H
0345 120000      E     LCALL   ?C?PSTXDATA
0348 D001              POP     AR1
034A D002              POP     AR2
034C D003              POP     AR3
034E 120000      E     LCALL   _strcat
                                           ; SOURCE LINE # 1295
0351 900000      R     MOV     DPTR,#i
0354 E4                CLR     A
0355 75F001            MOV     B,#01H
0358 120000      E     LCALL   ?C?IILDX
035B 020000      R     LJMP    ?C0309
035E         ?C0310:
                                           ; SOURCE LINE # 1296
035E 900000      R     MOV     DPTR,#info_string
0361 120000      E     LCALL   ?C?PLDXDATA
0364 C003              PUSH    AR3
0366 C002              PUSH    AR2
0368 C001              PUSH    AR1
036A 7BFF              MOV     R3,#0FFH
036C 7A00        R     MOV     R2,#HIGH ?SC_142
036E 7900        R     MOV     R1,#LOW ?SC_142
0370 900000      E     MOV     DPTR,#?_strcat?BYTE+03H
0373 120000      E     LCALL   ?C?PSTXDATA
0376 D001              POP     AR1
0378 D002              POP     AR2
037A D003              POP     AR3
037C 120000      E     LCALL   _strcat
                                           ; SOURCE LINE # 1298
037F 7B01              MOV     R3,#01H
0381 7A00        R     MOV     R2,#HIGH str
0383 7900        R     MOV     R1,#LOW str
0385 C003              PUSH    AR3
0387 C002              PUSH    AR2
0389 C001              PUSH    AR1
C51 COMPILER V9.51   COMMAND_PROCESSING                                                    02/09/2021 12:42:36 PAGE 184 

038B 7BFF              MOV     R3,#0FFH
038D 7A00        R     MOV     R2,#HIGH ?SC_1679
038F 7900        R     MOV     R1,#LOW ?SC_1679
0391 900000      E     MOV     DPTR,#?_sprintf?BYTE+03H
0394 120000      E     LCALL   ?C?PSTXDATA
0397 900000      E     MOV     DPTR,#g_mem+0B0H
039A 120000      E     LCALL   ?C?LLDXDATA
039D 900000      E     MOV     DPTR,#?_sprintf?BYTE+06H
03A0 120000      E     LCALL   ?C?LSTXDATA
03A3 900000      E     MOV     DPTR,#g_mem+0B4H
03A6 120000      E     LCALL   ?C?LLDXDATA
03A9 900000      E     MOV     DPTR,#?_sprintf?BYTE+0AH
03AC 120000      E     LCALL   ?C?LSTXDATA
03AF D001              POP     AR1
03B1 D002              POP     AR2
03B3 D003              POP     AR3
03B5 120000      E     LCALL   _sprintf
                                           ; SOURCE LINE # 1299
03B8 900000      R     MOV     DPTR,#info_string
03BB 120000      E     LCALL   ?C?PLDXDATA
03BE C003              PUSH    AR3
03C0 C002              PUSH    AR2
03C2 C001              PUSH    AR1
03C4 7B01              MOV     R3,#01H
03C6 7A00        R     MOV     R2,#HIGH str
03C8 7900        R     MOV     R1,#LOW str
03CA 900000      E     MOV     DPTR,#?_strcat?BYTE+03H
03CD 120000      E     LCALL   ?C?PSTXDATA
03D0 D001              POP     AR1
03D2 D002              POP     AR2
03D4 D003              POP     AR3
03D6 120000      E     LCALL   _strcat
                                           ; SOURCE LINE # 1300
03D9 900000      R     MOV     DPTR,#info_string
03DC 120000      E     LCALL   ?C?PLDXDATA
03DF C003              PUSH    AR3
03E1 C002              PUSH    AR2
03E3 C001              PUSH    AR1
03E5 7BFF              MOV     R3,#0FFH
03E7 7A00        R     MOV     R2,#HIGH ?SC_142
03E9 7900        R     MOV     R1,#LOW ?SC_142
03EB 900000      E     MOV     DPTR,#?_strcat?BYTE+03H
03EE 120000      E     LCALL   ?C?PSTXDATA
03F1 D001              POP     AR1
03F3 D002              POP     AR2
03F5 D003              POP     AR3
03F7 120000      E     LCALL   _strcat
                                           ; SOURCE LINE # 1302
03FA 7B01              MOV     R3,#01H
03FC 7A00        R     MOV     R2,#HIGH str
03FE 7900        R     MOV     R1,#LOW str
0400 C003              PUSH    AR3
0402 C002              PUSH    AR2
0404 C001              PUSH    AR1
0406 7BFF              MOV     R3,#0FFH
0408 7A00        R     MOV     R2,#HIGH ?SC_1713
040A 7900        R     MOV     R1,#LOW ?SC_1713
040C 900000      E     MOV     DPTR,#?_sprintf?BYTE+03H
040F 120000      E     LCALL   ?C?PSTXDATA
0412 900000      E     MOV     DPTR,#g_mem+0F0H
0415 120000      E     LCALL   ?C?LLDXDATA
0418 900000      E     MOV     DPTR,#?_sprintf?BYTE+06H
C51 COMPILER V9.51   COMMAND_PROCESSING                                                    02/09/2021 12:42:36 PAGE 185 

041B 120000      E     LCALL   ?C?LSTXDATA
041E D001              POP     AR1
0420 D002              POP     AR2
0422 D003              POP     AR3
0424 120000      E     LCALL   _sprintf
                                           ; SOURCE LINE # 1303
0427 900000      R     MOV     DPTR,#info_string
042A 120000      E     LCALL   ?C?PLDXDATA
042D C003              PUSH    AR3
042F C002              PUSH    AR2
0431 C001              PUSH    AR1
0433 7B01              MOV     R3,#01H
0435 7A00        R     MOV     R2,#HIGH str
0437 7900        R     MOV     R1,#LOW str
0439 900000      E     MOV     DPTR,#?_strcat?BYTE+03H
043C 120000      E     LCALL   ?C?PSTXDATA
043F D001              POP     AR1
0441 D002              POP     AR2
0443 D003              POP     AR3
0445 120000      E     LCALL   _strcat
                                           ; SOURCE LINE # 1304
0448 900000      R     MOV     DPTR,#info_string
044B 120000      E     LCALL   ?C?PLDXDATA
044E C003              PUSH    AR3
0450 C002              PUSH    AR2
0452 C001              PUSH    AR1
0454 7BFF              MOV     R3,#0FFH
0456 7A00        R     MOV     R2,#HIGH ?SC_142
0458 7900        R     MOV     R1,#LOW ?SC_142
045A 900000      E     MOV     DPTR,#?_strcat?BYTE+03H
045D 120000      E     LCALL   ?C?PSTXDATA
0460 D001              POP     AR1
0462 D002              POP     AR2
0464 D003              POP     AR3
0466 120000      E     LCALL   _strcat
                                           ; SOURCE LINE # 1306
0469 7B01              MOV     R3,#01H
046B 7A00        R     MOV     R2,#HIGH str
046D 7900        R     MOV     R1,#LOW str
046F C003              PUSH    AR3
0471 C002              PUSH    AR2
0473 C001              PUSH    AR1
0475 7BFF              MOV     R3,#0FFH
0477 7A00        R     MOV     R2,#HIGH ?SC_1744
0479 7900        R     MOV     R1,#LOW ?SC_1744
047B 900000      E     MOV     DPTR,#?_sprintf?BYTE+03H
047E 120000      E     LCALL   ?C?PSTXDATA
0481 900000      E     MOV     DPTR,#g_mem+0F4H
0484 120000      E     LCALL   ?C?LLDXDATA
0487 900000      E     MOV     DPTR,#?_sprintf?BYTE+06H
048A 120000      E     LCALL   ?C?LSTXDATA
048D D001              POP     AR1
048F D002              POP     AR2
0491 D003              POP     AR3
0493 120000      E     LCALL   _sprintf
                                           ; SOURCE LINE # 1307
0496 900000      R     MOV     DPTR,#info_string
0499 120000      E     LCALL   ?C?PLDXDATA
049C C003              PUSH    AR3
049E C002              PUSH    AR2
04A0 C001              PUSH    AR1
04A2 7B01              MOV     R3,#01H
C51 COMPILER V9.51   COMMAND_PROCESSING                                                    02/09/2021 12:42:36 PAGE 186 

04A4 7A00        R     MOV     R2,#HIGH str
04A6 7900        R     MOV     R1,#LOW str
04A8 900000      E     MOV     DPTR,#?_strcat?BYTE+03H
04AB 120000      E     LCALL   ?C?PSTXDATA
04AE D001              POP     AR1
04B0 D002              POP     AR2
04B2 D003              POP     AR3
04B4 120000      E     LCALL   _strcat
                                           ; SOURCE LINE # 1308
04B7 900000      R     MOV     DPTR,#info_string
04BA 120000      E     LCALL   ?C?PLDXDATA
04BD C003              PUSH    AR3
04BF C002              PUSH    AR2
04C1 C001              PUSH    AR1
04C3 7BFF              MOV     R3,#0FFH
04C5 7A00        R     MOV     R2,#HIGH ?SC_142
04C7 7900        R     MOV     R1,#LOW ?SC_142
04C9 900000      E     MOV     DPTR,#?_strcat?BYTE+03H
04CC 120000      E     LCALL   ?C?PSTXDATA
04CF D001              POP     AR1
04D1 D002              POP     AR2
04D3 D003              POP     AR3
04D5 120000      E     LCALL   _strcat
                                           ; SOURCE LINE # 1310
04D8 7B01              MOV     R3,#01H
04DA 7A00        R     MOV     R2,#HIGH str
04DC 7900        R     MOV     R1,#LOW str
04DE C003              PUSH    AR3
04E0 C002              PUSH    AR2
04E2 C001              PUSH    AR1
04E4 7BFF              MOV     R3,#0FFH
04E6 7A00        R     MOV     R2,#HIGH ?SC_1782
04E8 7900        R     MOV     R1,#LOW ?SC_1782
04EA 900000      E     MOV     DPTR,#?_sprintf?BYTE+03H
04ED 120000      E     LCALL   ?C?PSTXDATA
04F0 900000      E     MOV     DPTR,#g_mem+0F8H
04F3 120000      E     LCALL   ?C?LLDXDATA
04F6 900000      E     MOV     DPTR,#?_sprintf?BYTE+06H
04F9 120000      E     LCALL   ?C?LSTXDATA
04FC D001              POP     AR1
04FE D002              POP     AR2
0500 D003              POP     AR3
0502 120000      E     LCALL   _sprintf
                                           ; SOURCE LINE # 1311
0505 900000      R     MOV     DPTR,#info_string
0508 120000      E     LCALL   ?C?PLDXDATA
050B C003              PUSH    AR3
050D C002              PUSH    AR2
050F C001              PUSH    AR1
0511 7B01              MOV     R3,#01H
0513 7A00        R     MOV     R2,#HIGH str
0515 7900        R     MOV     R1,#LOW str
0517 900000      E     MOV     DPTR,#?_strcat?BYTE+03H
051A 120000      E     LCALL   ?C?PSTXDATA
051D D001              POP     AR1
051F D002              POP     AR2
0521 D003              POP     AR3
0523 120000      E     LCALL   _strcat
                                           ; SOURCE LINE # 1312
0526 900000      R     MOV     DPTR,#info_string
0529 120000      E     LCALL   ?C?PLDXDATA
052C C003              PUSH    AR3
C51 COMPILER V9.51   COMMAND_PROCESSING                                                    02/09/2021 12:42:36 PAGE 187 

052E C002              PUSH    AR2
0530 C001              PUSH    AR1
0532 7BFF              MOV     R3,#0FFH
0534 7A00        R     MOV     R2,#HIGH ?SC_142
0536 7900        R     MOV     R1,#LOW ?SC_142
0538 900000      E     MOV     DPTR,#?_strcat?BYTE+03H
053B 120000      E     LCALL   ?C?PSTXDATA
053E D001              POP     AR1
0540 D002              POP     AR2
0542 D003              POP     AR3
0544 120000      E     LCALL   _strcat
                                           ; SOURCE LINE # 1314
0547 7B01              MOV     R3,#01H
0549 7A00        R     MOV     R2,#HIGH str
054B 7900        R     MOV     R1,#LOW str
054D C003              PUSH    AR3
054F C002              PUSH    AR2
0551 C001              PUSH    AR1
0553 7BFF              MOV     R3,#0FFH
0555 7A00        R     MOV     R2,#HIGH ?SC_1813
0557 7900        R     MOV     R1,#LOW ?SC_1813
0559 900000      E     MOV     DPTR,#?_sprintf?BYTE+03H
055C 120000      E     LCALL   ?C?PSTXDATA
055F 900000      E     MOV     DPTR,#g_mem+0FCH
0562 120000      E     LCALL   ?C?LLDXDATA
0565 900000      E     MOV     DPTR,#?_sprintf?BYTE+06H
0568 120000      E     LCALL   ?C?LSTXDATA
056B D001              POP     AR1
056D D002              POP     AR2
056F D003              POP     AR3
0571 120000      E     LCALL   _sprintf
                                           ; SOURCE LINE # 1315
0574 900000      R     MOV     DPTR,#info_string
0577 120000      E     LCALL   ?C?PLDXDATA
057A C003              PUSH    AR3
057C C002              PUSH    AR2
057E C001              PUSH    AR1
0580 7B01              MOV     R3,#01H
0582 7A00        R     MOV     R2,#HIGH str
0584 7900        R     MOV     R1,#LOW str
0586 900000      E     MOV     DPTR,#?_strcat?BYTE+03H
0589 120000      E     LCALL   ?C?PSTXDATA
058C D001              POP     AR1
058E D002              POP     AR2
0590 D003              POP     AR3
0592 120000      E     LCALL   _strcat
                                           ; SOURCE LINE # 1316
0595 900000      R     MOV     DPTR,#info_string
0598 120000      E     LCALL   ?C?PLDXDATA
059B C003              PUSH    AR3
059D C002              PUSH    AR2
059F C001              PUSH    AR1
05A1 7BFF              MOV     R3,#0FFH
05A3 7A00        R     MOV     R2,#HIGH ?SC_142
05A5 7900        R     MOV     R1,#LOW ?SC_142
05A7 900000      E     MOV     DPTR,#?_strcat?BYTE+03H
05AA 120000      E     LCALL   ?C?PSTXDATA
05AD D001              POP     AR1
05AF D002              POP     AR2
05B1 D003              POP     AR3
05B3 120000      E     LCALL   _strcat
                                           ; SOURCE LINE # 1318
C51 COMPILER V9.51   COMMAND_PROCESSING                                                    02/09/2021 12:42:36 PAGE 188 

05B6 22                RET     
             ; FUNCTION _prepare_counter_info (END)

             ; FUNCTION _commWrite_old_id (BEGIN)
                                           ; SOURCE LINE # 1324
0000 900000      R     MOV     DPTR,#packet_data
0003 120000      E     LCALL   ?C?PSTXDATA
0006 900000      R     MOV     DPTR,#packet_lenght
0009 EC                MOV     A,R4
000A F0                MOVX    @DPTR,A
000B A3                INC     DPTR
000C ED                MOV     A,R5
000D F0                MOVX    @DPTR,A
                                           ; SOURCE LINE # 1325
                                           ; SOURCE LINE # 1329
000E 7F3A              MOV     R7,#03AH
0010 120000      E     LCALL   _UART_RS485_PutChar
                                           ; SOURCE LINE # 1330
0013 7F3A              MOV     R7,#03AH
0015 120000      E     LCALL   _UART_RS485_PutChar
                                           ; SOURCE LINE # 1333
0018 900000      R     MOV     DPTR,#old_id
001B E0                MOVX    A,@DPTR
001C FF                MOV     R7,A
001D 120000      E     LCALL   _UART_RS485_PutChar
                                           ; SOURCE LINE # 1338
0020 900000      R     MOV     DPTR,#packet_lenght
0023 E0                MOVX    A,@DPTR
0024 FE                MOV     R6,A
0025 A3                INC     DPTR
0026 E0                MOVX    A,@DPTR
0027 FF                MOV     R7,A
0028 120000      E     LCALL   _UART_RS485_PutChar
                                           ; SOURCE LINE # 1340
002B 750000      R     MOV     index,#00H
002E 750000      R     MOV     index+01H,#00H
0031         ?C0313:
0031 900000      R     MOV     DPTR,#packet_lenght
0034 E0                MOVX    A,@DPTR
0035 FE                MOV     R6,A
0036 A3                INC     DPTR
0037 E0                MOVX    A,@DPTR
0038 FF                MOV     R7,A
0039 C3                CLR     C
003A E500        R     MOV     A,index+01H
003C 9F                SUBB    A,R7
003D E500        R     MOV     A,index
003F 9E                SUBB    A,R6
0040 5021              JNC     ?C0314
                                           ; SOURCE LINE # 1341
0042 900000      R     MOV     DPTR,#packet_data
0045 120000      E     LCALL   ?C?PLDXDATA
0048 AE00        R     MOV     R6,index
004A AF00        R     MOV     R7,index+01H
004C E9                MOV     A,R1
004D 2F                ADD     A,R7
004E F9                MOV     R1,A
004F EA                MOV     A,R2
0050 3E                ADDC    A,R6
0051 FA                MOV     R2,A
0052 120000      E     LCALL   ?C?CLDPTR
0055 FF                MOV     R7,A
C51 COMPILER V9.51   COMMAND_PROCESSING                                                    02/09/2021 12:42:36 PAGE 189 

0056 120000      E     LCALL   _UART_RS485_PutChar
                                           ; SOURCE LINE # 1342
0059 0500        R     INC     index+01H
005B E500        R     MOV     A,index+01H
005D 7002              JNZ     ?C0439
005F 0500        R     INC     index
0061         ?C0439:
0061 80CE              SJMP    ?C0313
0063         ?C0314:
                                           ; SOURCE LINE # 1344
0063 750000      R     MOV     index,#00H
0066 750000      R     MOV     index+01H,#00H
0069         ?C0316:
                                           ; SOURCE LINE # 1346
0069 120000      E     LCALL   UART_RS485_ReadTxStatus
006C EF                MOV     A,R7
006D 20E015            JB      ACC.0,?C0317
0070 0500        R     INC     index+01H
0072 E500        R     MOV     A,index+01H
0074 AE00        R     MOV     R6,index
0076 7002              JNZ     ?C0440
0078 0500        R     INC     index
007A         ?C0440:
007A 14                DEC     A
007B FF                MOV     R7,A
007C D3                SETB    C
007D EF                MOV     A,R7
007E 94E8              SUBB    A,#0E8H
0080 EE                MOV     A,R6
0081 9403              SUBB    A,#03H
0083 40E4              JC      ?C0316
0085         ?C0317:
                                           ; SOURCE LINE # 1348
0085 7F01              MOV     R7,#01H
0087 120000      E     LCALL   _RS485_CTS_Write
                                           ; SOURCE LINE # 1349
008A 7F00              MOV     R7,#00H
008C 120000      E     LCALL   _RS485_CTS_Write
                                           ; SOURCE LINE # 1350
008F 22                RET     
             ; FUNCTION _commWrite_old_id (END)

             ; FUNCTION _commWrite (BEGIN)
                                           ; SOURCE LINE # 1352
0000 900000      R     MOV     DPTR,#packet_data
0003 120000      E     LCALL   ?C?PSTXDATA
0006 900000      R     MOV     DPTR,#packet_lenght
0009 EC                MOV     A,R4
000A F0                MOVX    @DPTR,A
000B A3                INC     DPTR
000C ED                MOV     A,R5
000D F0                MOVX    @DPTR,A
                                           ; SOURCE LINE # 1353
                                           ; SOURCE LINE # 1357
000E 7F3A              MOV     R7,#03AH
0010 120000      E     LCALL   _UART_RS485_PutChar
                                           ; SOURCE LINE # 1358
0013 7F3A              MOV     R7,#03AH
0015 120000      E     LCALL   _UART_RS485_PutChar
                                           ; SOURCE LINE # 1360
0018 900000      E     MOV     DPTR,#g_mem+01H
001B E0                MOVX    A,@DPTR
C51 COMPILER V9.51   COMMAND_PROCESSING                                                    02/09/2021 12:42:36 PAGE 190 

001C FF                MOV     R7,A
001D 120000      E     LCALL   _UART_RS485_PutChar
                                           ; SOURCE LINE # 1362
0020 900000      R     MOV     DPTR,#packet_lenght
0023 E0                MOVX    A,@DPTR
0024 FE                MOV     R6,A
0025 A3                INC     DPTR
0026 E0                MOVX    A,@DPTR
0027 FF                MOV     R7,A
0028 120000      E     LCALL   _UART_RS485_PutChar
                                           ; SOURCE LINE # 1364
002B 750000      R     MOV     index,#00H
002E 750000      R     MOV     index+01H,#00H
0031         ?C0319:
0031 900000      R     MOV     DPTR,#packet_lenght
0034 E0                MOVX    A,@DPTR
0035 FE                MOV     R6,A
0036 A3                INC     DPTR
0037 E0                MOVX    A,@DPTR
0038 FF                MOV     R7,A
0039 C3                CLR     C
003A E500        R     MOV     A,index+01H
003C 9F                SUBB    A,R7
003D E500        R     MOV     A,index
003F 9E                SUBB    A,R6
0040 5021              JNC     ?C0320
                                           ; SOURCE LINE # 1365
0042 900000      R     MOV     DPTR,#packet_data
0045 120000      E     LCALL   ?C?PLDXDATA
0048 AE00        R     MOV     R6,index
004A AF00        R     MOV     R7,index+01H
004C E9                MOV     A,R1
004D 2F                ADD     A,R7
004E F9                MOV     R1,A
004F EA                MOV     A,R2
0050 3E                ADDC    A,R6
0051 FA                MOV     R2,A
0052 120000      E     LCALL   ?C?CLDPTR
0055 FF                MOV     R7,A
0056 120000      E     LCALL   _UART_RS485_PutChar
                                           ; SOURCE LINE # 1366
0059 0500        R     INC     index+01H
005B E500        R     MOV     A,index+01H
005D 7002              JNZ     ?C0441
005F 0500        R     INC     index
0061         ?C0441:
0061 80CE              SJMP    ?C0319
0063         ?C0320:
                                           ; SOURCE LINE # 1368
0063 750000      R     MOV     index,#00H
0066 750000      R     MOV     index+01H,#00H
0069         ?C0322:
                                           ; SOURCE LINE # 1370
0069 120000      E     LCALL   UART_RS485_ReadTxStatus
006C EF                MOV     A,R7
006D 20E015            JB      ACC.0,?C0323
0070 0500        R     INC     index+01H
0072 E500        R     MOV     A,index+01H
0074 AE00        R     MOV     R6,index
0076 7002              JNZ     ?C0442
0078 0500        R     INC     index
007A         ?C0442:
C51 COMPILER V9.51   COMMAND_PROCESSING                                                    02/09/2021 12:42:36 PAGE 191 

007A 14                DEC     A
007B FF                MOV     R7,A
007C D3                SETB    C
007D EF                MOV     A,R7
007E 94E8              SUBB    A,#0E8H
0080 EE                MOV     A,R6
0081 9403              SUBB    A,#03H
0083 40E4              JC      ?C0322
0085         ?C0323:
                                           ; SOURCE LINE # 1372
0085 7F01              MOV     R7,#01H
0087 120000      E     LCALL   _RS485_CTS_Write
                                           ; SOURCE LINE # 1373
008A 7F00              MOV     R7,#00H
008C 120000      E     LCALL   _RS485_CTS_Write
                                           ; SOURCE LINE # 1374
008F 22                RET     
             ; FUNCTION _commWrite (END)

             ; FUNCTION _commWrite_to_cuff (BEGIN)
                                           ; SOURCE LINE # 1376
0000 900000      R     MOV     DPTR,#packet_data
0003 120000      E     LCALL   ?C?PSTXDATA
0006 900000      R     MOV     DPTR,#packet_lenght
0009 EC                MOV     A,R4
000A F0                MOVX    @DPTR,A
000B A3                INC     DPTR
000C ED                MOV     A,R5
000D F0                MOVX    @DPTR,A
                                           ; SOURCE LINE # 1377
                                           ; SOURCE LINE # 1381
000E 7F3A              MOV     R7,#03AH
0010 120000      E     LCALL   _UART_RS485_PutChar
                                           ; SOURCE LINE # 1382
0013 7F3A              MOV     R7,#03AH
0015 120000      E     LCALL   _UART_RS485_PutChar
                                           ; SOURCE LINE # 1384
0018 900000      E     MOV     DPTR,#g_mem+01H
001B E0                MOVX    A,@DPTR
001C FF                MOV     R7,A
001D EF                MOV     A,R7
001E 14                DEC     A
001F FF                MOV     R7,A
0020 120000      E     LCALL   _UART_RS485_PutChar
                                           ; SOURCE LINE # 1386
0023 900000      R     MOV     DPTR,#packet_lenght
0026 E0                MOVX    A,@DPTR
0027 FE                MOV     R6,A
0028 A3                INC     DPTR
0029 E0                MOVX    A,@DPTR
002A FF                MOV     R7,A
002B 120000      E     LCALL   _UART_RS485_PutChar
                                           ; SOURCE LINE # 1388
002E 750000      R     MOV     index,#00H
0031 750000      R     MOV     index+01H,#00H
0034         ?C0325:
0034 900000      R     MOV     DPTR,#packet_lenght
0037 E0                MOVX    A,@DPTR
0038 FE                MOV     R6,A
0039 A3                INC     DPTR
003A E0                MOVX    A,@DPTR
003B FF                MOV     R7,A
C51 COMPILER V9.51   COMMAND_PROCESSING                                                    02/09/2021 12:42:36 PAGE 192 

003C C3                CLR     C
003D E500        R     MOV     A,index+01H
003F 9F                SUBB    A,R7
0040 E500        R     MOV     A,index
0042 9E                SUBB    A,R6
0043 5021              JNC     ?C0326
                                           ; SOURCE LINE # 1389
0045 900000      R     MOV     DPTR,#packet_data
0048 120000      E     LCALL   ?C?PLDXDATA
004B AE00        R     MOV     R6,index
004D AF00        R     MOV     R7,index+01H
004F E9                MOV     A,R1
0050 2F                ADD     A,R7
0051 F9                MOV     R1,A
0052 EA                MOV     A,R2
0053 3E                ADDC    A,R6
0054 FA                MOV     R2,A
0055 120000      E     LCALL   ?C?CLDPTR
0058 FF                MOV     R7,A
0059 120000      E     LCALL   _UART_RS485_PutChar
                                           ; SOURCE LINE # 1390
005C 0500        R     INC     index+01H
005E E500        R     MOV     A,index+01H
0060 7002              JNZ     ?C0443
0062 0500        R     INC     index
0064         ?C0443:
0064 80CE              SJMP    ?C0325
0066         ?C0326:
                                           ; SOURCE LINE # 1392
0066 750000      R     MOV     index,#00H
0069 750000      R     MOV     index+01H,#00H
006C         ?C0328:
                                           ; SOURCE LINE # 1394
006C 120000      E     LCALL   UART_RS485_ReadTxStatus
006F EF                MOV     A,R7
0070 20E015            JB      ACC.0,?C0330
0073 0500        R     INC     index+01H
0075 E500        R     MOV     A,index+01H
0077 AE00        R     MOV     R6,index
0079 7002              JNZ     ?C0444
007B 0500        R     INC     index
007D         ?C0444:
007D 14                DEC     A
007E FF                MOV     R7,A
007F D3                SETB    C
0080 EF                MOV     A,R7
0081 94E8              SUBB    A,#0E8H
0083 EE                MOV     A,R6
0084 9403              SUBB    A,#03H
0086 40E4              JC      ?C0328
0088         ?C0329:
                                           ; SOURCE LINE # 1395
0088         ?C0330:
0088 22                RET     
             ; FUNCTION _commWrite_to_cuff (END)

             ; FUNCTION _LCRChecksum (BEGIN)
                                           ; SOURCE LINE # 1403
0000 900000      R     MOV     DPTR,#data_array
0003 120000      E     LCALL   ?C?PSTXDATA
0006 900000      R     MOV     DPTR,#data_length
0009 ED                MOV     A,R5
C51 COMPILER V9.51   COMMAND_PROCESSING                                                    02/09/2021 12:42:36 PAGE 193 

000A F0                MOVX    @DPTR,A
                                           ; SOURCE LINE # 1406
000B 750000      R     MOV     checksum,#00H
                                           ; SOURCE LINE # 1408
000E 750000      R     MOV     i,#00H
0011         ?C0331:
0011 900000      R     MOV     DPTR,#data_length
0014 E0                MOVX    A,@DPTR
0015 FF                MOV     R7,A
0016 E500        R     MOV     A,i
0018 C3                CLR     C
0019 9F                SUBB    A,R7
001A 5019              JNC     ?C0332
                                           ; SOURCE LINE # 1409
001C 900000      R     MOV     DPTR,#data_array
001F 120000      E     LCALL   ?C?PLDXDATA
0022 AF00        R     MOV     R7,i
0024 E9                MOV     A,R1
0025 2F                ADD     A,R7
0026 F9                MOV     R1,A
0027 E4                CLR     A
0028 3A                ADDC    A,R2
0029 FA                MOV     R2,A
002A 120000      E     LCALL   ?C?CLDPTR
002D FF                MOV     R7,A
002E EF                MOV     A,R7
002F 6200        R     XRL     checksum,A
0031 0500        R     INC     i
0033 80DC              SJMP    ?C0331
0035         ?C0332:
                                           ; SOURCE LINE # 1411
0035 AF00        R     MOV     R7,checksum
                                           ; SOURCE LINE # 1412
0037         ?C0334:
0037 22                RET     
             ; FUNCTION _LCRChecksum (END)

             ; FUNCTION _sendAcknowledgment (BEGIN)
                                           ; SOURCE LINE # 1419
0000 900000      R     MOV     DPTR,#value
0003 EF                MOV     A,R7
0004 F0                MOVX    @DPTR,A
                                           ; SOURCE LINE # 1420
0005 900000      R     MOV     DPTR,#packet_lenght
0008 E4                CLR     A
0009 F0                MOVX    @DPTR,A
000A A3                INC     DPTR
000B 7402              MOV     A,#02H
000D F0                MOVX    @DPTR,A
                                           ; SOURCE LINE # 1423
000E 900000      R     MOV     DPTR,#value
0011 E0                MOVX    A,@DPTR
0012 FF                MOV     R7,A
0013 900000      R     MOV     DPTR,#packet_data
0016 EF                MOV     A,R7
0017 F0                MOVX    @DPTR,A
                                           ; SOURCE LINE # 1424
0018 900000      R     MOV     DPTR,#value
001B E0                MOVX    A,@DPTR
001C FF                MOV     R7,A
001D 900000      R     MOV     DPTR,#packet_data+01H
0020 EF                MOV     A,R7
C51 COMPILER V9.51   COMMAND_PROCESSING                                                    02/09/2021 12:42:36 PAGE 194 

0021 F0                MOVX    @DPTR,A
                                           ; SOURCE LINE # 1426
0022 7B01              MOV     R3,#01H
0024 7A00        R     MOV     R2,#HIGH packet_data
0026 7900        R     MOV     R1,#LOW packet_data
0028 900000      R     MOV     DPTR,#packet_lenght
002B E0                MOVX    A,@DPTR
002C FC                MOV     R4,A
002D A3                INC     DPTR
002E E0                MOVX    A,@DPTR
002F FD                MOV     R5,A
0030 120000      R     LCALL   _commWrite
                                           ; SOURCE LINE # 1427
0033 22                RET     
             ; FUNCTION _sendAcknowledgment (END)

             ; FUNCTION _memStore (BEGIN)
                                           ; SOURCE LINE # 1434
0000 900000      R     MOV     DPTR,#displacement
0003 EE                MOV     A,R6
0004 F0                MOVX    @DPTR,A
0005 A3                INC     DPTR
0006 EF                MOV     A,R7
0007 F0                MOVX    @DPTR,A
                                           ; SOURCE LINE # 1435
                                           ; SOURCE LINE # 1439
0008 900000      R     MOV     DPTR,#ret_val
000B 7401              MOV     A,#01H
000D F0                MOVX    @DPTR,A
                                           ; SOURCE LINE # 1442
000E 120000      E     LCALL   ISR_RS485_RX_Disable
                                           ; SOURCE LINE # 1445
0011 7F00              MOV     R7,#00H
0013 120000      E     LCALL   _PWM_MOTORS_WriteCompare1
                                           ; SOURCE LINE # 1446
0016 7F00              MOV     R7,#00H
0018 120000      E     LCALL   _PWM_MOTORS_WriteCompare2
                                           ; SOURCE LINE # 1449
001B 120000      E     LCALL   CySetTemp
                                           ; SOURCE LINE # 1451
001E 7B01              MOV     R3,#01H
0020 7A00        E     MOV     R2,#HIGH g_mem
0022 7900        E     MOV     R1,#LOW g_mem
0024 C003              PUSH    AR3
0026 C002              PUSH    AR2
0028 C001              PUSH    AR1
002A 7B01              MOV     R3,#01H
002C 7A00        E     MOV     R2,#HIGH c_mem
002E 7900        E     MOV     R1,#LOW c_mem
0030 A801              MOV     R0,AR1
0032 AC02              MOV     R4,AR2
0034 AD03              MOV     R5,AR3
0036 D001              POP     AR1
0038 D002              POP     AR2
003A D003              POP     AR3
003C 7E01              MOV     R6,#01H
003E 7F00              MOV     R7,#00H
0040 120000      E     LCALL   ?C?COPYAMD
                                           ; SOURCE LINE # 1453
0043 900000      R     MOV     DPTR,#pages
0046 E4                CLR     A
0047 F0                MOVX    @DPTR,A
C51 COMPILER V9.51   COMMAND_PROCESSING                                                    02/09/2021 12:42:36 PAGE 195 

0048 A3                INC     DPTR
0049 7410              MOV     A,#010H
004B F0                MOVX    @DPTR,A
                                           ; SOURCE LINE # 1455
004C 900000      R     MOV     DPTR,#i
004F E4                CLR     A
0050 F0                MOVX    @DPTR,A
0051 A3                INC     DPTR
0052 E4                CLR     A
0053 F0                MOVX    @DPTR,A
0054         ?C0336:
0054 900000      R     MOV     DPTR,#pages
0057 E0                MOVX    A,@DPTR
0058 FE                MOV     R6,A
0059 A3                INC     DPTR
005A E0                MOVX    A,@DPTR
005B FF                MOV     R7,A
005C 900000      R     MOV     DPTR,#i
005F E0                MOVX    A,@DPTR
0060 FC                MOV     R4,A
0061 A3                INC     DPTR
0062 E0                MOVX    A,@DPTR
0063 FD                MOV     R5,A
0064 C3                CLR     C
0065 ED                MOV     A,R5
0066 9F                SUBB    A,R7
0067 EE                MOV     A,R6
0068 6480              XRL     A,#080H
006A F8                MOV     R0,A
006B EC                MOV     A,R4
006C 6480              XRL     A,#080H
006E 98                SUBB    A,R0
006F 505A              JNC     ?C0337
                                           ; SOURCE LINE # 1456
0071 900000      R     MOV     DPTR,#i
0074 E0                MOVX    A,@DPTR
0075 FE                MOV     R6,A
0076 A3                INC     DPTR
0077 E0                MOVX    A,@DPTR
0078 FF                MOV     R7,A
0079 EF                MOV     A,R7
007A C4                SWAP    A
007B F8                MOV     R0,A
007C 540F              ANL     A,#0FH
007E C8                XCH     A,R0
007F 68                XRL     A,R0
0080 FF                MOV     R7,A
0081 EE                MOV     A,R6
0082 C4                SWAP    A
0083 54F0              ANL     A,#0F0H
0085 48                ORL     A,R0
0086 FE                MOV     R6,A
0087 7B01              MOV     R3,#01H
0089 7A00        E     MOV     R2,#HIGH g_mem
008B 7900        E     MOV     R1,#LOW g_mem
008D E9                MOV     A,R1
008E 2F                ADD     A,R7
008F F9                MOV     R1,A
0090 EA                MOV     A,R2
0091 3E                ADDC    A,R6
0092 FA                MOV     R2,A
0093 900000      R     MOV     DPTR,#displacement
C51 COMPILER V9.51   COMMAND_PROCESSING                                                    02/09/2021 12:42:36 PAGE 196 

0096 E0                MOVX    A,@DPTR
0097 FE                MOV     R6,A
0098 A3                INC     DPTR
0099 E0                MOVX    A,@DPTR
009A FF                MOV     R7,A
009B 900000      R     MOV     DPTR,#i
009E E0                MOVX    A,@DPTR
009F FC                MOV     R4,A
00A0 A3                INC     DPTR
00A1 E0                MOVX    A,@DPTR
00A2 FD                MOV     R5,A
00A3 AE05              MOV     R6,AR5
00A5 EE                MOV     A,R6
00A6 2F                ADD     A,R7
00A7 FD                MOV     R5,A
00A8 120000      E     LCALL   _EEPROM_Write
00AB 900000      R     MOV     DPTR,#writeStatus
00AE EF                MOV     A,R7
00AF F0                MOVX    @DPTR,A
                                           ; SOURCE LINE # 1457
00B0 900000      R     MOV     DPTR,#writeStatus
00B3 E0                MOVX    A,@DPTR
00B4 FF                MOV     R7,A
00B5 EF                MOV     A,R7
00B6 6007              JZ      ?C0338
                                           ; SOURCE LINE # 1458
00B8 900000      R     MOV     DPTR,#ret_val
00BB E4                CLR     A
00BC F0                MOVX    @DPTR,A
                                           ; SOURCE LINE # 1459
00BD 800C              SJMP    ?C0337
                                           ; SOURCE LINE # 1460
                                           ; SOURCE LINE # 1461
00BF         ?C0338:
00BF 900000      R     MOV     DPTR,#i
00C2 E4                CLR     A
00C3 75F001            MOV     B,#01H
00C6 120000      E     LCALL   ?C?IILDX
00C9 8089              SJMP    ?C0336
00CB         ?C0337:
                                           ; SOURCE LINE # 1463
00CB 7B01              MOV     R3,#01H
00CD 7A00        E     MOV     R2,#HIGH c_mem
00CF 7900        E     MOV     R1,#LOW c_mem
00D1 C003              PUSH    AR3
00D3 C002              PUSH    AR2
00D5 C001              PUSH    AR1
00D7 7B01              MOV     R3,#01H
00D9 7A00        E     MOV     R2,#HIGH g_mem
00DB 7900        E     MOV     R1,#LOW g_mem
00DD A801              MOV     R0,AR1
00DF AC02              MOV     R4,AR2
00E1 AD03              MOV     R5,AR3
00E3 D001              POP     AR1
00E5 D002              POP     AR2
00E7 D003              POP     AR3
00E9 7E01              MOV     R6,#01H
00EB 7F00              MOV     R7,#00H
00ED 120000      E     LCALL   ?C?COPYAMD
                                           ; SOURCE LINE # 1466
00F0 120000      E     LCALL   ISR_RS485_RX_Enable
                                           ; SOURCE LINE # 1468
C51 COMPILER V9.51   COMMAND_PROCESSING                                                    02/09/2021 12:42:36 PAGE 197 

00F3 900000      R     MOV     DPTR,#ret_val
00F6 E0                MOVX    A,@DPTR
00F7 FF                MOV     R7,A
                                           ; SOURCE LINE # 1469
00F8         ?C0340:
00F8 22                RET     
             ; FUNCTION _memStore (END)

             ; FUNCTION memRecall (BEGIN)
                                           ; SOURCE LINE # 1477
                                           ; SOURCE LINE # 1478
                                           ; SOURCE LINE # 1481
0000 900000      R     MOV     DPTR,#i
0003 E4                CLR     A
0004 F0                MOVX    @DPTR,A
0005 A3                INC     DPTR
0006 E4                CLR     A
0007 F0                MOVX    @DPTR,A
0008         ?C0341:
0008 900000      R     MOV     DPTR,#i
000B E0                MOVX    A,@DPTR
000C FE                MOV     R6,A
000D A3                INC     DPTR
000E E0                MOVX    A,@DPTR
000F FF                MOV     R7,A
0010 C3                CLR     C
0011 EE                MOV     A,R6
0012 9401              SUBB    A,#01H
0014 5040              JNC     ?C0342
                                           ; SOURCE LINE # 1482
0016 900000      R     MOV     DPTR,#i
0019 E0                MOVX    A,@DPTR
001A FE                MOV     R6,A
001B A3                INC     DPTR
001C E0                MOVX    A,@DPTR
001D FF                MOV     R7,A
001E 900000      R     MOV     DPTR,#EEPROM_ADDR
0021 E0                MOVX    A,@DPTR
0022 FC                MOV     R4,A
0023 A3                INC     DPTR
0024 E0                MOVX    A,@DPTR
0025 FD                MOV     R5,A
0026 8D82              MOV     DPL,R5
0028 8C83              MOV     DPH,R4
002A E582              MOV     A,DPL
002C 2F                ADD     A,R7
002D F582              MOV     DPL,A
002F E583              MOV     A,DPH
0031 3E                ADDC    A,R6
0032 F583              MOV     DPH,A
0034 E0                MOVX    A,@DPTR
0035 FF                MOV     R7,A
0036 900000      R     MOV     DPTR,#i
0039 E0                MOVX    A,@DPTR
003A FC                MOV     R4,A
003B A3                INC     DPTR
003C E0                MOVX    A,@DPTR
003D FD                MOV     R5,A
003E 7400        E     MOV     A,#LOW g_mem
0040 2D                ADD     A,R5
0041 F582              MOV     DPL,A
0043 7400        E     MOV     A,#HIGH g_mem
C51 COMPILER V9.51   COMMAND_PROCESSING                                                    02/09/2021 12:42:36 PAGE 198 

0045 3C                ADDC    A,R4
0046 F583              MOV     DPH,A
0048 EF                MOV     A,R7
0049 F0                MOVX    @DPTR,A
                                           ; SOURCE LINE # 1483
004A 900000      R     MOV     DPTR,#i
004D E4                CLR     A
004E 75F001            MOV     B,#01H
0051 120000      E     LCALL   ?C?IILDX
0054 80B2              SJMP    ?C0341
0056         ?C0342:
                                           ; SOURCE LINE # 1486
0056 900000      E     MOV     DPTR,#g_mem
0059 E0                MOVX    A,@DPTR
005A FF                MOV     R7,A
005B EF                MOV     A,R7
005C 7004              JNZ     ?C0344
                                           ; SOURCE LINE # 1487
005E 120000      R     LCALL   memRestore
                                           ; SOURCE LINE # 1488
0061 22                RET     
0062         ?C0344:
                                           ; SOURCE LINE # 1489
0062 7B01              MOV     R3,#01H
0064 7A00        E     MOV     R2,#HIGH g_mem
0066 7900        E     MOV     R1,#LOW g_mem
0068 C003              PUSH    AR3
006A C002              PUSH    AR2
006C C001              PUSH    AR1
006E 7B01              MOV     R3,#01H
0070 7A00        E     MOV     R2,#HIGH c_mem
0072 7900        E     MOV     R1,#LOW c_mem
0074 A801              MOV     R0,AR1
0076 AC02              MOV     R4,AR2
0078 AD03              MOV     R5,AR3
007A D001              POP     AR1
007C D002              POP     AR2
007E D003              POP     AR3
0080 7E01              MOV     R6,#01H
0082 7F00              MOV     R7,#00H
0084 120000      E     LCALL   ?C?COPYAMD
                                           ; SOURCE LINE # 1490
                                           ; SOURCE LINE # 1491
0087         ?C0346:
0087 22                RET     
             ; FUNCTION memRecall (END)

             ; FUNCTION memRestore (BEGIN)
                                           ; SOURCE LINE # 1499
                                           ; SOURCE LINE # 1502
0000 900000      R     MOV     DPTR,#i
0003 E4                CLR     A
0004 F0                MOVX    @DPTR,A
0005 A3                INC     DPTR
0006 E4                CLR     A
0007 F0                MOVX    @DPTR,A
0008         ?C0347:
0008 900000      R     MOV     DPTR,#i
000B E0                MOVX    A,@DPTR
000C FE                MOV     R6,A
000D A3                INC     DPTR
000E E0                MOVX    A,@DPTR
C51 COMPILER V9.51   COMMAND_PROCESSING                                                    02/09/2021 12:42:36 PAGE 199 

000F FF                MOV     R7,A
0010 C3                CLR     C
0011 EE                MOV     A,R6
0012 9401              SUBB    A,#01H
0014 5048              JNC     ?C0348
                                           ; SOURCE LINE # 1503
0016 900000      R     MOV     DPTR,#i
0019 E0                MOVX    A,@DPTR
001A FE                MOV     R6,A
001B A3                INC     DPTR
001C E0                MOVX    A,@DPTR
001D FF                MOV     R7,A
001E EF                MOV     A,R7
001F 2420              ADD     A,#020H
0021 FF                MOV     R7,A
0022 EE                MOV     A,R6
0023 3403              ADDC    A,#03H
0025 FE                MOV     R6,A
0026 900000      R     MOV     DPTR,#EEPROM_ADDR
0029 E0                MOVX    A,@DPTR
002A FC                MOV     R4,A
002B A3                INC     DPTR
002C E0                MOVX    A,@DPTR
002D FD                MOV     R5,A
002E 8D82              MOV     DPL,R5
0030 8C83              MOV     DPH,R4
0032 E582              MOV     A,DPL
0034 2F                ADD     A,R7
0035 F582              MOV     DPL,A
0037 E583              MOV     A,DPH
0039 3E                ADDC    A,R6
003A F583              MOV     DPH,A
003C E0                MOVX    A,@DPTR
003D FF                MOV     R7,A
003E 900000      R     MOV     DPTR,#i
0041 E0                MOVX    A,@DPTR
0042 FC                MOV     R4,A
0043 A3                INC     DPTR
0044 E0                MOVX    A,@DPTR
0045 FD                MOV     R5,A
0046 7400        E     MOV     A,#LOW g_mem
0048 2D                ADD     A,R5
0049 F582              MOV     DPL,A
004B 7400        E     MOV     A,#HIGH g_mem
004D 3C                ADDC    A,R4
004E F583              MOV     DPH,A
0050 EF                MOV     A,R7
0051 F0                MOVX    @DPTR,A
                                           ; SOURCE LINE # 1504
0052 900000      R     MOV     DPTR,#i
0055 E4                CLR     A
0056 75F001            MOV     B,#01H
0059 120000      E     LCALL   ?C?IILDX
005C 80AA              SJMP    ?C0347
005E         ?C0348:
                                           ; SOURCE LINE # 1507
005E 900000      E     MOV     DPTR,#g_mem
0061 E0                MOVX    A,@DPTR
0062 FF                MOV     R7,A
0063 EF                MOV     A,R7
0064 7004              JNZ     ?C0350
                                           ; SOURCE LINE # 1508
C51 COMPILER V9.51   COMMAND_PROCESSING                                                    02/09/2021 12:42:36 PAGE 200 

0066 120000      R     LCALL   memInit
0069 22                RET     
                                           ; SOURCE LINE # 1509
006A         ?C0350:
                                           ; SOURCE LINE # 1510
006A 7F00              MOV     R7,#00H
006C 7E00              MOV     R6,#00H
006E 120000      R     LCALL   _memStore
                                           ; SOURCE LINE # 1511
                                           ; SOURCE LINE # 1512
0071         ?C0351:
0071 22                RET     
             ; FUNCTION memRestore (END)

             ; FUNCTION memInit (BEGIN)
                                           ; SOURCE LINE # 1518
                                           ; SOURCE LINE # 1519
                                           ; SOURCE LINE # 1523
0000 900000      E     MOV     DPTR,#g_mem+01H
0003 7401              MOV     A,#01H
0005 F0                MOVX    @DPTR,A
                                           ; SOURCE LINE # 1525
0006 7FD7              MOV     R7,#0D7H
0008 7E03              MOV     R6,#03H
000A 7D00              MOV     R5,#00H
000C 7C00              MOV     R4,#00H
000E 900000      E     MOV     DPTR,#g_mem+02H
0011 120000      E     LCALL   ?C?LSTXDATA
                                           ; SOURCE LINE # 1526
0014 7F00              MOV     R7,#00H
0016 7E00              MOV     R6,#00H
0018 7D00              MOV     R5,#00H
001A 7C00              MOV     R4,#00H
001C 900000      E     MOV     DPTR,#g_mem+06H
001F 120000      E     LCALL   ?C?LSTXDATA
                                           ; SOURCE LINE # 1527
0022 7FCA              MOV     R7,#0CAH
0024 7E01              MOV     R6,#01H
0026 7D00              MOV     R5,#00H
0028 7C00              MOV     R4,#00H
002A 900000      E     MOV     DPTR,#g_mem+0AH
002D 120000      E     LCALL   ?C?LSTXDATA
                                           ; SOURCE LINE # 1528
0030 7F00              MOV     R7,#00H
0032 7E00              MOV     R6,#00H
0034 7D01              MOV     R5,#01H
0036 7C00              MOV     R4,#00H
0038 900000      E     MOV     DPTR,#g_mem+0EH
003B 120000      E     LCALL   ?C?LSTXDATA
                                           ; SOURCE LINE # 1529
003E 7F41              MOV     R7,#041H
0040 7E00              MOV     R6,#00H
0042 7D00              MOV     R5,#00H
0044 7C00              MOV     R4,#00H
0046 900000      E     MOV     DPTR,#g_mem+012H
0049 120000      E     LCALL   ?C?LSTXDATA
                                           ; SOURCE LINE # 1530
004C 7F00              MOV     R7,#00H
004E 7E00              MOV     R6,#00H
0050 7D00              MOV     R5,#00H
0052 7C00              MOV     R4,#00H
0054 900000      E     MOV     DPTR,#g_mem+016H
C51 COMPILER V9.51   COMMAND_PROCESSING                                                    02/09/2021 12:42:36 PAGE 201 

0057 120000      E     LCALL   ?C?LSTXDATA
                                           ; SOURCE LINE # 1532
005A 7F33              MOV     R7,#033H
005C 7E03              MOV     R6,#03H
005E 7D00              MOV     R5,#00H
0060 7C00              MOV     R4,#00H
0062 900000      E     MOV     DPTR,#g_mem+01AH
0065 120000      E     LCALL   ?C?LSTXDATA
                                           ; SOURCE LINE # 1533
0068 7F00              MOV     R7,#00H
006A 7E00              MOV     R6,#00H
006C 7D00              MOV     R5,#00H
006E 7C00              MOV     R4,#00H
0070 900000      E     MOV     DPTR,#g_mem+01EH
0073 120000      E     LCALL   ?C?LSTXDATA
                                           ; SOURCE LINE # 1534
0076 7F00              MOV     R7,#00H
0078 7E00              MOV     R6,#00H
007A 7D00              MOV     R5,#00H
007C 7C00              MOV     R4,#00H
007E 900000      E     MOV     DPTR,#g_mem+022H
0081 120000      E     LCALL   ?C?LSTXDATA
                                           ; SOURCE LINE # 1535
0084 7F99              MOV     R7,#099H
0086 7E09              MOV     R6,#09H
0088 7D00              MOV     R5,#00H
008A 7C00              MOV     R4,#00H
008C 900000      E     MOV     DPTR,#g_mem+026H
008F 120000      E     LCALL   ?C?LSTXDATA
                                           ; SOURCE LINE # 1536
0092 7F01              MOV     R7,#01H
0094 7E00              MOV     R6,#00H
0096 7D00              MOV     R5,#00H
0098 7C00              MOV     R4,#00H
009A 900000      E     MOV     DPTR,#g_mem+02AH
009D 120000      E     LCALL   ?C?LSTXDATA
                                           ; SOURCE LINE # 1537
00A0 7F00              MOV     R7,#00H
00A2 7E00              MOV     R6,#00H
00A4 7D00              MOV     R5,#00H
00A6 7C00              MOV     R4,#00H
00A8 900000      E     MOV     DPTR,#g_mem+02EH
00AB 120000      E     LCALL   ?C?LSTXDATA
                                           ; SOURCE LINE # 1539
00AE 900000      E     MOV     DPTR,#g_mem+032H
00B1 E4                CLR     A
00B2 F0                MOVX    @DPTR,A
                                           ; SOURCE LINE # 1540
00B3 900000      E     MOV     DPTR,#g_mem+033H
00B6 E4                CLR     A
00B7 F0                MOVX    @DPTR,A
                                           ; SOURCE LINE # 1541
00B8 900000      E     MOV     DPTR,#g_mem+034H
00BB E4                CLR     A
00BC F0                MOVX    @DPTR,A
                                           ; SOURCE LINE # 1543
00BD 900000      E     MOV     DPTR,#g_mem+050H
00C0 7401              MOV     A,#01H
00C2 F0                MOVX    @DPTR,A
                                           ; SOURCE LINE # 1545
00C3 900000      E     MOV     DPTR,#g_mem+07BH
00C6 E4                CLR     A
C51 COMPILER V9.51   COMMAND_PROCESSING                                                    02/09/2021 12:42:36 PAGE 202 

00C7 F0                MOVX    @DPTR,A
                                           ; SOURCE LINE # 1547
00C8 900000      E     MOV     DPTR,#g_mem+035H
00CB 7403              MOV     A,#03H
00CD F0                MOVX    @DPTR,A
                                           ; SOURCE LINE # 1548
00CE 900000      E     MOV     DPTR,#g_mem+036H
00D1 7403              MOV     A,#03H
00D3 F0                MOVX    @DPTR,A
                                           ; SOURCE LINE # 1549
00D4 900000      E     MOV     DPTR,#g_mem+037H
00D7 7403              MOV     A,#03H
00D9 F0                MOVX    @DPTR,A
                                           ; SOURCE LINE # 1551
00DA 900000      R     MOV     DPTR,#i
00DD E4                CLR     A
00DE F0                MOVX    @DPTR,A
00DF         ?C0353:
00DF 900000      R     MOV     DPTR,#i
00E2 E0                MOVX    A,@DPTR
00E3 FF                MOV     R7,A
00E4 EF                MOV     A,R7
00E5 C3                CLR     C
00E6 9402              SUBB    A,#02H
00E8 504E              JNC     ?C0354
                                           ; SOURCE LINE # 1552
00EA 7F00              MOV     R7,#00H
00EC 7E00              MOV     R6,#00H
00EE 7D00              MOV     R5,#00H
00F0 7C00              MOV     R4,#00H
00F2 900000      R     MOV     DPTR,#i
00F5 E0                MOVX    A,@DPTR
00F6 FB                MOV     R3,A
00F7 EB                MOV     A,R3
00F8 25E0              ADD     A,ACC
00FA 25E0              ADD     A,ACC
00FC 2400        E     ADD     A,#LOW g_mem+051H
00FE F582              MOV     DPL,A
0100 E4                CLR     A
0101 3400        E     ADDC    A,#HIGH g_mem+051H
0103 F583              MOV     DPH,A
0105 120000      E     LCALL   ?C?LSTXDATA
                                           ; SOURCE LINE # 1553
0108 7F38              MOV     R7,#038H
010A 7E4A              MOV     R6,#04AH
010C 7D00              MOV     R5,#00H
010E 7C00              MOV     R4,#00H
0110 900000      E     MOV     DPTR,#g_mem+035H
0113 E0                MOVX    A,@DPTR
0114 F9                MOV     R1,A
0115 A801              MOV     R0,AR1
0117 120000      E     LCALL   ?C?LSHL
011A 900000      R     MOV     DPTR,#i
011D E0                MOVX    A,@DPTR
011E FB                MOV     R3,A
011F EB                MOV     A,R3
0120 25E0              ADD     A,ACC
0122 25E0              ADD     A,ACC
0124 2400        E     ADD     A,#LOW g_mem+059H
0126 F582              MOV     DPL,A
0128 E4                CLR     A
0129 3400        E     ADDC    A,#HIGH g_mem+059H
C51 COMPILER V9.51   COMMAND_PROCESSING                                                    02/09/2021 12:42:36 PAGE 203 

012B F583              MOV     DPH,A
012D 120000      E     LCALL   ?C?LSTXDATA
                                           ; SOURCE LINE # 1554
0130 900000      R     MOV     DPTR,#i
0133 E0                MOVX    A,@DPTR
0134 04                INC     A
0135 F0                MOVX    @DPTR,A
0136 80A7              SJMP    ?C0353
0138         ?C0354:
                                           ; SOURCE LINE # 1556
0138 900000      R     MOV     DPTR,#i
013B E4                CLR     A
013C F0                MOVX    @DPTR,A
013D         ?C0356:
013D 900000      R     MOV     DPTR,#i
0140 E0                MOVX    A,@DPTR
0141 FF                MOV     R7,A
0142 EF                MOV     A,R7
0143 C3                CLR     C
0144 9403              SUBB    A,#03H
0146 505A              JNC     ?C0357
                                           ; SOURCE LINE # 1557
                                           ; SOURCE LINE # 1558
0148 7F00              MOV     R7,#00H
014A 7E00              MOV     R6,#00H
014C 7D80              MOV     R5,#080H
014E 7C3F              MOV     R4,#03FH
0150 900000      R     MOV     DPTR,#i
0153 E0                MOVX    A,@DPTR
0154 FB                MOV     R3,A
0155 EB                MOV     A,R3
0156 25E0              ADD     A,ACC
0158 25E0              ADD     A,ACC
015A 2400        E     ADD     A,#LOW g_mem+044H
015C F582              MOV     DPL,A
015E E4                CLR     A
015F 3400        E     ADDC    A,#HIGH g_mem+044H
0161 F583              MOV     DPH,A
0163 120000      E     LCALL   ?C?LSTXDATA
                                           ; SOURCE LINE # 1559
0166 7F00              MOV     R7,#00H
0168 7E00              MOV     R6,#00H
016A 7D00              MOV     R5,#00H
016C 7C00              MOV     R4,#00H
016E 900000      R     MOV     DPTR,#i
0171 E0                MOVX    A,@DPTR
0172 FB                MOV     R3,A
0173 7400        E     MOV     A,#LOW g_mem+035H
0175 2B                ADD     A,R3
0176 F582              MOV     DPL,A
0178 E4                CLR     A
0179 3400        E     ADDC    A,#HIGH g_mem+035H
017B F583              MOV     DPH,A
017D E0                MOVX    A,@DPTR
017E F9                MOV     R1,A
017F A801              MOV     R0,AR1
0181 120000      E     LCALL   ?C?LSHL
0184 900000      R     MOV     DPTR,#i
0187 E0                MOVX    A,@DPTR
0188 FB                MOV     R3,A
0189 EB                MOV     A,R3
018A 25E0              ADD     A,ACC
C51 COMPILER V9.51   COMMAND_PROCESSING                                                    02/09/2021 12:42:36 PAGE 204 

018C 25E0              ADD     A,ACC
018E 2400        E     ADD     A,#LOW g_mem+038H
0190 F582              MOV     DPL,A
0192 E4                CLR     A
0193 3400        E     ADDC    A,#HIGH g_mem+038H
0195 F583              MOV     DPH,A
0197 120000      E     LCALL   ?C?LSTXDATA
                                           ; SOURCE LINE # 1560
019A 900000      R     MOV     DPTR,#i
019D E0                MOVX    A,@DPTR
019E 04                INC     A
019F F0                MOVX    @DPTR,A
01A0 809B              SJMP    ?C0356
01A2         ?C0357:
                                           ; SOURCE LINE # 1562
01A2 7F00              MOV     R7,#00H
01A4 7E00              MOV     R6,#00H
01A6 7D00              MOV     R5,#00H
01A8 7C00              MOV     R4,#00H
01AA 900000      E     MOV     DPTR,#g_mem+061H
01AD 120000      E     LCALL   ?C?LSTXDATA
                                           ; SOURCE LINE # 1563
01B0 7F00              MOV     R7,#00H
01B2 7E00              MOV     R6,#00H
01B4 7D00              MOV     R5,#00H
01B6 7C00              MOV     R4,#00H
01B8 900000      E     MOV     DPTR,#g_mem+065H
01BB 120000      E     LCALL   ?C?LSTXDATA
                                           ; SOURCE LINE # 1565
01BE 900000      E     MOV     DPTR,#g_mem+069H
01C1 7405              MOV     A,#05H
01C3 F0                MOVX    @DPTR,A
01C4 A3                INC     DPTR
01C5 74DC              MOV     A,#0DCH
01C7 F0                MOVX    @DPTR,A
                                           ; SOURCE LINE # 1568
01C8 900000      E     MOV     DPTR,#g_mem+06FH
01CB E4                CLR     A
01CC F0                MOVX    @DPTR,A
                                           ; SOURCE LINE # 1570
01CD 7F00              MOV     R7,#00H
01CF 7E04              MOV     R6,#04H
01D1 7D00              MOV     R5,#00H
01D3 7C00              MOV     R4,#00H
01D5 900000      E     MOV     DPTR,#g_mem+070H
01D8 120000      E     LCALL   ?C?LSTXDATA
                                           ; SOURCE LINE # 1571
01DB 7F00              MOV     R7,#00H
01DD 7E04              MOV     R6,#04H
01DF 7D00              MOV     R5,#00H
01E1 7C00              MOV     R4,#00H
01E3 900000      E     MOV     DPTR,#g_mem+074H
01E6 120000      E     LCALL   ?C?LSTXDATA
                                           ; SOURCE LINE # 1573
01E9 900000      E     MOV     DPTR,#g_mem+06BH
01EC E4                CLR     A
01ED F0                MOVX    @DPTR,A
01EE A3                INC     DPTR
01EF 7464              MOV     A,#064H
01F1 F0                MOVX    @DPTR,A
                                           ; SOURCE LINE # 1574
01F2 900000      E     MOV     DPTR,#g_mem+06DH
C51 COMPILER V9.51   COMMAND_PROCESSING                                                    02/09/2021 12:42:36 PAGE 205 

01F5 E4                CLR     A
01F6 F0                MOVX    @DPTR,A
01F7 A3                INC     DPTR
01F8 7464              MOV     A,#064H
01FA F0                MOVX    @DPTR,A
                                           ; SOURCE LINE # 1576
01FB 900000      E     MOV     DPTR,#g_mem+078H
01FE 7464              MOV     A,#064H
0200 F0                MOVX    @DPTR,A
                                           ; SOURCE LINE # 1578
0201 900000      E     MOV     DPTR,#g_mem+095H
0204 E4                CLR     A
0205 F0                MOVX    @DPTR,A
                                           ; SOURCE LINE # 1580
0206 900000      E     MOV     DPTR,#g_mem+079H
0209 7401              MOV     A,#01H
020B F0                MOVX    @DPTR,A
                                           ; SOURCE LINE # 1581
020C 900000      E     MOV     DPTR,#g_mem+07AH
020F 7416              MOV     A,#016H
0211 F0                MOVX    @DPTR,A
                                           ; SOURCE LINE # 1584
0212 900000      E     MOV     DPTR,#g_mem+0A6H
0215 E4                CLR     A
0216 F0                MOVX    @DPTR,A
                                           ; SOURCE LINE # 1585
0217 7F58              MOV     R7,#058H
0219 7E1B              MOV     R6,#01BH
021B 7D00              MOV     R5,#00H
021D 7C00              MOV     R4,#00H
021F 900000      E     MOV     DPTR,#g_mem+035H
0222 E0                MOVX    A,@DPTR
0223 F9                MOV     R1,A
0224 A801              MOV     R0,AR1
0226 120000      E     LCALL   ?C?LSHL
0229 900000      E     MOV     DPTR,#g_mem+096H
022C 120000      E     LCALL   ?C?LSTXDATA
                                           ; SOURCE LINE # 1586
022F 7F0A              MOV     R7,#0AH
0231 7E00              MOV     R6,#00H
0233 7D00              MOV     R5,#00H
0235 7C00              MOV     R4,#00H
0237 900000      E     MOV     DPTR,#g_mem+09AH
023A 120000      E     LCALL   ?C?LSTXDATA
                                           ; SOURCE LINE # 1587
023D 7F10              MOV     R7,#010H
023F 7E27              MOV     R6,#027H
0241 7D00              MOV     R5,#00H
0243 7C00              MOV     R4,#00H
0245 900000      E     MOV     DPTR,#g_mem+09EH
0248 120000      E     LCALL   ?C?LSTXDATA
                                           ; SOURCE LINE # 1588
024B 900000      E     MOV     DPTR,#g_mem+0A5H
024E E4                CLR     A
024F F0                MOVX    @DPTR,A
                                           ; SOURCE LINE # 1590
0250 900000      R     MOV     DPTR,#i
0253 E4                CLR     A
0254 F0                MOVX    @DPTR,A
0255         ?C0359:
0255 900000      R     MOV     DPTR,#i
0258 E0                MOVX    A,@DPTR
C51 COMPILER V9.51   COMMAND_PROCESSING                                                    02/09/2021 12:42:36 PAGE 206 

0259 FF                MOV     R7,A
025A EF                MOV     A,R7
025B C3                CLR     C
025C 9409              SUBB    A,#09H
025E 5019              JNC     ?C0360
                                           ; SOURCE LINE # 1591
0260 900000      R     MOV     DPTR,#i
0263 E0                MOVX    A,@DPTR
0264 FF                MOV     R7,A
0265 7400        E     MOV     A,#LOW g_mem+0A7H
0267 2F                ADD     A,R7
0268 F582              MOV     DPL,A
026A E4                CLR     A
026B 3400        E     ADDC    A,#HIGH g_mem+0A7H
026D F583              MOV     DPH,A
026F E4                CLR     A
0270 F0                MOVX    @DPTR,A
                                           ; SOURCE LINE # 1592
0271 900000      R     MOV     DPTR,#i
0274 E0                MOVX    A,@DPTR
0275 04                INC     A
0276 F0                MOVX    @DPTR,A
0277 80DC              SJMP    ?C0359
0279         ?C0360:
                                           ; SOURCE LINE # 1595
0279 7F00              MOV     R7,#00H
027B 7E00              MOV     R6,#00H
027D 7D00              MOV     R5,#00H
027F 7C00              MOV     R4,#00H
0281 900000      E     MOV     DPTR,#g_mem+0B4H
0284 120000      E     LCALL   ?C?LSTXDATA
0287 7F00              MOV     R7,#00H
0289 7E00              MOV     R6,#00H
028B 7D00              MOV     R5,#00H
028D 7C00              MOV     R4,#00H
028F 900000      E     MOV     DPTR,#g_mem+0B0H
0292 120000      E     LCALL   ?C?LSTXDATA
                                           ; SOURCE LINE # 1596
0295 900000      R     MOV     DPTR,#i
0298 E4                CLR     A
0299 F0                MOVX    @DPTR,A
029A         ?C0362:
029A 900000      R     MOV     DPTR,#i
029D E0                MOVX    A,@DPTR
029E FF                MOV     R7,A
029F EF                MOV     A,R7
02A0 C3                CLR     C
02A1 940A              SUBB    A,#0AH
02A3 5026              JNC     ?C0363
                                           ; SOURCE LINE # 1597
02A5 7F00              MOV     R7,#00H
02A7 7E00              MOV     R6,#00H
02A9 7D00              MOV     R5,#00H
02AB 7C00              MOV     R4,#00H
02AD 900000      R     MOV     DPTR,#i
02B0 E0                MOVX    A,@DPTR
02B1 FB                MOV     R3,A
02B2 EB                MOV     A,R3
02B3 25E0              ADD     A,ACC
02B5 25E0              ADD     A,ACC
02B7 2400        E     ADD     A,#LOW g_mem+0B8H
02B9 F582              MOV     DPL,A
C51 COMPILER V9.51   COMMAND_PROCESSING                                                    02/09/2021 12:42:36 PAGE 207 

02BB E4                CLR     A
02BC 3400        E     ADDC    A,#HIGH g_mem+0B8H
02BE F583              MOV     DPH,A
02C0 120000      E     LCALL   ?C?LSTXDATA
                                           ; SOURCE LINE # 1598
02C3 900000      R     MOV     DPTR,#i
02C6 E0                MOVX    A,@DPTR
02C7 04                INC     A
02C8 F0                MOVX    @DPTR,A
02C9 80CF              SJMP    ?C0362
02CB         ?C0363:
                                           ; SOURCE LINE # 1599
02CB 900000      R     MOV     DPTR,#i
02CE E4                CLR     A
02CF F0                MOVX    @DPTR,A
02D0         ?C0365:
02D0 900000      R     MOV     DPTR,#i
02D3 E0                MOVX    A,@DPTR
02D4 FF                MOV     R7,A
02D5 EF                MOV     A,R7
02D6 C3                CLR     C
02D7 9404              SUBB    A,#04H
02D9 5026              JNC     ?C0366
                                           ; SOURCE LINE # 1600
02DB 7F00              MOV     R7,#00H
02DD 7E00              MOV     R6,#00H
02DF 7D00              MOV     R5,#00H
02E1 7C00              MOV     R4,#00H
02E3 900000      R     MOV     DPTR,#i
02E6 E0                MOVX    A,@DPTR
02E7 FB                MOV     R3,A
02E8 EB                MOV     A,R3
02E9 25E0              ADD     A,ACC
02EB 25E0              ADD     A,ACC
02ED 2400        E     ADD     A,#LOW g_mem+0E0H
02EF F582              MOV     DPL,A
02F1 E4                CLR     A
02F2 3400        E     ADDC    A,#HIGH g_mem+0E0H
02F4 F583              MOV     DPH,A
02F6 120000      E     LCALL   ?C?LSTXDATA
                                           ; SOURCE LINE # 1601
02F9 900000      R     MOV     DPTR,#i
02FC E0                MOVX    A,@DPTR
02FD 04                INC     A
02FE F0                MOVX    @DPTR,A
02FF 80CF              SJMP    ?C0365
0301         ?C0366:
                                           ; SOURCE LINE # 1602
0301 7F00              MOV     R7,#00H
0303 7E00              MOV     R6,#00H
0305 7D00              MOV     R5,#00H
0307 7C00              MOV     R4,#00H
0309 900000      E     MOV     DPTR,#g_mem+0F0H
030C 120000      E     LCALL   ?C?LSTXDATA
                                           ; SOURCE LINE # 1603
030F 7F00              MOV     R7,#00H
0311 7E00              MOV     R6,#00H
0313 7D00              MOV     R5,#00H
0315 7C00              MOV     R4,#00H
0317 900000      E     MOV     DPTR,#g_mem+0F4H
031A 120000      E     LCALL   ?C?LSTXDATA
                                           ; SOURCE LINE # 1604
C51 COMPILER V9.51   COMMAND_PROCESSING                                                    02/09/2021 12:42:36 PAGE 208 

031D 7F00              MOV     R7,#00H
031F 7E00              MOV     R6,#00H
0321 7D00              MOV     R5,#00H
0323 7C00              MOV     R4,#00H
0325 900000      E     MOV     DPTR,#g_mem+0F8H
0328 120000      E     LCALL   ?C?LSTXDATA
                                           ; SOURCE LINE # 1605
032B 7F00              MOV     R7,#00H
032D 7E00              MOV     R6,#00H
032F 7D00              MOV     R5,#00H
0331 7C00              MOV     R4,#00H
0333 900000      E     MOV     DPTR,#g_mem+0FCH
0336 120000      E     LCALL   ?C?LSTXDATA
                                           ; SOURCE LINE # 1608
0339 900000      E     MOV     DPTR,#g_mem
033C 7401              MOV     A,#01H
033E F0                MOVX    @DPTR,A
                                           ; SOURCE LINE # 1611
033F 7F00              MOV     R7,#00H
0341 7E00              MOV     R6,#00H
0343 120000      R     LCALL   _memStore
0346 EF                MOV     A,R7
0347 600E              JZ      ?C0368
0349 7F32              MOV     R7,#032H
034B 7E00              MOV     R6,#00H
034D 120000      R     LCALL   _memStore
0350 EF                MOV     A,R7
0351 6004              JZ      ?C0368
0353 7F01              MOV     R7,#01H
0355 8002              SJMP    ?C0369
0357         ?C0368:
0357 7F00              MOV     R7,#00H
0359         ?C0369:
                                           ; SOURCE LINE # 1612
0359         ?C0370:
0359 22                RET     
             ; FUNCTION memInit (END)

             ; FUNCTION cmd_get_measurements (BEGIN)
                                           ; SOURCE LINE # 1621
                                           ; SOURCE LINE # 1630
0000 900000      R     MOV     DPTR,#packet_data
0003 7484              MOV     A,#084H
0005 F0                MOVX    @DPTR,A
                                           ; SOURCE LINE # 1632
0006 750003      R     MOV     index,#03H
0009         ?C0371:
0009 AF00        R     MOV     R7,index
000B 1500        R     DEC     index
000D EF                MOV     A,R7
000E 603C              JZ      ?C0372
                                           ; SOURCE LINE # 1633
0010 AF00        R     MOV     R7,index
0012 EF                MOV     A,R7
0013 25E0              ADD     A,ACC
0015 25E0              ADD     A,ACC
0017 2400        E     ADD     A,#LOW g_measOld
0019 F582              MOV     DPL,A
001B E4                CLR     A
001C 3400        E     ADDC    A,#HIGH g_measOld
001E F583              MOV     DPH,A
0020 120000      E     LCALL   ?C?LLDXDATA
C51 COMPILER V9.51   COMMAND_PROCESSING                                                    02/09/2021 12:42:36 PAGE 209 

0023 AB00        R     MOV     R3,index
0025 7400        E     MOV     A,#LOW g_mem+035H
0027 2B                ADD     A,R3
0028 F582              MOV     DPL,A
002A E4                CLR     A
002B 3400        E     ADDC    A,#HIGH g_mem+035H
002D F583              MOV     DPH,A
002F E0                MOVX    A,@DPTR
0030 F9                MOV     R1,A
0031 A801              MOV     R0,AR1
0033 120000      E     LCALL   ?C?SLSHR
0036 E500        R     MOV     A,index
0038 25E0              ADD     A,ACC
003A FD                MOV     R5,A
003B 7400        R     MOV     A,#LOW packet_data+01H
003D 2D                ADD     A,R5
003E F582              MOV     DPL,A
0040 E4                CLR     A
0041 3400        R     ADDC    A,#HIGH packet_data+01H
0043 F583              MOV     DPH,A
0045 EE                MOV     A,R6
0046 F0                MOVX    @DPTR,A
0047 A3                INC     DPTR
0048 EF                MOV     A,R7
0049 F0                MOVX    @DPTR,A
004A 80BD              SJMP    ?C0371
004C         ?C0372:
                                           ; SOURCE LINE # 1637
004C 7B01              MOV     R3,#01H
004E 7A00        R     MOV     R2,#HIGH packet_data
0050 7900        R     MOV     R1,#LOW packet_data
0052 7D07              MOV     R5,#07H
0054 120000      R     LCALL   _LCRChecksum
0057 900000      R     MOV     DPTR,#packet_data+07H
005A EF                MOV     A,R7
005B F0                MOVX    @DPTR,A
                                           ; SOURCE LINE # 1639
005C 7B01              MOV     R3,#01H
005E 7A00        R     MOV     R2,#HIGH packet_data
0060 7900        R     MOV     R1,#LOW packet_data
0062 7D08              MOV     R5,#08H
0064 7C00              MOV     R4,#00H
0066 120000      R     LCALL   _commWrite
                                           ; SOURCE LINE # 1641
0069 22                RET     
             ; FUNCTION cmd_get_measurements (END)

             ; FUNCTION cmd_get_velocities (BEGIN)
                                           ; SOURCE LINE # 1643
                                           ; SOURCE LINE # 1652
0000 900000      R     MOV     DPTR,#packet_data
0003 7489              MOV     A,#089H
0005 F0                MOVX    @DPTR,A
                                           ; SOURCE LINE # 1654
0006 750003      R     MOV     index,#03H
0009         ?C0374:
0009 AF00        R     MOV     R7,index
000B 1500        R     DEC     index
000D EF                MOV     A,R7
000E 603C              JZ      ?C0375
                                           ; SOURCE LINE # 1655
0010 AF00        R     MOV     R7,index
C51 COMPILER V9.51   COMMAND_PROCESSING                                                    02/09/2021 12:42:36 PAGE 210 

0012 EF                MOV     A,R7
0013 25E0              ADD     A,ACC
0015 25E0              ADD     A,ACC
0017 2400        E     ADD     A,#LOW g_measOld+01FH
0019 F582              MOV     DPL,A
001B E4                CLR     A
001C 3400        E     ADDC    A,#HIGH g_measOld+01FH
001E F583              MOV     DPH,A
0020 120000      E     LCALL   ?C?LLDXDATA
0023 AB00        R     MOV     R3,index
0025 7400        E     MOV     A,#LOW g_mem+035H
0027 2B                ADD     A,R3
0028 F582              MOV     DPL,A
002A E4                CLR     A
002B 3400        E     ADDC    A,#HIGH g_mem+035H
002D F583              MOV     DPH,A
002F E0                MOVX    A,@DPTR
0030 F9                MOV     R1,A
0031 A801              MOV     R0,AR1
0033 120000      E     LCALL   ?C?SLSHR
0036 E500        R     MOV     A,index
0038 25E0              ADD     A,ACC
003A FD                MOV     R5,A
003B 7400        R     MOV     A,#LOW packet_data+01H
003D 2D                ADD     A,R5
003E F582              MOV     DPL,A
0040 E4                CLR     A
0041 3400        R     ADDC    A,#HIGH packet_data+01H
0043 F583              MOV     DPH,A
0045 EE                MOV     A,R6
0046 F0                MOVX    @DPTR,A
0047 A3                INC     DPTR
0048 EF                MOV     A,R7
0049 F0                MOVX    @DPTR,A
004A 80BD              SJMP    ?C0374
004C         ?C0375:
                                           ; SOURCE LINE # 1659
004C 7B01              MOV     R3,#01H
004E 7A00        R     MOV     R2,#HIGH packet_data
0050 7900        R     MOV     R1,#LOW packet_data
0052 7D07              MOV     R5,#07H
0054 120000      R     LCALL   _LCRChecksum
0057 900000      R     MOV     DPTR,#packet_data+07H
005A EF                MOV     A,R7
005B F0                MOVX    @DPTR,A
                                           ; SOURCE LINE # 1661
005C 7B01              MOV     R3,#01H
005E 7A00        R     MOV     R2,#HIGH packet_data
0060 7900        R     MOV     R1,#LOW packet_data
0062 7D08              MOV     R5,#08H
0064 7C00              MOV     R4,#00H
0066 120000      R     LCALL   _commWrite
                                           ; SOURCE LINE # 1663
0069 22                RET     
             ; FUNCTION cmd_get_velocities (END)

             ; FUNCTION cmd_get_accelerations (BEGIN)
                                           ; SOURCE LINE # 1665
                                           ; SOURCE LINE # 1674
0000 900000      R     MOV     DPTR,#packet_data
0003 748B              MOV     A,#08BH
0005 F0                MOVX    @DPTR,A
C51 COMPILER V9.51   COMMAND_PROCESSING                                                    02/09/2021 12:42:36 PAGE 211 

                                           ; SOURCE LINE # 1676
0006 750003      R     MOV     index,#03H
0009         ?C0377:
0009 AF00        R     MOV     R7,index
000B 1500        R     DEC     index
000D EF                MOV     A,R7
000E 603C              JZ      ?C0378
                                           ; SOURCE LINE # 1677
0010 AF00        R     MOV     R7,index
0012 EF                MOV     A,R7
0013 25E0              ADD     A,ACC
0015 25E0              ADD     A,ACC
0017 2400        E     ADD     A,#LOW g_measOld+02BH
0019 F582              MOV     DPL,A
001B E4                CLR     A
001C 3400        E     ADDC    A,#HIGH g_measOld+02BH
001E F583              MOV     DPH,A
0020 120000      E     LCALL   ?C?LLDXDATA
0023 AB00        R     MOV     R3,index
0025 7400        E     MOV     A,#LOW g_mem+035H
0027 2B                ADD     A,R3
0028 F582              MOV     DPL,A
002A E4                CLR     A
002B 3400        E     ADDC    A,#HIGH g_mem+035H
002D F583              MOV     DPH,A
002F E0                MOVX    A,@DPTR
0030 F9                MOV     R1,A
0031 A801              MOV     R0,AR1
0033 120000      E     LCALL   ?C?SLSHR
0036 E500        R     MOV     A,index
0038 25E0              ADD     A,ACC
003A FD                MOV     R5,A
003B 7400        R     MOV     A,#LOW packet_data+01H
003D 2D                ADD     A,R5
003E F582              MOV     DPL,A
0040 E4                CLR     A
0041 3400        R     ADDC    A,#HIGH packet_data+01H
0043 F583              MOV     DPH,A
0045 EE                MOV     A,R6
0046 F0                MOVX    @DPTR,A
0047 A3                INC     DPTR
0048 EF                MOV     A,R7
0049 F0                MOVX    @DPTR,A
004A 80BD              SJMP    ?C0377
004C         ?C0378:
                                           ; SOURCE LINE # 1681
004C 7B01              MOV     R3,#01H
004E 7A00        R     MOV     R2,#HIGH packet_data
0050 7900        R     MOV     R1,#LOW packet_data
0052 7D07              MOV     R5,#07H
0054 120000      R     LCALL   _LCRChecksum
0057 900000      R     MOV     DPTR,#packet_data+07H
005A EF                MOV     A,R7
005B F0                MOVX    @DPTR,A
                                           ; SOURCE LINE # 1683
005C 7B01              MOV     R3,#01H
005E 7A00        R     MOV     R2,#HIGH packet_data
0060 7900        R     MOV     R1,#LOW packet_data
0062 7D08              MOV     R5,#08H
0064 7C00              MOV     R4,#00H
0066 120000      R     LCALL   _commWrite
                                           ; SOURCE LINE # 1685
C51 COMPILER V9.51   COMMAND_PROCESSING                                                    02/09/2021 12:42:36 PAGE 212 

0069 22                RET     
             ; FUNCTION cmd_get_accelerations (END)

             ; FUNCTION cmd_set_inputs (BEGIN)
                                           ; SOURCE LINE # 1687
                                           ; SOURCE LINE # 1691
0000 900000      E     MOV     DPTR,#g_mem+034H
0003 E0                MOVX    A,@DPTR
0004 FF                MOV     R7,A
0005 EF                MOV     A,R7
0006 B4022B            CJNE    A,#02H,?C0380
                                           ; SOURCE LINE # 1692
0009 900000      E     MOV     DPTR,#g_rx+01H
000C E0                MOVX    A,@DPTR
000D FE                MOV     R6,A
000E A3                INC     DPTR
000F E0                MOVX    A,@DPTR
0010 FF                MOV     R7,A
0011 EE                MOV     A,R6
0012 33                RLC     A
0013 95E0              SUBB    A,ACC
0015 FD                MOV     R5,A
0016 FC                MOV     R4,A
0017 900000      E     MOV     DPTR,#g_refNew+08H
001A 120000      E     LCALL   ?C?LSTXDATA
                                           ; SOURCE LINE # 1693
001D 900000      E     MOV     DPTR,#g_rx+03H
0020 E0                MOVX    A,@DPTR
0021 FE                MOV     R6,A
0022 A3                INC     DPTR
0023 E0                MOVX    A,@DPTR
0024 FF                MOV     R7,A
0025 EE                MOV     A,R6
0026 33                RLC     A
0027 95E0              SUBB    A,ACC
0029 FD                MOV     R5,A
002A FC                MOV     R4,A
002B 900000      E     MOV     DPTR,#g_refNew+0CH
002E 120000      E     LCALL   ?C?LSTXDATA
                                           ; SOURCE LINE # 1694
0031 020000      R     LJMP    ?C0381
0034         ?C0380:
                                           ; SOURCE LINE # 1695
                                           ; SOURCE LINE # 1696
0034 900000      E     MOV     DPTR,#g_mem+034H
0037 E0                MOVX    A,@DPTR
0038 FF                MOV     R7,A
0039 EF                MOV     A,R7
003A B4012B            CJNE    A,#01H,?C0382
                                           ; SOURCE LINE # 1697
003D 900000      E     MOV     DPTR,#g_rx+01H
0040 E0                MOVX    A,@DPTR
0041 FE                MOV     R6,A
0042 A3                INC     DPTR
0043 E0                MOVX    A,@DPTR
0044 FF                MOV     R7,A
0045 EE                MOV     A,R6
0046 33                RLC     A
0047 95E0              SUBB    A,ACC
0049 FD                MOV     R5,A
004A FC                MOV     R4,A
004B 900000      E     MOV     DPTR,#g_refNew+010H
C51 COMPILER V9.51   COMMAND_PROCESSING                                                    02/09/2021 12:42:36 PAGE 213 

004E 120000      E     LCALL   ?C?LSTXDATA
                                           ; SOURCE LINE # 1698
0051 900000      E     MOV     DPTR,#g_rx+03H
0054 E0                MOVX    A,@DPTR
0055 FE                MOV     R6,A
0056 A3                INC     DPTR
0057 E0                MOVX    A,@DPTR
0058 FF                MOV     R7,A
0059 EE                MOV     A,R6
005A 33                RLC     A
005B 95E0              SUBB    A,ACC
005D FD                MOV     R5,A
005E FC                MOV     R4,A
005F 900000      E     MOV     DPTR,#g_refNew+014H
0062 120000      E     LCALL   ?C?LSTXDATA
                                           ; SOURCE LINE # 1699
0065 020000      R     LJMP    ?C0381
0068         ?C0382:
                                           ; SOURCE LINE # 1700
                                           ; SOURCE LINE # 1701
0068 900000      E     MOV     DPTR,#g_mem+034H
006B E0                MOVX    A,@DPTR
006C FF                MOV     R7,A
006D EF                MOV     A,R7
006E 6403              XRL     A,#03H
0070 7062              JNZ     ?C0384
                                           ; SOURCE LINE # 1703
0072 900000      E     MOV     DPTR,#g_rx+01H
0075 E0                MOVX    A,@DPTR
0076 FE                MOV     R6,A
0077 A3                INC     DPTR
0078 E0                MOVX    A,@DPTR
0079 FF                MOV     R7,A
007A EE                MOV     A,R6
007B 33                RLC     A
007C 95E0              SUBB    A,ACC
007E FD                MOV     R5,A
007F FC                MOV     R4,A
0080 900000      E     MOV     DPTR,#g_refNew
0083 120000      E     LCALL   ?C?LSTXDATA
                                           ; SOURCE LINE # 1704
0086 900000      E     MOV     DPTR,#g_refNew
0089 120000      E     LCALL   ?C?LLDXDATA
008C 900000      E     MOV     DPTR,#g_mem+035H
008F E0                MOVX    A,@DPTR
0090 F9                MOV     R1,A
0091 A801              MOV     R0,AR1
0093 120000      E     LCALL   ?C?LSHL
0096 900000      E     MOV     DPTR,#g_refNew
0099 120000      E     LCALL   ?C?LSTXDATA
                                           ; SOURCE LINE # 1706
009C 900000      E     MOV     DPTR,#g_rx+03H
009F E0                MOVX    A,@DPTR
00A0 FE                MOV     R6,A
00A1 A3                INC     DPTR
00A2 E0                MOVX    A,@DPTR
00A3 FF                MOV     R7,A
00A4 EE                MOV     A,R6
00A5 33                RLC     A
00A6 95E0              SUBB    A,ACC
00A8 FD                MOV     R5,A
00A9 FC                MOV     R4,A
C51 COMPILER V9.51   COMMAND_PROCESSING                                                    02/09/2021 12:42:36 PAGE 214 

00AA 900000      E     MOV     DPTR,#g_refNew+019H
00AD 120000      E     LCALL   ?C?LSTXDATA
                                           ; SOURCE LINE # 1707
00B0 7F00              MOV     R7,#00H
00B2 7E00              MOV     R6,#00H
00B4 7D00              MOV     R5,#00H
00B6 7C00              MOV     R4,#00H
00B8 900000      E     MOV     DPTR,#g_refNew+019H
00BB 120000      E     LCALL   ?C?LLDXDATA0
00BE C3                CLR     C
00BF 120000      E     LCALL   ?C?SLCMP
00C2 5064              JNC     ?C0381
                                           ; SOURCE LINE # 1708
00C4 7F00              MOV     R7,#00H
00C6 7E00              MOV     R6,#00H
00C8 7D00              MOV     R5,#00H
00CA 7C00              MOV     R4,#00H
00CC 900000      E     MOV     DPTR,#g_refNew+019H
00CF 120000      E     LCALL   ?C?LSTXDATA
                                           ; SOURCE LINE # 1709
                                           ; SOURCE LINE # 1710
00D2 8054              SJMP    ?C0381
00D4         ?C0384:
                                           ; SOURCE LINE # 1711
                                           ; SOURCE LINE # 1713
00D4 900000      E     MOV     DPTR,#g_rx+01H
00D7 E0                MOVX    A,@DPTR
00D8 FE                MOV     R6,A
00D9 A3                INC     DPTR
00DA E0                MOVX    A,@DPTR
00DB FF                MOV     R7,A
00DC EE                MOV     A,R6
00DD 33                RLC     A
00DE 95E0              SUBB    A,ACC
00E0 FD                MOV     R5,A
00E1 FC                MOV     R4,A
00E2 900000      E     MOV     DPTR,#g_refNew
00E5 120000      E     LCALL   ?C?LSTXDATA
                                           ; SOURCE LINE # 1714
00E8 900000      E     MOV     DPTR,#g_refNew
00EB 120000      E     LCALL   ?C?LLDXDATA
00EE 900000      E     MOV     DPTR,#g_mem+035H
00F1 E0                MOVX    A,@DPTR
00F2 F9                MOV     R1,A
00F3 A801              MOV     R0,AR1
00F5 120000      E     LCALL   ?C?LSHL
00F8 900000      E     MOV     DPTR,#g_refNew
00FB 120000      E     LCALL   ?C?LSTXDATA
                                           ; SOURCE LINE # 1716
00FE 900000      E     MOV     DPTR,#g_rx+03H
0101 E0                MOVX    A,@DPTR
0102 FE                MOV     R6,A
0103 A3                INC     DPTR
0104 E0                MOVX    A,@DPTR
0105 FF                MOV     R7,A
0106 EE                MOV     A,R6
0107 33                RLC     A
0108 95E0              SUBB    A,ACC
010A FD                MOV     R5,A
010B FC                MOV     R4,A
010C 900000      E     MOV     DPTR,#g_refNew+04H
010F 120000      E     LCALL   ?C?LSTXDATA
C51 COMPILER V9.51   COMMAND_PROCESSING                                                    02/09/2021 12:42:36 PAGE 215 

                                           ; SOURCE LINE # 1717
0112 900000      E     MOV     DPTR,#g_refNew+04H
0115 120000      E     LCALL   ?C?LLDXDATA
0118 900000      E     MOV     DPTR,#g_mem+036H
011B E0                MOVX    A,@DPTR
011C F9                MOV     R1,A
011D A801              MOV     R0,AR1
011F 120000      E     LCALL   ?C?LSHL
0122 900000      E     MOV     DPTR,#g_refNew+04H
0125 120000      E     LCALL   ?C?LSTXDATA
                                           ; SOURCE LINE # 1718
                                           ; SOURCE LINE # 1719
                                           ; SOURCE LINE # 1720
0128         ?C0381:
                                           ; SOURCE LINE # 1725
0128 900000      E     MOV     DPTR,#c_mem+050H
012B E0                MOVX    A,@DPTR
012C FF                MOV     R7,A
012D EF                MOV     A,R7
012E 7003              JNZ     $ + 5H
0130 020000      R     LJMP    ?C0393
0133 900000      E     MOV     DPTR,#g_mem+034H
0136 E0                MOVX    A,@DPTR
0137 FF                MOV     R7,A
0138 EF                MOV     A,R7
0139 6403              XRL     A,#03H
013B 6008              JZ      ?C0388
013D 900000      E     MOV     DPTR,#g_mem+034H
0140 E0                MOVX    A,@DPTR
0141 FF                MOV     R7,A
0142 EF                MOV     A,R7
0143 7078              JNZ     ?C0393
0145         ?C0388:
                                           ; SOURCE LINE # 1727
0145 900000      E     MOV     DPTR,#c_mem+051H
0148 120000      E     LCALL   ?C?LLDXDATA
014B 900000      E     MOV     DPTR,#g_refNew
014E 120000      E     LCALL   ?C?LLDXDATA0
0151 C3                CLR     C
0152 120000      E     LCALL   ?C?SLCMP
0155 500C              JNC     ?C0389
                                           ; SOURCE LINE # 1728
0157 900000      E     MOV     DPTR,#c_mem+051H
015A 120000      E     LCALL   ?C?LLDXDATA
015D 900000      E     MOV     DPTR,#g_refNew
0160 120000      E     LCALL   ?C?LSTXDATA
0163         ?C0389:
                                           ; SOURCE LINE # 1729
0163 900000      E     MOV     DPTR,#c_mem+055H
0166 120000      E     LCALL   ?C?LLDXDATA
0169 900000      E     MOV     DPTR,#g_refNew+04H
016C 120000      E     LCALL   ?C?LLDXDATA0
016F C3                CLR     C
0170 120000      E     LCALL   ?C?SLCMP
0173 500C              JNC     ?C0390
                                           ; SOURCE LINE # 1730
0175 900000      E     MOV     DPTR,#c_mem+055H
0178 120000      E     LCALL   ?C?LLDXDATA
017B 900000      E     MOV     DPTR,#g_refNew+04H
017E 120000      E     LCALL   ?C?LSTXDATA
0181         ?C0390:
                                           ; SOURCE LINE # 1732
C51 COMPILER V9.51   COMMAND_PROCESSING                                                    02/09/2021 12:42:36 PAGE 216 

0181 900000      E     MOV     DPTR,#c_mem+059H
0184 120000      E     LCALL   ?C?LLDXDATA
0187 900000      E     MOV     DPTR,#g_refNew
018A 120000      E     LCALL   ?C?LLDXDATA0
018D D3                SETB    C
018E 120000      E     LCALL   ?C?SLCMP
0191 400C              JC      ?C0391
                                           ; SOURCE LINE # 1733
0193 900000      E     MOV     DPTR,#c_mem+059H
0196 120000      E     LCALL   ?C?LLDXDATA
0199 900000      E     MOV     DPTR,#g_refNew
019C 120000      E     LCALL   ?C?LSTXDATA
019F         ?C0391:
                                           ; SOURCE LINE # 1734
019F 900000      E     MOV     DPTR,#c_mem+05DH
01A2 120000      E     LCALL   ?C?LLDXDATA
01A5 900000      E     MOV     DPTR,#g_refNew+04H
01A8 120000      E     LCALL   ?C?LLDXDATA0
01AB D3                SETB    C
01AC 120000      E     LCALL   ?C?SLCMP
01AF 400C              JC      ?C0393
                                           ; SOURCE LINE # 1735
01B1 900000      E     MOV     DPTR,#c_mem+05DH
01B4 120000      E     LCALL   ?C?LLDXDATA
01B7 900000      E     MOV     DPTR,#g_refNew+04H
01BA 120000      E     LCALL   ?C?LSTXDATA
                                           ; SOURCE LINE # 1736
                                           ; SOURCE LINE # 1737
01BD         ?C0393:
01BD 22                RET     
             ; FUNCTION cmd_set_inputs (END)

             ; FUNCTION cmd_activate (BEGIN)
                                           ; SOURCE LINE # 1739
                                           ; SOURCE LINE # 1742
0000 900000      E     MOV     DPTR,#g_rx+01H
0003 E0                MOVX    A,@DPTR
0004 FF                MOV     R7,A
0005 900000      E     MOV     DPTR,#g_refNew+018H
0008 EF                MOV     A,R7
0009 F0                MOVX    @DPTR,A
                                           ; SOURCE LINE # 1745
000A 900000      E     MOV     DPTR,#g_mem+034H
000D E0                MOVX    A,@DPTR
000E FF                MOV     R7,A
000F EF                MOV     A,R7
0010 6009              JZ      ?C0395
0012 900000      E     MOV     DPTR,#g_mem+034H
0015 E0                MOVX    A,@DPTR
0016 FF                MOV     R7,A
0017 EF                MOV     A,R7
0018 B40318            CJNE    A,#03H,?C0394
001B         ?C0395:
                                           ; SOURCE LINE # 1746
001B 900000      E     MOV     DPTR,#g_meas
001E 120000      E     LCALL   ?C?LLDXDATA
0021 900000      E     MOV     DPTR,#g_refNew
0024 120000      E     LCALL   ?C?LSTXDATA
                                           ; SOURCE LINE # 1747
0027 900000      E     MOV     DPTR,#g_meas+04H
002A 120000      E     LCALL   ?C?LLDXDATA
002D 900000      E     MOV     DPTR,#g_refNew+04H
C51 COMPILER V9.51   COMMAND_PROCESSING                                                    02/09/2021 12:42:36 PAGE 217 

0030 120000      E     LCALL   ?C?LSTXDATA
                                           ; SOURCE LINE # 1748
0033         ?C0394:
                                           ; SOURCE LINE # 1751
0033 900000      E     MOV     DPTR,#g_refNew+018H
0036 E0                MOVX    A,@DPTR
0037 FF                MOV     R7,A
0038 120000      E     LCALL   _MOTOR_ON_OFF_Write
                                           ; SOURCE LINE # 1752
003B 22                RET     
             ; FUNCTION cmd_activate (END)

             ; FUNCTION cmd_get_activate (BEGIN)
                                           ; SOURCE LINE # 1754
                                           ; SOURCE LINE # 1759
0000 900000      R     MOV     DPTR,#packet_data
0003 7481              MOV     A,#081H
0005 F0                MOVX    @DPTR,A
                                           ; SOURCE LINE # 1762
0006 900000      E     MOV     DPTR,#g_ref+018H
0009 E0                MOVX    A,@DPTR
000A FF                MOV     R7,A
000B 900000      R     MOV     DPTR,#packet_data+01H
000E EF                MOV     A,R7
000F F0                MOVX    @DPTR,A
                                           ; SOURCE LINE # 1765
0010 7B01              MOV     R3,#01H
0012 7A00        R     MOV     R2,#HIGH packet_data
0014 7900        R     MOV     R1,#LOW packet_data
0016 7D02              MOV     R5,#02H
0018 120000      R     LCALL   _LCRChecksum
001B 900000      R     MOV     DPTR,#packet_data+02H
001E EF                MOV     A,R7
001F F0                MOVX    @DPTR,A
                                           ; SOURCE LINE # 1768
0020 7B01              MOV     R3,#01H
0022 7A00        R     MOV     R2,#HIGH packet_data
0024 7900        R     MOV     R1,#LOW packet_data
0026 7D03              MOV     R5,#03H
0028 7C00              MOV     R4,#00H
002A 120000      R     LCALL   _commWrite
                                           ; SOURCE LINE # 1770
002D 22                RET     
             ; FUNCTION cmd_get_activate (END)

             ; FUNCTION cmd_get_curr_and_meas (BEGIN)
                                           ; SOURCE LINE # 1772
                                           ; SOURCE LINE # 1781
0000 900000      R     MOV     DPTR,#packet_data
0003 7486              MOV     A,#086H
0005 F0                MOVX    @DPTR,A
                                           ; SOURCE LINE # 1784
0006 900000      E     MOV     DPTR,#g_measOld+0CH
0009 120000      E     LCALL   ?C?LLDXDATA
000C 900000      R     MOV     DPTR,#packet_data+01H
000F EE                MOV     A,R6
0010 F0                MOVX    @DPTR,A
0011 A3                INC     DPTR
0012 EF                MOV     A,R7
0013 F0                MOVX    @DPTR,A
                                           ; SOURCE LINE # 1785
0014 900000      E     MOV     DPTR,#g_measOld+010H
C51 COMPILER V9.51   COMMAND_PROCESSING                                                    02/09/2021 12:42:36 PAGE 218 

0017 120000      E     LCALL   ?C?LLDXDATA
001A 900000      R     MOV     DPTR,#packet_data+03H
001D EE                MOV     A,R6
001E F0                MOVX    @DPTR,A
001F A3                INC     DPTR
0020 EF                MOV     A,R7
0021 F0                MOVX    @DPTR,A
                                           ; SOURCE LINE # 1788
0022 750003      R     MOV     index,#03H
0025         ?C0398:
0025 AF00        R     MOV     R7,index
0027 1500        R     DEC     index
0029 EF                MOV     A,R7
002A 603C              JZ      ?C0399
                                           ; SOURCE LINE # 1789
002C AF00        R     MOV     R7,index
002E EF                MOV     A,R7
002F 25E0              ADD     A,ACC
0031 25E0              ADD     A,ACC
0033 2400        E     ADD     A,#LOW g_measOld
0035 F582              MOV     DPL,A
0037 E4                CLR     A
0038 3400        E     ADDC    A,#HIGH g_measOld
003A F583              MOV     DPH,A
003C 120000      E     LCALL   ?C?LLDXDATA
003F AB00        R     MOV     R3,index
0041 7400        E     MOV     A,#LOW g_mem+035H
0043 2B                ADD     A,R3
0044 F582              MOV     DPL,A
0046 E4                CLR     A
0047 3400        E     ADDC    A,#HIGH g_mem+035H
0049 F583              MOV     DPH,A
004B E0                MOVX    A,@DPTR
004C F9                MOV     R1,A
004D A801              MOV     R0,AR1
004F 120000      E     LCALL   ?C?SLSHR
0052 E500        R     MOV     A,index
0054 25E0              ADD     A,ACC
0056 FD                MOV     R5,A
0057 7400        R     MOV     A,#LOW packet_data+05H
0059 2D                ADD     A,R5
005A F582              MOV     DPL,A
005C E4                CLR     A
005D 3400        R     ADDC    A,#HIGH packet_data+05H
005F F583              MOV     DPH,A
0061 EE                MOV     A,R6
0062 F0                MOVX    @DPTR,A
0063 A3                INC     DPTR
0064 EF                MOV     A,R7
0065 F0                MOVX    @DPTR,A
0066 80BD              SJMP    ?C0398
0068         ?C0399:
                                           ; SOURCE LINE # 1793
0068 7B01              MOV     R3,#01H
006A 7A00        R     MOV     R2,#HIGH packet_data
006C 7900        R     MOV     R1,#LOW packet_data
006E 7D0B              MOV     R5,#0BH
0070 120000      R     LCALL   _LCRChecksum
0073 900000      R     MOV     DPTR,#packet_data+0BH
0076 EF                MOV     A,R7
0077 F0                MOVX    @DPTR,A
                                           ; SOURCE LINE # 1794
C51 COMPILER V9.51   COMMAND_PROCESSING                                                    02/09/2021 12:42:36 PAGE 219 

0078 7B01              MOV     R3,#01H
007A 7A00        R     MOV     R2,#HIGH packet_data
007C 7900        R     MOV     R1,#LOW packet_data
007E 7D0C              MOV     R5,#0CH
0080 7C00              MOV     R4,#00H
0082 120000      R     LCALL   _commWrite
                                           ; SOURCE LINE # 1796
0085 22                RET     
             ; FUNCTION cmd_get_curr_and_meas (END)

             ; FUNCTION cmd_get_currents (BEGIN)
                                           ; SOURCE LINE # 1798
                                           ; SOURCE LINE # 1806
0000 900000      R     MOV     DPTR,#packet_data
0003 7485              MOV     A,#085H
0005 F0                MOVX    @DPTR,A
                                           ; SOURCE LINE # 1808
0006 900000      E     MOV     DPTR,#g_measOld+0CH
0009 120000      E     LCALL   ?C?LLDXDATA
000C 900000      R     MOV     DPTR,#packet_data+01H
000F EE                MOV     A,R6
0010 F0                MOVX    @DPTR,A
0011 A3                INC     DPTR
0012 EF                MOV     A,R7
0013 F0                MOVX    @DPTR,A
                                           ; SOURCE LINE # 1809
0014 900000      E     MOV     DPTR,#g_measOld+010H
0017 120000      E     LCALL   ?C?LLDXDATA
001A 900000      R     MOV     DPTR,#packet_data+03H
001D EE                MOV     A,R6
001E F0                MOVX    @DPTR,A
001F A3                INC     DPTR
0020 EF                MOV     A,R7
0021 F0                MOVX    @DPTR,A
                                           ; SOURCE LINE # 1813
0022 7B01              MOV     R3,#01H
0024 7A00        R     MOV     R2,#HIGH packet_data
0026 7900        R     MOV     R1,#LOW packet_data
0028 7D05              MOV     R5,#05H
002A 120000      R     LCALL   _LCRChecksum
002D 900000      R     MOV     DPTR,#packet_data+05H
0030 EF                MOV     A,R7
0031 F0                MOVX    @DPTR,A
                                           ; SOURCE LINE # 1815
0032 7B01              MOV     R3,#01H
0034 7A00        R     MOV     R2,#HIGH packet_data
0036 7900        R     MOV     R1,#LOW packet_data
0038 7D06              MOV     R5,#06H
003A 7C00              MOV     R4,#00H
003C 120000      R     LCALL   _commWrite
                                           ; SOURCE LINE # 1816
003F 22                RET     
             ; FUNCTION cmd_get_currents (END)

             ; FUNCTION cmd_get_currents_for_cuff (BEGIN)
                                           ; SOURCE LINE # 1818
                                           ; SOURCE LINE # 1826
0000 900000      R     MOV     DPTR,#packet_data
0003 748E              MOV     A,#08EH
0005 F0                MOVX    @DPTR,A
                                           ; SOURCE LINE # 1828
0006 900000      E     MOV     DPTR,#g_measOld+010H
C51 COMPILER V9.51   COMMAND_PROCESSING                                                    02/09/2021 12:42:36 PAGE 220 

0009 120000      E     LCALL   ?C?LLDXDATA
000C 900000      R     MOV     DPTR,#packet_data+01H
000F EE                MOV     A,R6
0010 F0                MOVX    @DPTR,A
0011 A3                INC     DPTR
0012 EF                MOV     A,R7
0013 F0                MOVX    @DPTR,A
                                           ; SOURCE LINE # 1832
0014 7B01              MOV     R3,#01H
0016 7A00        R     MOV     R2,#HIGH packet_data
0018 7900        R     MOV     R1,#LOW packet_data
001A 7D03              MOV     R5,#03H
001C 120000      R     LCALL   _LCRChecksum
001F 900000      R     MOV     DPTR,#packet_data+03H
0022 EF                MOV     A,R7
0023 F0                MOVX    @DPTR,A
                                           ; SOURCE LINE # 1834
0024 7B01              MOV     R3,#01H
0026 7A00        R     MOV     R2,#HIGH packet_data
0028 7900        R     MOV     R1,#LOW packet_data
002A 7D04              MOV     R5,#04H
002C 7C00              MOV     R4,#00H
002E 120000      R     LCALL   _commWrite_to_cuff
                                           ; SOURCE LINE # 1835
0031 22                RET     
             ; FUNCTION cmd_get_currents_for_cuff (END)

             ; FUNCTION cmd_set_baudrate (BEGIN)
                                           ; SOURCE LINE # 1837
                                           ; SOURCE LINE # 1840
0000 900000      E     MOV     DPTR,#g_rx+01H
0003 E0                MOVX    A,@DPTR
0004 FF                MOV     R7,A
0005 900000      E     MOV     DPTR,#c_mem+094H
0008 EF                MOV     A,R7
0009 F0                MOVX    @DPTR,A
                                           ; SOURCE LINE # 1842
000A 900000      E     MOV     DPTR,#g_rx+01H
000D E0                MOVX    A,@DPTR
000E FF                MOV     R7,A
000F EF                MOV     A,R7
0010 120000      E     LCALL   ?C?CCASE
0013 0000        R     DW      ?C0404
0015 0D                DB      0DH
0016 0000              DW      00H
0018 0000        R     DW      ?C0405
                                           ; SOURCE LINE # 1843
001A         ?C0404:
                                           ; SOURCE LINE # 1844
001A 7D01              MOV     R5,#01H
001C 7F0C              MOV     R7,#0CH
001E 7E00              MOV     R6,#00H
0020 120000      E     LCALL   _CLOCK_UART_SetDividerRegister
                                           ; SOURCE LINE # 1845
0023 22                RET     
                                           ; SOURCE LINE # 1846
0024         ?C0405:
                                           ; SOURCE LINE # 1847
0024 7D01              MOV     R5,#01H
0026 7F02              MOV     R7,#02H
0028 7E00              MOV     R6,#00H
002A 120000      E     LCALL   _CLOCK_UART_SetDividerRegister
C51 COMPILER V9.51   COMMAND_PROCESSING                                                    02/09/2021 12:42:36 PAGE 221 

                                           ; SOURCE LINE # 1848
                                           ; SOURCE LINE # 1849
002D         ?C0406:
002D 22                RET     
             ; FUNCTION cmd_set_baudrate (END)

             ; FUNCTION cmd_ping (BEGIN)
                                           ; SOURCE LINE # 1851
                                           ; SOURCE LINE # 1856
0000 900000      R     MOV     DPTR,#packet_data
0003 E4                CLR     A
0004 F0                MOVX    @DPTR,A
                                           ; SOURCE LINE # 1859
0005 900000      R     MOV     DPTR,#packet_data+01H
0008 E4                CLR     A
0009 F0                MOVX    @DPTR,A
                                           ; SOURCE LINE # 1862
000A 7B01              MOV     R3,#01H
000C 7A00        R     MOV     R2,#HIGH packet_data
000E 7900        R     MOV     R1,#LOW packet_data
0010 7D02              MOV     R5,#02H
0012 7C00              MOV     R4,#00H
0014 120000      R     LCALL   _commWrite
                                           ; SOURCE LINE # 1863
0017 22                RET     
             ; FUNCTION cmd_ping (END)

             ; FUNCTION cmd_set_watchdog (BEGIN)
                                           ; SOURCE LINE # 1865
                                           ; SOURCE LINE # 1867
0000 900000      E     MOV     DPTR,#g_rx+01H
0003 E0                MOVX    A,@DPTR
0004 FF                MOV     R7,A
0005 EF                MOV     A,R7
0006 D3                SETB    C
0007 9400              SUBB    A,#00H
0009 500B              JNC     ?C0408
                                           ; SOURCE LINE # 1869
000B 7F01              MOV     R7,#01H
000D 120000      E     LCALL   _WATCHDOG_ENABLER_Write
                                           ; SOURCE LINE # 1870
0010 900000      E     MOV     DPTR,#g_mem+095H
0013 E4                CLR     A
0014 F0                MOVX    @DPTR,A
                                           ; SOURCE LINE # 1871
0015 22                RET     
0016         ?C0408:
                                           ; SOURCE LINE # 1872
                                           ; SOURCE LINE # 1874
0016 900000      E     MOV     DPTR,#g_rx+01H
0019 E0                MOVX    A,@DPTR
001A FF                MOV     R7,A
001B EF                MOV     A,R7
001C D3                SETB    C
001D 94FA              SUBB    A,#0FAH
001F 4006              JC      ?C0410
                                           ; SOURCE LINE # 1875
0021 900000      E     MOV     DPTR,#g_rx+01H
0024 74FA              MOV     A,#0FAH
0026 F0                MOVX    @DPTR,A
0027         ?C0410:
                                           ; SOURCE LINE # 1880
C51 COMPILER V9.51   COMMAND_PROCESSING                                                    02/09/2021 12:42:36 PAGE 222 

0027 900000      E     MOV     DPTR,#g_rx+01H
002A E0                MOVX    A,@DPTR
002B FF                MOV     R7,A
002C 7E00              MOV     R6,#00H
002E 7C01              MOV     R4,#01H
0030 7DF4              MOV     R5,#0F4H
0032 120000      E     LCALL   ?C?LIMUL
0035 780A              MOV     R0,#0AH
0037 120000      E     LCALL   ?C?ULSHR
003A 900000      E     MOV     DPTR,#g_mem+095H
003D EF                MOV     A,R7
003E F0                MOVX    @DPTR,A
                                           ; SOURCE LINE # 1881
003F 900000      E     MOV     DPTR,#g_mem+095H
0042 E0                MOVX    A,@DPTR
0043 FF                MOV     R7,A
0044 120000      E     LCALL   _WATCHDOG_COUNTER_WritePeriod
                                           ; SOURCE LINE # 1882
0047 7F00              MOV     R7,#00H
0049 120000      E     LCALL   _WATCHDOG_ENABLER_Write
                                           ; SOURCE LINE # 1883
                                           ; SOURCE LINE # 1884
004C         ?C0411:
004C 22                RET     
             ; FUNCTION cmd_set_watchdog (END)

             ; FUNCTION cmd_get_inputs (BEGIN)
                                           ; SOURCE LINE # 1886
                                           ; SOURCE LINE # 1894
0000 900000      R     MOV     DPTR,#packet_data
0003 7483              MOV     A,#083H
0005 F0                MOVX    @DPTR,A
                                           ; SOURCE LINE # 1896
0006 900000      E     MOV     DPTR,#g_refOld
0009 120000      E     LCALL   ?C?LLDXDATA
000C 900000      E     MOV     DPTR,#g_mem+035H
000F E0                MOVX    A,@DPTR
0010 F9                MOV     R1,A
0011 A801              MOV     R0,AR1
0013 120000      E     LCALL   ?C?SLSHR
0016 900000      R     MOV     DPTR,#packet_data+01H
0019 EE                MOV     A,R6
001A F0                MOVX    @DPTR,A
001B A3                INC     DPTR
001C EF                MOV     A,R7
001D F0                MOVX    @DPTR,A
                                           ; SOURCE LINE # 1897
001E 900000      E     MOV     DPTR,#g_refOld+04H
0021 120000      E     LCALL   ?C?LLDXDATA
0024 900000      E     MOV     DPTR,#g_mem+036H
0027 E0                MOVX    A,@DPTR
0028 F9                MOV     R1,A
0029 A801              MOV     R0,AR1
002B 120000      E     LCALL   ?C?SLSHR
002E 900000      R     MOV     DPTR,#packet_data+03H
0031 EE                MOV     A,R6
0032 F0                MOVX    @DPTR,A
0033 A3                INC     DPTR
0034 EF                MOV     A,R7
0035 F0                MOVX    @DPTR,A
                                           ; SOURCE LINE # 1901
0036 7B01              MOV     R3,#01H
C51 COMPILER V9.51   COMMAND_PROCESSING                                                    02/09/2021 12:42:36 PAGE 223 

0038 7A00        R     MOV     R2,#HIGH packet_data
003A 7900        R     MOV     R1,#LOW packet_data
003C 7D05              MOV     R5,#05H
003E 120000      R     LCALL   _LCRChecksum
0041 900000      R     MOV     DPTR,#packet_data+05H
0044 EF                MOV     A,R7
0045 F0                MOVX    @DPTR,A
                                           ; SOURCE LINE # 1903
0046 7B01              MOV     R3,#01H
0048 7A00        R     MOV     R2,#HIGH packet_data
004A 7900        R     MOV     R1,#LOW packet_data
004C 7D06              MOV     R5,#06H
004E 7C00              MOV     R4,#00H
0050 120000      R     LCALL   _commWrite
                                           ; SOURCE LINE # 1904
0053 22                RET     
             ; FUNCTION cmd_get_inputs (END)

             ; FUNCTION cmd_store_params (BEGIN)
                                           ; SOURCE LINE # 1906
                                           ; SOURCE LINE # 1911
0000 750002      R     MOV     packet_lenght,#02H
                                           ; SOURCE LINE # 1915
0003 900000      E     MOV     DPTR,#c_mem+033H
0006 E0                MOVX    A,@DPTR
0007 FF                MOV     R7,A
0008 EF                MOV     A,R7
0009 6003              JZ      $ + 5H
000B 020000      R     LJMP    ?C0413
                                           ; SOURCE LINE # 1916
000E 900000      E     MOV     DPTR,#c_mem+038H
0011 120000      E     LCALL   ?C?LLDXDATA
0014 900000      R     MOV     DPTR,#off_1
0017 120000      E     LCALL   ?C?LSTXDATA
                                           ; SOURCE LINE # 1917
001A 900000      E     MOV     DPTR,#c_mem+03CH
001D 120000      E     LCALL   ?C?LLDXDATA
0020 900000      R     MOV     DPTR,#off_2
0023 120000      E     LCALL   ?C?LSTXDATA
                                           ; SOURCE LINE # 1918
0026 900000      E     MOV     DPTR,#c_mem+044H
0029 120000      E     LCALL   ?C?LLDXDATA
002C 900000      R     MOV     DPTR,#mult_1
002F 120000      E     LCALL   ?C?LSTXDATA
                                           ; SOURCE LINE # 1919
0032 900000      E     MOV     DPTR,#c_mem+048H
0035 120000      E     LCALL   ?C?LLDXDATA
0038 900000      R     MOV     DPTR,#mult_2
003B 120000      E     LCALL   ?C?LSTXDATA
                                           ; SOURCE LINE # 1921
003E 900000      E     MOV     DPTR,#g_refNew
0041 120000      E     LCALL   ?C?LLDXDATA
0044 EC                MOV     A,R4
0045 120000      E     LCALL   ?C?FCASTL
0048 900000      R     MOV     DPTR,#mult_1
004B 120000      E     LCALL   ?C?LLDXDATA0
004E 120000      E     LCALL   ?C?FPDIV
0051 120000      E     LCALL   ?C?CASTF
0054 900000      E     MOV     DPTR,#g_refNew
0057 120000      E     LCALL   ?C?LSTXDATA
                                           ; SOURCE LINE # 1922
005A 900000      E     MOV     DPTR,#g_refNew+04H
C51 COMPILER V9.51   COMMAND_PROCESSING                                                    02/09/2021 12:42:36 PAGE 224 

005D 120000      E     LCALL   ?C?LLDXDATA
0060 EC                MOV     A,R4
0061 120000      E     LCALL   ?C?FCASTL
0064 900000      R     MOV     DPTR,#mult_2
0067 120000      E     LCALL   ?C?LLDXDATA0
006A 120000      E     LCALL   ?C?FPDIV
006D 120000      E     LCALL   ?C?CASTF
0070 900000      E     MOV     DPTR,#g_refNew+04H
0073 120000      E     LCALL   ?C?LSTXDATA
                                           ; SOURCE LINE # 1924
0076 900000      E     MOV     DPTR,#g_refNew
0079 120000      E     LCALL   ?C?LLDXDATA
007C EC                MOV     A,R4
007D 120000      E     LCALL   ?C?FCASTL
0080 900000      E     MOV     DPTR,#g_mem+044H
0083 120000      E     LCALL   ?C?LLDXDATA0
0086 120000      E     LCALL   ?C?FPMUL
0089 120000      E     LCALL   ?C?CASTF
008C 900000      E     MOV     DPTR,#g_refNew
008F 120000      E     LCALL   ?C?LSTXDATA
                                           ; SOURCE LINE # 1925
0092 900000      E     MOV     DPTR,#g_refNew+04H
0095 120000      E     LCALL   ?C?LLDXDATA
0098 EC                MOV     A,R4
0099 120000      E     LCALL   ?C?FCASTL
009C 900000      E     MOV     DPTR,#g_mem+048H
009F 120000      E     LCALL   ?C?LLDXDATA0
00A2 120000      E     LCALL   ?C?FPMUL
00A5 120000      E     LCALL   ?C?CASTF
00A8 900000      E     MOV     DPTR,#g_refNew+04H
00AB 120000      E     LCALL   ?C?LSTXDATA
                                           ; SOURCE LINE # 1927
00AE 900000      E     MOV     DPTR,#g_refNew
00B1 120000      E     LCALL   ?C?LLDXDATA
00B4 C004              PUSH    AR4
00B6 C005              PUSH    AR5
00B8 C006              PUSH    AR6
00BA C007              PUSH    AR7
00BC 900000      R     MOV     DPTR,#off_1
00BF 120000      E     LCALL   ?C?LLDXDATA
00C2 AB07              MOV     R3,AR7
00C4 AA06              MOV     R2,AR6
00C6 A905              MOV     R1,AR5
00C8 A804              MOV     R0,AR4
00CA A804              MOV     R0,AR4
00CC A905              MOV     R1,AR5
00CE AA06              MOV     R2,AR6
00D0 AB07              MOV     R3,AR7
00D2 900000      E     MOV     DPTR,#g_mem+038H
00D5 120000      E     LCALL   ?C?LLDXDATA
00D8 120000      E     LCALL   ?C?LSUB
00DB A804              MOV     R0,AR4
00DD A905              MOV     R1,AR5
00DF AA06              MOV     R2,AR6
00E1 AB07              MOV     R3,AR7
00E3 D007              POP     AR7
00E5 D006              POP     AR6
00E7 D005              POP     AR5
00E9 D004              POP     AR4
00EB 120000      E     LCALL   ?C?LADD
00EE 900000      E     MOV     DPTR,#g_refNew
00F1 120000      E     LCALL   ?C?LSTXDATA
C51 COMPILER V9.51   COMMAND_PROCESSING                                                    02/09/2021 12:42:36 PAGE 225 

                                           ; SOURCE LINE # 1928
00F4 900000      E     MOV     DPTR,#g_refNew+04H
00F7 120000      E     LCALL   ?C?LLDXDATA
00FA C004              PUSH    AR4
00FC C005              PUSH    AR5
00FE C006              PUSH    AR6
0100 C007              PUSH    AR7
0102 900000      R     MOV     DPTR,#off_2
0105 120000      E     LCALL   ?C?LLDXDATA
0108 AB07              MOV     R3,AR7
010A AA06              MOV     R2,AR6
010C A905              MOV     R1,AR5
010E A804              MOV     R0,AR4
0110 A804              MOV     R0,AR4
0112 A905              MOV     R1,AR5
0114 AA06              MOV     R2,AR6
0116 AB07              MOV     R3,AR7
0118 900000      E     MOV     DPTR,#g_mem+03CH
011B 120000      E     LCALL   ?C?LLDXDATA
011E 120000      E     LCALL   ?C?LSUB
0121 A804              MOV     R0,AR4
0123 A905              MOV     R1,AR5
0125 AA06              MOV     R2,AR6
0127 AB07              MOV     R3,AR7
0129 D007              POP     AR7
012B D006              POP     AR6
012D D005              POP     AR5
012F D004              POP     AR4
0131 120000      E     LCALL   ?C?LADD
0134 900000      E     MOV     DPTR,#g_refNew+04H
0137 120000      E     LCALL   ?C?LSTXDATA
                                           ; SOURCE LINE # 1932
013A 900000      E     MOV     DPTR,#c_mem+050H
013D E0                MOVX    A,@DPTR
013E FF                MOV     R7,A
013F EF                MOV     A,R7
0140 6078              JZ      ?C0413
                                           ; SOURCE LINE # 1933
0142 900000      E     MOV     DPTR,#c_mem+051H
0145 120000      E     LCALL   ?C?LLDXDATA
0148 900000      E     MOV     DPTR,#g_refNew
014B 120000      E     LCALL   ?C?LLDXDATA0
014E C3                CLR     C
014F 120000      E     LCALL   ?C?SLCMP
0152 500C              JNC     ?C0415
                                           ; SOURCE LINE # 1934
0154 900000      E     MOV     DPTR,#c_mem+051H
0157 120000      E     LCALL   ?C?LLDXDATA
015A 900000      E     MOV     DPTR,#g_refNew
015D 120000      E     LCALL   ?C?LSTXDATA
0160         ?C0415:
                                           ; SOURCE LINE # 1935
0160 900000      E     MOV     DPTR,#c_mem+055H
0163 120000      E     LCALL   ?C?LLDXDATA
0166 900000      E     MOV     DPTR,#g_refNew+04H
0169 120000      E     LCALL   ?C?LLDXDATA0
016C C3                CLR     C
016D 120000      E     LCALL   ?C?SLCMP
0170 500C              JNC     ?C0416
                                           ; SOURCE LINE # 1936
0172 900000      E     MOV     DPTR,#c_mem+055H
0175 120000      E     LCALL   ?C?LLDXDATA
C51 COMPILER V9.51   COMMAND_PROCESSING                                                    02/09/2021 12:42:36 PAGE 226 

0178 900000      E     MOV     DPTR,#g_refNew+04H
017B 120000      E     LCALL   ?C?LSTXDATA
017E         ?C0416:
                                           ; SOURCE LINE # 1938
017E 900000      E     MOV     DPTR,#c_mem+059H
0181 120000      E     LCALL   ?C?LLDXDATA
0184 900000      E     MOV     DPTR,#g_refNew
0187 120000      E     LCALL   ?C?LLDXDATA0
018A D3                SETB    C
018B 120000      E     LCALL   ?C?SLCMP
018E 400C              JC      ?C0417
                                           ; SOURCE LINE # 1939
0190 900000      E     MOV     DPTR,#c_mem+059H
0193 120000      E     LCALL   ?C?LLDXDATA
0196 900000      E     MOV     DPTR,#g_refNew
0199 120000      E     LCALL   ?C?LSTXDATA
019C         ?C0417:
                                           ; SOURCE LINE # 1940
019C 900000      E     MOV     DPTR,#c_mem+05DH
019F 120000      E     LCALL   ?C?LLDXDATA
01A2 900000      E     MOV     DPTR,#g_refNew+04H
01A5 120000      E     LCALL   ?C?LLDXDATA0
01A8 D3                SETB    C
01A9 120000      E     LCALL   ?C?SLCMP
01AC 400C              JC      ?C0413
                                           ; SOURCE LINE # 1941
01AE 900000      E     MOV     DPTR,#c_mem+05DH
01B1 120000      E     LCALL   ?C?LLDXDATA
01B4 900000      E     MOV     DPTR,#g_refNew+04H
01B7 120000      E     LCALL   ?C?LSTXDATA
                                           ; SOURCE LINE # 1942
                                           ; SOURCE LINE # 1943
01BA         ?C0413:
                                           ; SOURCE LINE # 1946
01BA 900000      E     MOV     DPTR,#g_mem+01H
01BD E0                MOVX    A,@DPTR
01BE FF                MOV     R7,A
01BF 900000      E     MOV     DPTR,#c_mem+01H
01C2 E0                MOVX    A,@DPTR
01C3 FE                MOV     R6,A
01C4 EE                MOV     A,R6
01C5 6F                XRL     A,R7
01C6 6049              JZ      ?C0419
                                           ; SOURCE LINE # 1947
01C8 900000      E     MOV     DPTR,#c_mem+01H
01CB E0                MOVX    A,@DPTR
01CC FF                MOV     R7,A
01CD 8F00        R     MOV     old_id,R7
                                           ; SOURCE LINE # 1948
01CF 7F00              MOV     R7,#00H
01D1 7E00              MOV     R6,#00H
01D3 120000      R     LCALL   _memStore
01D6 EF                MOV     A,R7
01D7 601C              JZ      ?C0420
                                           ; SOURCE LINE # 1949
01D9 750001      R     MOV     packet_data,#01H
                                           ; SOURCE LINE # 1950
01DC 750001      R     MOV     packet_data+01H,#01H
                                           ; SOURCE LINE # 1951
01DF 7B00              MOV     R3,#00H
01E1 7A00        R     MOV     R2,#HIGH packet_data
01E3 7900        R     MOV     R1,#LOW packet_data
C51 COMPILER V9.51   COMMAND_PROCESSING                                                    02/09/2021 12:42:36 PAGE 227 

01E5 AF00        R     MOV     R7,packet_lenght
01E7 EF                MOV     A,R7
01E8 FD                MOV     R5,A
01E9 7C00              MOV     R4,#00H
01EB 900000      R     MOV     DPTR,#?_commWrite_old_id?BYTE+05H
01EE E500        R     MOV     A,old_id
01F0 F0                MOVX    @DPTR,A
01F1 120000      R     LCALL   _commWrite_old_id
                                           ; SOURCE LINE # 1952
01F4 22                RET     
01F5         ?C0420:
                                           ; SOURCE LINE # 1953
                                           ; SOURCE LINE # 1954
01F5 750000      R     MOV     packet_data,#00H
                                           ; SOURCE LINE # 1955
01F8 750000      R     MOV     packet_data+01H,#00H
                                           ; SOURCE LINE # 1956
01FB 7B00              MOV     R3,#00H
01FD 7A00        R     MOV     R2,#HIGH packet_data
01FF 7900        R     MOV     R1,#LOW packet_data
0201 AF00        R     MOV     R7,packet_lenght
0203 EF                MOV     A,R7
0204 FD                MOV     R5,A
0205 7C00              MOV     R4,#00H
0207 900000      R     MOV     DPTR,#?_commWrite_old_id?BYTE+05H
020A E500        R     MOV     A,old_id
020C F0                MOVX    @DPTR,A
020D 120000      R     LCALL   _commWrite_old_id
                                           ; SOURCE LINE # 1957
                                           ; SOURCE LINE # 1958
0210 22                RET     
0211         ?C0419:
                                           ; SOURCE LINE # 1959
                                           ; SOURCE LINE # 1960
0211 7F00              MOV     R7,#00H
0213 7E00              MOV     R6,#00H
0215 120000      R     LCALL   _memStore
0218 EF                MOV     A,R7
0219 6006              JZ      ?C0423
                                           ; SOURCE LINE # 1961
021B 7F01              MOV     R7,#01H
021D 120000      R     LCALL   _sendAcknowledgment
0220 22                RET     
0221         ?C0423:
                                           ; SOURCE LINE # 1963
0221 7F00              MOV     R7,#00H
0223 120000      R     LCALL   _sendAcknowledgment
                                           ; SOURCE LINE # 1964
                                           ; SOURCE LINE # 1965
0226         ?C0425:
0226 22                RET     
             ; FUNCTION cmd_store_params (END)

             ; FUNCTION cmd_get_emg (BEGIN)
                                           ; SOURCE LINE # 1967
                                           ; SOURCE LINE # 1972
0000 900000      R     MOV     DPTR,#packet_data
0003 7488              MOV     A,#088H
0005 F0                MOVX    @DPTR,A
                                           ; SOURCE LINE # 1974
0006 900000      E     MOV     DPTR,#g_measOld+017H
0009 120000      E     LCALL   ?C?LLDXDATA
C51 COMPILER V9.51   COMMAND_PROCESSING                                                    02/09/2021 12:42:36 PAGE 228 

000C 900000      R     MOV     DPTR,#packet_data+01H
000F EE                MOV     A,R6
0010 F0                MOVX    @DPTR,A
0011 A3                INC     DPTR
0012 EF                MOV     A,R7
0013 F0                MOVX    @DPTR,A
                                           ; SOURCE LINE # 1975
0014 900000      E     MOV     DPTR,#g_measOld+01BH
0017 120000      E     LCALL   ?C?LLDXDATA
001A 900000      R     MOV     DPTR,#packet_data+03H
001D EE                MOV     A,R6
001E F0                MOVX    @DPTR,A
001F A3                INC     DPTR
0020 EF                MOV     A,R7
0021 F0                MOVX    @DPTR,A
                                           ; SOURCE LINE # 1977
0022 7B01              MOV     R3,#01H
0024 7A00        R     MOV     R2,#HIGH packet_data
0026 7900        R     MOV     R1,#LOW packet_data
0028 7D05              MOV     R5,#05H
002A 120000      R     LCALL   _LCRChecksum
002D 900000      R     MOV     DPTR,#packet_data+05H
0030 EF                MOV     A,R7
0031 F0                MOVX    @DPTR,A
                                           ; SOURCE LINE # 1979
0032 7B01              MOV     R3,#01H
0034 7A00        R     MOV     R2,#HIGH packet_data
0036 7900        R     MOV     R1,#LOW packet_data
0038 7D06              MOV     R5,#06H
003A 7C00              MOV     R4,#00H
003C 120000      R     LCALL   _commWrite
                                           ; SOURCE LINE # 1981
003F 22                RET     
             ; FUNCTION cmd_get_emg (END)



MODULE INFORMATION:   STATIC OVERLAYABLE
   CODE SIZE        =  20234    ----
   CONSTANT SIZE    =   6200    ----
   XDATA SIZE       =      2    6191
   PDATA SIZE       =   ----    ----
   DATA SIZE        =   ----      41
   IDATA SIZE       =   ----    ----
   BIT SIZE         =   ----    ----
   EDATA SIZE       =   ----    ----
   HDATA SIZE       =   ----    ----
   XDATA CONST SIZE =   ----    ----
   FAR CONST SIZE   =   ----    ----
END OF MODULE INFORMATION.


C51 COMPILATION COMPLETE.  0 WARNING(S),  0 ERROR(S)
