C51 COMPILER V9.51   UTILS                                                                 02/27/2019 11:22:32 PAGE 1   


C51 COMPILER V9.51, COMPILATION OF MODULE UTILS
OBJECT MODULE PLACED IN .\DP8051_Keil_951\Release\utils.obj
COMPILER INVOKED BY: C:\Program Files (x86)\Cypress\PSoC Creator\4.2\PSoC Creator\import\keil\pk51\9.51\C51\BIN\c51.exe 
                    -utils.c NOIV LARGE MODDP2 OMF2 VB(1) NOIP INCDIR(.,Generated_Source\PSoC3) FF(3) DB DF(NDEBUG) WL(2) PR(.\DP8051_Keil_95
                    -1\Release/utils.lst) CD OT(8,SPEED) OJ(.\DP8051_Keil_951\Release\utils.obj)

line level    source

*** MESSAGE C286 IN LINE 0 OF (null): license limits optimization to level 5
   1          // ----------------------------------------------------------------------------
   2          // BSD 3-Clause License
   3          
   4          // Copyright (c) 2016, qbrobotics
   5          // Copyright (c) 2017, Centro "E.Piaggio"
   6          // All rights reserved.
   7          
   8          // Redistribution and use in source and binary forms, with or without
   9          // modification, are permitted provided that the following conditions are met:
  10          
  11          // * Redistributions of source code must retain the above copyright notice, this
  12          //   list of conditions and the following disclaimer.
  13          
  14          // * Redistributions in binary form must reproduce the above copyright notice,
  15          //   this list of conditions and the following disclaimer in the documentation
  16          //   and/or other materials provided with the distribution.
  17          
  18          // * Neither the name of the copyright holder nor the names of its
  19          //   contributors may be used to endorse or promote products derived from
  20          //   this software without specific prior written permission.
  21          
  22          // THIS SOFTWARE IS PROVIDED BY THE COPYRIGHT HOLDERS AND CONTRIBUTORS "AS IS"
  23          // AND ANY EXPRESS OR IMPLIED WARRANTIES, INCLUDING, BUT NOT LIMITED TO, THE
  24          // IMPLIED WARRANTIES OF MERCHANTABILITY AND FITNESS FOR A PARTICULAR PURPOSE ARE
  25          // DISCLAIMED. IN NO EVENT SHALL THE COPYRIGHT HOLDER OR CONTRIBUTORS BE LIABLE
  26          // FOR ANY DIRECT, INDIRECT, INCIDENTAL, SPECIAL, EXEMPLARY, OR CONSEQUENTIAL
  27          // DAMAGES (INCLUDING, BUT NOT LIMITED TO, PROCUREMENT OF SUBSTITUTE GOODS OR
  28          // SERVICES; LOSS OF USE, DATA, OR PROFITS; OR BUSINESS INTERRUPTION) HOWEVER
  29          // CAUSED AND ON ANY THEORY OF LIABILITY, WHETHER IN CONTRACT, STRICT LIABILITY,
  30          // OR TORT (INCLUDING NEGLIGENCE OR OTHERWISE) ARISING IN ANY WAY OUT OF THE USE
  31          // OF THIS SOFTWARE, EVEN IF ADVISED OF THE POSSIBILITY OF SUCH DAMAGE.
  32          // POSSIBILITY OF SUCH DAMAGE.
  33          // ----------------------------------------------------------------------------
  34          
  35          /**
  36          * \file         utils.c
  37          *
  38          * \brief        Definition of utility functions.
  39          * \date         October 01, 2017
  40          * \author       _Centro "E.Piaggio"_
  41          * \copyright    (C) 2012-2016 qbrobotics. All rights reserved.
  42          * \copyright    (C) 2017 Centro "E.Piaggio". All rights reserved.
  43          */
  44          
  45          #include <utils.h>
  46          #include <math.h>
  47          
  48          //==============================================================================
  49          //                                                            Current Estimation
  50          //==============================================================================
  51          
  52          int32 curr_estim ( int32 pos, int32 vel, int32 ref ) {
C51 COMPILER V9.51   UTILS                                                                 02/27/2019 11:22:32 PAGE 2   

  53   1      
  54   1              static int32 virtual_pos_friction;      //Virtual position used to estimate friction.
  55   1              static int32 err_pos_dt;                        //Temporal evolution of error position.
  56   1                                                                                              //Needed to model the current transients due to reference steps.
  57   1              int32 curr_estimate;
  58   1      
  59   1              if (pos < ZERO_TOL) 
  60   1                              virtual_pos_friction = pos;
  61   1              else {
  62   2                              if ((pos - virtual_pos_friction) > ZMAX) 
  63   2                                      virtual_pos_friction =  pos - ZMAX;
  64   2                      else { 
  65   3                                      if ((pos - virtual_pos_friction) < -ZMAX) 
  66   3                                              virtual_pos_friction =  pos + ZMAX;
  67   3                              }
  68   2                      }        
  69   1             
  70   1              curr_estimate = pos * g_mem.curr_lookup[0] * (1 + pos * g_mem.curr_lookup[1]) + (pos - virtual_pos
             -_friction) * (g_mem.curr_lookup[2] / ZMAX) + vel * g_mem.curr_lookup[3] * (1 + abs(vel) * g_mem.curr_lookup[4]) + (ref -
             - err_pos_dt) * g_mem.curr_lookup[5];
  71   1              
  72   1              if (curr_estimate > c_mem.current_limit) 
  73   1                  curr_estimate = c_mem.current_limit;
  74   1              else {
  75   2                              if (curr_estimate < -c_mem.current_limit)
  76   2                      curr_estimate = -c_mem.current_limit;
  77   2                      }
  78   1      
  79   1              err_pos_dt = (REFSPEED * ref + (1024 - REFSPEED) * err_pos_dt) / 1024;         
  80   1              
  81   1              return curr_estimate;        
  82   1      }
  83          
  84          //==============================================================================
  85          //                                                   Voltage and current filters
  86          //==============================================================================
  87          
  88          int32 filter_v(int32 new_value) {
  89   1      
  90   1          static int32 old_value, aux;
  91   1      
  92   1          aux = (old_value * (1024 - ALPHA) + (new_value << 6) * (ALPHA)) /1024;
  93   1      
  94   1          old_value = aux;
  95   1      
  96   1          return (aux /64);
  97   1      }
  98          
  99          int32 filter_i1(int32 new_value) {
 100   1      
 101   1          static int32 old_value, aux;
 102   1      
 103   1          aux = (old_value * (1024 - ALPHA) + (new_value << 6) * (ALPHA)) /1024;
 104   1      
 105   1          old_value = aux;
 106   1      
 107   1          return (aux /64);
 108   1      }
 109          
 110          //==============================================================================
 111          //                                                              First Emg Filter
 112          //==============================================================================
C51 COMPILER V9.51   UTILS                                                                 02/27/2019 11:22:32 PAGE 3   

 113          
 114          int32 filter_ch1(int32 new_value) {
 115   1      
 116   1         static int32 old_value, aux;    
 117   1           
 118   1          if (new_value < 0)
 119   1              new_value = 0;
 120   1      
 121   1          aux = (old_value * (1024 - BETA) + (new_value << 6) * (BETA)) /1024;
 122   1      
 123   1          old_value = aux;
 124   1      
 125   1          return (aux /64);
 126   1      }
 127          
 128          //==============================================================================
 129          //                                                             Second Emg Filter
 130          //==============================================================================
 131          
 132          int32 filter_ch2(int32 new_value) {
 133   1      
 134   1          static int32 old_value, aux;
 135   1          
 136   1          if (new_value < 0)
 137   1              new_value = 0;
 138   1      
 139   1          aux = (old_value * (1024 - BETA) + (new_value << 6) * (BETA)) /1024;
 140   1      
 141   1          old_value = aux;
 142   1      
 143   1          return (aux /64);
 144   1      }
 145          
 146          //==============================================================================
 147          //                                                              Velocity filters
 148          //==============================================================================
 149          
 150          int32 filter_vel_1(int32 new_value) {
 151   1      
 152   1         static int32 old_value, aux;
 153   1      
 154   1          aux = (old_value * (1024 - GAMMA) + (new_value << 6) * (GAMMA)) /1024;
 155   1      
 156   1          old_value = aux;
 157   1      
 158   1          return (aux /64);
 159   1      }
 160          
 161          int32 filter_vel_2(int32 new_value) {
 162   1      
 163   1          static int32 old_value, aux;
 164   1      
 165   1          aux = (old_value * (1024 - GAMMA) + (new_value << 6) * (GAMMA)) /1024;
 166   1      
 167   1          old_value = aux;
 168   1      
 169   1          return (aux /64);
 170   1      }
 171          
 172          int32 filter_vel_3(int32 new_value) {
 173   1      
 174   1          static int32 old_value, aux;
C51 COMPILER V9.51   UTILS                                                                 02/27/2019 11:22:32 PAGE 4   

 175   1      
 176   1          aux = (old_value * (1024 - GAMMA) + (new_value << 6) * (GAMMA)) /1024;
 177   1      
 178   1          old_value = aux;
 179   1      
 180   1          return (aux /64);
 181   1      }
 182          
 183          //==============================================================================
 184          //                                                          Acceleration filters
 185          //==============================================================================
 186          
 187          int32 filter_acc_1(int32 new_value) {
 188   1      
 189   1          static int32 old_value, aux;
 190   1      
 191   1          aux = (old_value * (1024 - DELTA) + (new_value << 6) * (DELTA)) /1024;
 192   1      
 193   1          old_value = aux;
 194   1      
 195   1          return (aux /64);
 196   1      }
 197          
 198          int32 filter_acc_2(int32 new_value) {
 199   1      
 200   1          static int32 old_value, aux;
 201   1      
 202   1          aux = (old_value * (1024 - DELTA) + (new_value << 6) * (DELTA)) /1024;
 203   1      
 204   1          old_value = aux;
 205   1      
 206   1          return (aux /64);
 207   1      }
 208          
 209          int32 filter_acc_3(int32 new_value) {
 210   1      
 211   1          static int32 old_value, aux;
 212   1      
 213   1          aux = (old_value * (1024 - DELTA) + (new_value << 6) * (DELTA)) /1024;
 214   1      
 215   1          old_value = aux;
 216   1      
 217   1          return (aux /64);
 218   1      }
 219          
 220          //==============================================================================
 221          //                                                     Current difference filter
 222          //==============================================================================
 223          
 224          int32 filter_curr_diff(int32 new_value) {
 225   1      
 226   1          static int32 old_value, aux;
 227   1      
 228   1       //   if (new_value < 100) new_value = 0;
 229   1       //   else new_value = new_value - 100;
 230   1          
 231   1          aux = (old_value * (1024 - ETA) + (new_value << 6) * (ETA)) /1024;
 232   1      
 233   1          old_value = aux;
 234   1      
 235   1          return (aux /64);
 236   1      
C51 COMPILER V9.51   UTILS                                                                 02/27/2019 11:22:32 PAGE 5   

 237   1      }
 238          
 239          //==============================================================================
 240          //                                                       Voltage readings filter
 241          //==============================================================================
 242          
 243          int32 filter_voltage(int32 new_value) {
 244   1      
 245   1          static int32 old_value = 12000;
 246   1          static int32 aux;
 247   1      
 248   1          aux = (old_value * (1024 - EPSILON) + (new_value << 6) * (EPSILON)) /1024;
 249   1      
 250   1          old_value = aux;
 251   1      
 252   1          return (aux /64);
 253   1      }
 254          
 255          //==============================================================================
 256          //                                                                CHECK ENC DATA
 257          //==============================================================================
 258          
 259          // Returns 1 if the encoder data is correct, 0 otherwise
 260          
 261          CYBIT check_enc_data(const uint32 *value) {
 262   1      
 263   1          const uint8* CYIDATA p = (const uint8*)value;
 264   1          uint8 CYDATA a = *p;
 265   1      
 266   1          a = a ^ *(++p);
 267   1          a = a ^ *(++p);
 268   1          a = a ^ *(++p);
 269   1          a = (a & 0x0F) ^ (a>>4);
 270   1      
 271   1          return (0x9669 >> a) & 0x01;
 272   1          //0x9669 is a bit vector representing the !(bitwise XOR) of 4bits
 273   1      }
 274          
 275          //==============================================================================
 276          //                                                                ROUND_FUNCTION
 277          //==============================================================================
 278          
 279          int my_round(const double x) {
 280   1      
 281   1          if (x < 0.0)
 282   1              return (int)(x - 0.5);
 283   1          else
 284   1              return (int)(x + 0.5);
 285   1      }
 286          
 287          //==============================================================================
 288          //                                                                        MODULE
 289          //==============================================================================
 290          
 291          uint32 my_mod(int32 val, int32 divisor) {
 292   1      
 293   1          if (val >= 0) {
 294   2              return (int32)(val % divisor);
 295   2          } else {
 296   2              return (int32)(divisor - (-val % divisor));
 297   2          }
 298   1      }
C51 COMPILER V9.51   UTILS                                                                 02/27/2019 11:22:32 PAGE 6   

 299          
 300          
 301          //==============================================================================
 302          //                                                                     CALIBRATE
 303          //==============================================================================
 304          
 305          void calibration(void) {
 306   1          static uint8 direction;                 //0 closing, 1 opening.
 307   1          static uint16 closure_counter;          //Range [0 - 2^16].
 308   1      
 309   1      
 310   1          // closing
 311   1          if (direction == 0) {
 312   2              g_refNew.pos[0] += (calib.speed << g_mem.res[0]);
 313   2              if ((g_refNew.pos[0]) > g_mem.pos_lim_sup[0]) {
 314   3                  direction = 1;
 315   3              }
 316   2          } else { //opening
 317   2              g_refNew.pos[0] -= (calib.speed << g_mem.res[0]);
 318   2              if (SIGN(g_refNew.pos[0]) != 1) {
 319   3                  direction = 0;
 320   3                  closure_counter++;
 321   3                  if (closure_counter == calib.repetitions) {
 322   4                      closure_counter = 0;
 323   4                      calib.enabled = FALSE;
 324   4                  }
 325   3              }
 326   2          }
 327   1      }
 328          
 329          
 330          //==============================================================================
 331          //                                                      DOUBLE ENCODER CALC TURN
 332          //==============================================================================
 333          
 334          // Use this matlab function to calculate I1 and I2
 335          //
 336          // function [inv_a, inv_b] = mod_mul_inv(a, b)
 337          //     a = int32(a);
 338          //     b = int32(b);
 339          //     if b == 0
 340          //         inv_a = 1;
 341          //         inv_b = 0;
 342          //         return
 343          //     else
 344          //         q = idivide(a,b,'floor');
 345          //         r = mod(a,b);
 346          //         [s, t] = mod_mul_inv(b, r);
 347          //     end
 348          //     inv_a = t;
 349          //     inv_b = s - q * t;
 350          // return
 351          
 352          // Number of teeth of the two wheels
 353          #define N1 15//28           ///< Teeth of the first encoder wheel.
 354          #define N2 14//27           ///< Teeth of the second encoder wheel.
 355          
 356          #define I1 1            ///< First wheel invariant value.
 357          #define I2 (-1)         ///< Second wheel invariant value.
 358          
 359          // Number of ticks per turn
 360          #define M 65536          ///< Number of encoder ticks per turn.
C51 COMPILER V9.51   UTILS                                                                 02/27/2019 11:22:32 PAGE 7   

 361          
 362          
 363          int calc_turns_fcn(const int32 pos1, const int32 pos2) {
 364   1          
 365   1          int32 x = (my_mod( - N2*pos2 - N1*pos1, M*N2) + M/2) / M;
 366   1      
 367   1          int32 aux = my_mod(x*I1, N2);
 368   1          
 369   1          return (my_mod(aux + N2/2, N2) - N2/2);
 370   1      }
 371          
 372          
 373          //==============================================================================
 374          //                                                              REST POSITION
 375          //==============================================================================
 376          
 377          void check_rest_position(void) {     // 100 Hz frequency.
 378   1          
 379   1          static uint32 count = 0;        // Range [0 - 2^31].
 380   1          static uint8 flag_count = 1;
 381   1          static uint8 first_time = 1;
 382   1          static float m = 0;
 383   1          static int32 abs_err_thr = 0;
 384   1          static int32 delta_inc = 0;
 385   1          int32 curr_pos = 0;
 386   1          static int32 rest_error;
 387   1          float rest_vel_ticks_ms = ((float)g_mem.rest_vel)/1000.0;    //[ticks/s] -> [ticks/ms]
 388   1          
 389   1          if (first_time){
 390   2              count = 0;
 391   2              first_time = 0;
 392   2          }
 393   1          
 394   1          curr_pos = (int32)(g_meas.pos[0] >> g_mem.res[0]);
 395   1          
 396   1          if ( ( (c_mem.input_mode >= 2 && g_meas.emg[0] < 200 && g_meas.emg[1] < 200) ) && curr_pos < 10000){
 397   2              if (flag_count == 1){
 398   3                  count = count + 1;
 399   3              }
 400   2          }
 401   1          else {
 402   2              count = 0;
 403   2              rest_enabled = 0;
 404   2              flag_count = 1;
 405   2          }
 406   1          
 407   1          /********** Velocity closure procedure *************
 408   1          * m = error/time
 409   1          * m = (g_mem.rest_pos - init_pos)/time
 410   1          * time = g_mem.rest_pos/g_mem.rest_vel (g_mem.rest_vel in ticks/msec)
 411   1          ***************************************************/
 412   1          
 413   1          if (count == (uint32)(g_mem.rest_delay/CALIBRATION_DIV)){  
 414   2              // This routine is executed every 10 firmware cycles -> g_mem.rest_delay must be major than 10 ms
 415   2              rest_enabled = 1;
 416   2              rest_pos_curr_ref = g_meas.pos[0];
 417   2              
 418   2              // Ramp angular coefficient
 419   2              m = ((float)(g_mem.rest_pos - g_meas.pos[0])/((float)g_mem.rest_pos))*(rest_vel_ticks_ms);
 420   2              
 421   2              // Stop condition threshold is related to m coefficient by g_mem.rest_ratio value
 422   2              abs_err_thr = (int32)( (int32)(((float)REST_POS_ERR_THR_GAIN)*m*((float)CALIBRATION_DIV)) << g_mem
C51 COMPILER V9.51   UTILS                                                                 02/27/2019 11:22:32 PAGE 8   

             -.res[0]);
 423   2              abs_err_thr = (abs_err_thr>0)?abs_err_thr:(0-abs_err_thr);
 424   2              
 425   2              rest_error = g_mem.rest_pos - g_meas.pos[0];    
 426   2              
 427   2              delta_inc = (int32)( ((int32)(m*(float)CALIBRATION_DIV)) << g_mem.res[0] );
 428   2              delta_inc = (delta_inc>0)?delta_inc:(0-delta_inc);
 429   2              
 430   2              count = 0;
 431   2              flag_count = 0;
 432   2          }
 433   1          
 434   1          if (rest_enabled){
 435   2      
 436   2              if (rest_error < abs_err_thr && rest_error > -abs_err_thr){
 437   3                  // Stop condition
 438   3                  rest_pos_curr_ref = g_mem.rest_pos;
 439   3                  
 440   3                  if (c_mem.input_mode >= 2)   // EMG input mode
 441   3                      forced_open = 1; 
 442   3                  
 443   3                  count = 0;
 444   3              }
 445   2              else {
 446   3                  rest_error = g_mem.rest_pos - g_meas.pos[0];        
 447   3      
 448   3                  if (rest_error > 0){
 449   4                      rest_pos_curr_ref = rest_pos_curr_ref + delta_inc;
 450   4                  }
 451   3                  if (rest_error < 0){
 452   4                      rest_pos_curr_ref = rest_pos_curr_ref - delta_inc;
 453   4                  }
 454   3              } 
 455   2          }
 456   1          
 457   1          // Position limit saturation
 458   1          if (c_mem.pos_lim_flag) {
 459   2              if (rest_pos_curr_ref < c_mem.pos_lim_inf[0]) 
 460   2                  rest_pos_curr_ref = c_mem.pos_lim_inf[0];
 461   2              if (rest_pos_curr_ref > c_mem.pos_lim_sup[0]) 
 462   2                  rest_pos_curr_ref = c_mem.pos_lim_sup[0];
 463   2          }
 464   1      
 465   1      }
 466          
 467          //==============================================================================
 468          //                                                              RESET COUNTERS
 469          //==============================================================================
 470          void reset_counters() {
 471   1          uint8 i;
 472   1          
 473   1          //Initialize counters        
 474   1          g_mem.emg_counter[0] = g_mem.emg_counter[1] = 0;
 475   1          for(i = 0; i< 10; i++){
 476   2              g_mem.position_hist[i] = 0;
 477   2          }
 478   1          for(i = 0; i< 4; i++){
 479   2              g_mem.current_hist[i] = 0;
 480   2          }
 481   1          g_mem.rest_counter = 0;
 482   1          g_mem.wire_disp = 0;
 483   1          g_mem.total_time_on = 0;
C51 COMPILER V9.51   UTILS                                                                 02/27/2019 11:22:32 PAGE 9   

 484   1          g_mem.total_time_rest = 0; 
 485   1      }
 486          
 487          /* [] END OF FILE */
C51 COMPILER V9.51   UTILS                                                                 02/27/2019 11:22:32 PAGE 10  

ASSEMBLY LISTING OF GENERATED OBJECT CODE


             ; FUNCTION _curr_estim (BEGIN)
                                           ; SOURCE LINE # 52
0000 900000      R     MOV     DPTR,#pos
0003 120000      E     LCALL   ?C?LSTXDATA
                                           ; SOURCE LINE # 59
0006 E4                CLR     A
0007 7F64              MOV     R7,#064H
0009 FE                MOV     R6,A
000A FD                MOV     R5,A
000B FC                MOV     R4,A
000C 900000      R     MOV     DPTR,#pos
000F E0                MOVX    A,@DPTR
0010 F8                MOV     R0,A
0011 A3                INC     DPTR
0012 E0                MOVX    A,@DPTR
0013 F9                MOV     R1,A
0014 A3                INC     DPTR
0015 E0                MOVX    A,@DPTR
0016 FA                MOV     R2,A
0017 A3                INC     DPTR
0018 E0                MOVX    A,@DPTR
0019 FB                MOV     R3,A
001A C3                CLR     C
001B 120000      E     LCALL   ?C?SLCMP
001E 5017              JNC     ?C0001
                                           ; SOURCE LINE # 60
0020 900000      R     MOV     DPTR,#pos
0023 E0                MOVX    A,@DPTR
0024 FC                MOV     R4,A
0025 A3                INC     DPTR
0026 E0                MOVX    A,@DPTR
0027 FD                MOV     R5,A
0028 A3                INC     DPTR
0029 E0                MOVX    A,@DPTR
002A FE                MOV     R6,A
002B A3                INC     DPTR
002C E0                MOVX    A,@DPTR
002D FF                MOV     R7,A
002E 900000      R     MOV     DPTR,#virtual_pos_friction
0031 120000      E     LCALL   ?C?LSTXDATA
0034 020000      R     LJMP    ?C0002
0037         ?C0001:
                                           ; SOURCE LINE # 61
                                           ; SOURCE LINE # 62
0037 900000      R     MOV     DPTR,#virtual_pos_friction
003A E0                MOVX    A,@DPTR
003B F8                MOV     R0,A
003C A3                INC     DPTR
003D E0                MOVX    A,@DPTR
003E F9                MOV     R1,A
003F A3                INC     DPTR
0040 E0                MOVX    A,@DPTR
0041 FA                MOV     R2,A
0042 A3                INC     DPTR
0043 E0                MOVX    A,@DPTR
0044 FB                MOV     R3,A
0045 900000      R     MOV     DPTR,#pos
0048 E0                MOVX    A,@DPTR
0049 FC                MOV     R4,A
C51 COMPILER V9.51   UTILS                                                                 02/27/2019 11:22:32 PAGE 11  

004A A3                INC     DPTR
004B E0                MOVX    A,@DPTR
004C FD                MOV     R5,A
004D A3                INC     DPTR
004E E0                MOVX    A,@DPTR
004F FE                MOV     R6,A
0050 A3                INC     DPTR
0051 E0                MOVX    A,@DPTR
0052 C3                CLR     C
0053 9B                SUBB    A,R3
0054 FF                MOV     R7,A
0055 EE                MOV     A,R6
0056 9A                SUBB    A,R2
0057 FE                MOV     R6,A
0058 ED                MOV     A,R5
0059 99                SUBB    A,R1
005A FD                MOV     R5,A
005B EC                MOV     A,R4
005C 98                SUBB    A,R0
005D FC                MOV     R4,A
005E E4                CLR     A
005F 7B05              MOV     R3,#05H
0061 FA                MOV     R2,A
0062 F9                MOV     R1,A
0063 F8                MOV     R0,A
0064 C3                CLR     C
0065 120000      E     LCALL   ?C?SLCMP
0068 5024              JNC     ?C0003
                                           ; SOURCE LINE # 63
006A 900000      R     MOV     DPTR,#pos
006D E0                MOVX    A,@DPTR
006E FC                MOV     R4,A
006F A3                INC     DPTR
0070 E0                MOVX    A,@DPTR
0071 FD                MOV     R5,A
0072 A3                INC     DPTR
0073 E0                MOVX    A,@DPTR
0074 FE                MOV     R6,A
0075 A3                INC     DPTR
0076 E0                MOVX    A,@DPTR
0077 24FB              ADD     A,#0FBH
0079 FF                MOV     R7,A
007A EE                MOV     A,R6
007B 34FF              ADDC    A,#0FFH
007D FE                MOV     R6,A
007E ED                MOV     A,R5
007F 34FF              ADDC    A,#0FFH
0081 FD                MOV     R5,A
0082 EC                MOV     A,R4
0083 34FF              ADDC    A,#0FFH
0085 FC                MOV     R4,A
0086 900000      R     MOV     DPTR,#virtual_pos_friction
0089 120000      E     LCALL   ?C?LSTXDATA
008C 8053              SJMP    ?C0002
008E         ?C0003:
                                           ; SOURCE LINE # 64
                                           ; SOURCE LINE # 65
008E 900000      R     MOV     DPTR,#virtual_pos_friction
0091 E0                MOVX    A,@DPTR
0092 F8                MOV     R0,A
0093 A3                INC     DPTR
0094 E0                MOVX    A,@DPTR
C51 COMPILER V9.51   UTILS                                                                 02/27/2019 11:22:32 PAGE 12  

0095 F9                MOV     R1,A
0096 A3                INC     DPTR
0097 E0                MOVX    A,@DPTR
0098 FA                MOV     R2,A
0099 A3                INC     DPTR
009A E0                MOVX    A,@DPTR
009B FB                MOV     R3,A
009C 900000      R     MOV     DPTR,#pos
009F E0                MOVX    A,@DPTR
00A0 FC                MOV     R4,A
00A1 A3                INC     DPTR
00A2 E0                MOVX    A,@DPTR
00A3 FD                MOV     R5,A
00A4 A3                INC     DPTR
00A5 E0                MOVX    A,@DPTR
00A6 FE                MOV     R6,A
00A7 A3                INC     DPTR
00A8 E0                MOVX    A,@DPTR
00A9 C3                CLR     C
00AA 9B                SUBB    A,R3
00AB FF                MOV     R7,A
00AC EE                MOV     A,R6
00AD 9A                SUBB    A,R2
00AE FE                MOV     R6,A
00AF ED                MOV     A,R5
00B0 99                SUBB    A,R1
00B1 FD                MOV     R5,A
00B2 EC                MOV     A,R4
00B3 98                SUBB    A,R0
00B4 FC                MOV     R4,A
00B5 74FF              MOV     A,#0FFH
00B7 7BFB              MOV     R3,#0FBH
00B9 FA                MOV     R2,A
00BA F9                MOV     R1,A
00BB F8                MOV     R0,A
00BC D3                SETB    C
00BD 120000      E     LCALL   ?C?SLCMP
00C0 401F              JC      ?C0002
                                           ; SOURCE LINE # 66
00C2 900000      R     MOV     DPTR,#pos
00C5 E0                MOVX    A,@DPTR
00C6 FC                MOV     R4,A
00C7 A3                INC     DPTR
00C8 E0                MOVX    A,@DPTR
00C9 FD                MOV     R5,A
00CA A3                INC     DPTR
00CB E0                MOVX    A,@DPTR
00CC FE                MOV     R6,A
00CD A3                INC     DPTR
00CE E0                MOVX    A,@DPTR
00CF 2405              ADD     A,#05H
00D1 FF                MOV     R7,A
00D2 E4                CLR     A
00D3 3E                ADDC    A,R6
00D4 FE                MOV     R6,A
00D5 E4                CLR     A
00D6 3D                ADDC    A,R5
00D7 FD                MOV     R5,A
00D8 E4                CLR     A
00D9 3C                ADDC    A,R4
00DA FC                MOV     R4,A
00DB 900000      R     MOV     DPTR,#virtual_pos_friction
C51 COMPILER V9.51   UTILS                                                                 02/27/2019 11:22:32 PAGE 13  

00DE 120000      E     LCALL   ?C?LSTXDATA
                                           ; SOURCE LINE # 67
                                           ; SOURCE LINE # 68
00E1         ?C0002:
                                           ; SOURCE LINE # 70
00E1 900000      R     MOV     DPTR,#vel
00E4 E0                MOVX    A,@DPTR
00E5 A3                INC     DPTR
00E6 E0                MOVX    A,@DPTR
00E7 A3                INC     DPTR
00E8 E0                MOVX    A,@DPTR
00E9 FE                MOV     R6,A
00EA A3                INC     DPTR
00EB E0                MOVX    A,@DPTR
00EC FF                MOV     R7,A
00ED 120000      E     LCALL   _abs
00F0 AC06              MOV     R4,AR6
00F2 AD07              MOV     R5,AR7
00F4 EC                MOV     A,R4
00F5 120000      E     LCALL   ?C?FCASTI
00F8 900000      E     MOV     DPTR,#g_mem+08CH
00FB E0                MOVX    A,@DPTR
00FC F8                MOV     R0,A
00FD A3                INC     DPTR
00FE E0                MOVX    A,@DPTR
00FF F9                MOV     R1,A
0100 A3                INC     DPTR
0101 E0                MOVX    A,@DPTR
0102 FA                MOV     R2,A
0103 A3                INC     DPTR
0104 E0                MOVX    A,@DPTR
0105 FB                MOV     R3,A
0106 120000      E     LCALL   ?C?FPMUL
0109 E4                CLR     A
010A FB                MOV     R3,A
010B FA                MOV     R2,A
010C 7980              MOV     R1,#080H
010E 783F              MOV     R0,#03FH
0110 120000      E     LCALL   ?C?FPADD
0113 C004              PUSH    AR4
0115 C005              PUSH    AR5
0117 C006              PUSH    AR6
0119 C007              PUSH    AR7
011B 900000      R     MOV     DPTR,#vel
011E E0                MOVX    A,@DPTR
011F FC                MOV     R4,A
0120 A3                INC     DPTR
0121 E0                MOVX    A,@DPTR
0122 FD                MOV     R5,A
0123 A3                INC     DPTR
0124 E0                MOVX    A,@DPTR
0125 FE                MOV     R6,A
0126 A3                INC     DPTR
0127 E0                MOVX    A,@DPTR
0128 FF                MOV     R7,A
0129 EC                MOV     A,R4
012A 120000      E     LCALL   ?C?FCASTL
012D 900000      E     MOV     DPTR,#g_mem+088H
0130 E0                MOVX    A,@DPTR
0131 F8                MOV     R0,A
0132 A3                INC     DPTR
0133 E0                MOVX    A,@DPTR
C51 COMPILER V9.51   UTILS                                                                 02/27/2019 11:22:32 PAGE 14  

0134 F9                MOV     R1,A
0135 A3                INC     DPTR
0136 E0                MOVX    A,@DPTR
0137 FA                MOV     R2,A
0138 A3                INC     DPTR
0139 E0                MOVX    A,@DPTR
013A FB                MOV     R3,A
013B 120000      E     LCALL   ?C?FPMUL
013E D003              POP     AR3
0140 D002              POP     AR2
0142 D001              POP     AR1
0144 D000              POP     AR0
0146 120000      E     LCALL   ?C?FPMUL
0149 C004              PUSH    AR4
014B C005              PUSH    AR5
014D C006              PUSH    AR6
014F C007              PUSH    AR7
0151 900000      R     MOV     DPTR,#pos
0154 E0                MOVX    A,@DPTR
0155 FC                MOV     R4,A
0156 A3                INC     DPTR
0157 E0                MOVX    A,@DPTR
0158 FD                MOV     R5,A
0159 A3                INC     DPTR
015A E0                MOVX    A,@DPTR
015B FE                MOV     R6,A
015C A3                INC     DPTR
015D E0                MOVX    A,@DPTR
015E FF                MOV     R7,A
015F EC                MOV     A,R4
0160 120000      E     LCALL   ?C?FCASTL
0163 900000      E     MOV     DPTR,#g_mem+080H
0166 E0                MOVX    A,@DPTR
0167 F8                MOV     R0,A
0168 A3                INC     DPTR
0169 E0                MOVX    A,@DPTR
016A F9                MOV     R1,A
016B A3                INC     DPTR
016C E0                MOVX    A,@DPTR
016D FA                MOV     R2,A
016E A3                INC     DPTR
016F E0                MOVX    A,@DPTR
0170 FB                MOV     R3,A
0171 120000      E     LCALL   ?C?FPMUL
0174 E4                CLR     A
0175 FB                MOV     R3,A
0176 FA                MOV     R2,A
0177 7980              MOV     R1,#080H
0179 783F              MOV     R0,#03FH
017B 120000      E     LCALL   ?C?FPADD
017E C004              PUSH    AR4
0180 C005              PUSH    AR5
0182 C006              PUSH    AR6
0184 C007              PUSH    AR7
0186 900000      R     MOV     DPTR,#pos
0189 E0                MOVX    A,@DPTR
018A FC                MOV     R4,A
018B A3                INC     DPTR
018C E0                MOVX    A,@DPTR
018D FD                MOV     R5,A
018E A3                INC     DPTR
018F E0                MOVX    A,@DPTR
C51 COMPILER V9.51   UTILS                                                                 02/27/2019 11:22:32 PAGE 15  

0190 FE                MOV     R6,A
0191 A3                INC     DPTR
0192 E0                MOVX    A,@DPTR
0193 FF                MOV     R7,A
0194 EC                MOV     A,R4
0195 120000      E     LCALL   ?C?FCASTL
0198 900000      E     MOV     DPTR,#g_mem+07CH
019B E0                MOVX    A,@DPTR
019C F8                MOV     R0,A
019D A3                INC     DPTR
019E E0                MOVX    A,@DPTR
019F F9                MOV     R1,A
01A0 A3                INC     DPTR
01A1 E0                MOVX    A,@DPTR
01A2 FA                MOV     R2,A
01A3 A3                INC     DPTR
01A4 E0                MOVX    A,@DPTR
01A5 FB                MOV     R3,A
01A6 120000      E     LCALL   ?C?FPMUL
01A9 D003              POP     AR3
01AB D002              POP     AR2
01AD D001              POP     AR1
01AF D000              POP     AR0
01B1 120000      E     LCALL   ?C?FPMUL
01B4 C004              PUSH    AR4
01B6 C005              PUSH    AR5
01B8 C006              PUSH    AR6
01BA C007              PUSH    AR7
01BC 900000      R     MOV     DPTR,#virtual_pos_friction
01BF E0                MOVX    A,@DPTR
01C0 F8                MOV     R0,A
01C1 A3                INC     DPTR
01C2 E0                MOVX    A,@DPTR
01C3 F9                MOV     R1,A
01C4 A3                INC     DPTR
01C5 E0                MOVX    A,@DPTR
01C6 FA                MOV     R2,A
01C7 A3                INC     DPTR
01C8 E0                MOVX    A,@DPTR
01C9 FB                MOV     R3,A
01CA 900000      R     MOV     DPTR,#pos
01CD E0                MOVX    A,@DPTR
01CE FC                MOV     R4,A
01CF A3                INC     DPTR
01D0 E0                MOVX    A,@DPTR
01D1 FD                MOV     R5,A
01D2 A3                INC     DPTR
01D3 E0                MOVX    A,@DPTR
01D4 FE                MOV     R6,A
01D5 A3                INC     DPTR
01D6 E0                MOVX    A,@DPTR
01D7 C3                CLR     C
01D8 9B                SUBB    A,R3
01D9 FF                MOV     R7,A
01DA EE                MOV     A,R6
01DB 9A                SUBB    A,R2
01DC FE                MOV     R6,A
01DD ED                MOV     A,R5
01DE 99                SUBB    A,R1
01DF FD                MOV     R5,A
01E0 EC                MOV     A,R4
01E1 98                SUBB    A,R0
C51 COMPILER V9.51   UTILS                                                                 02/27/2019 11:22:32 PAGE 16  

01E2 FC                MOV     R4,A
01E3 120000      E     LCALL   ?C?FCASTL
01E6 C004              PUSH    AR4
01E8 C005              PUSH    AR5
01EA C006              PUSH    AR6
01EC C007              PUSH    AR7
01EE E4                CLR     A
01EF FB                MOV     R3,A
01F0 FA                MOV     R2,A
01F1 79A0              MOV     R1,#0A0H
01F3 7840              MOV     R0,#040H
01F5 900000      E     MOV     DPTR,#g_mem+084H
01F8 E0                MOVX    A,@DPTR
01F9 FC                MOV     R4,A
01FA A3                INC     DPTR
01FB E0                MOVX    A,@DPTR
01FC FD                MOV     R5,A
01FD A3                INC     DPTR
01FE E0                MOVX    A,@DPTR
01FF FE                MOV     R6,A
0200 A3                INC     DPTR
0201 E0                MOVX    A,@DPTR
0202 FF                MOV     R7,A
0203 120000      E     LCALL   ?C?FPDIV
0206 D003              POP     AR3
0208 D002              POP     AR2
020A D001              POP     AR1
020C D000              POP     AR0
020E 120000      E     LCALL   ?C?FPMUL
0211 D003              POP     AR3
0213 D002              POP     AR2
0215 D001              POP     AR1
0217 D000              POP     AR0
0219 120000      E     LCALL   ?C?FPADD
021C D003              POP     AR3
021E D002              POP     AR2
0220 D001              POP     AR1
0222 D000              POP     AR0
0224 120000      E     LCALL   ?C?FPADD
0227 C004              PUSH    AR4
0229 C005              PUSH    AR5
022B C006              PUSH    AR6
022D C007              PUSH    AR7
022F 900000      R     MOV     DPTR,#err_pos_dt
0232 E0                MOVX    A,@DPTR
0233 F8                MOV     R0,A
0234 A3                INC     DPTR
0235 E0                MOVX    A,@DPTR
0236 F9                MOV     R1,A
0237 A3                INC     DPTR
0238 E0                MOVX    A,@DPTR
0239 FA                MOV     R2,A
023A A3                INC     DPTR
023B E0                MOVX    A,@DPTR
023C FB                MOV     R3,A
023D 900000      R     MOV     DPTR,#ref
0240 E0                MOVX    A,@DPTR
0241 FC                MOV     R4,A
0242 A3                INC     DPTR
0243 E0                MOVX    A,@DPTR
0244 FD                MOV     R5,A
0245 A3                INC     DPTR
C51 COMPILER V9.51   UTILS                                                                 02/27/2019 11:22:32 PAGE 17  

0246 E0                MOVX    A,@DPTR
0247 FE                MOV     R6,A
0248 A3                INC     DPTR
0249 E0                MOVX    A,@DPTR
024A C3                CLR     C
024B 9B                SUBB    A,R3
024C FF                MOV     R7,A
024D EE                MOV     A,R6
024E 9A                SUBB    A,R2
024F FE                MOV     R6,A
0250 ED                MOV     A,R5
0251 99                SUBB    A,R1
0252 FD                MOV     R5,A
0253 EC                MOV     A,R4
0254 98                SUBB    A,R0
0255 FC                MOV     R4,A
0256 120000      E     LCALL   ?C?FCASTL
0259 900000      E     MOV     DPTR,#g_mem+090H
025C E0                MOVX    A,@DPTR
025D F8                MOV     R0,A
025E A3                INC     DPTR
025F E0                MOVX    A,@DPTR
0260 F9                MOV     R1,A
0261 A3                INC     DPTR
0262 E0                MOVX    A,@DPTR
0263 FA                MOV     R2,A
0264 A3                INC     DPTR
0265 E0                MOVX    A,@DPTR
0266 FB                MOV     R3,A
0267 120000      E     LCALL   ?C?FPMUL
026A D003              POP     AR3
026C D002              POP     AR2
026E D001              POP     AR1
0270 D000              POP     AR0
0272 120000      E     LCALL   ?C?FPADD
0275 120000      E     LCALL   ?C?CASTF
0278 900000      R     MOV     DPTR,#curr_estimate
027B 120000      E     LCALL   ?C?LSTXDATA
                                           ; SOURCE LINE # 72
027E 900000      E     MOV     DPTR,#c_mem+069H
0281 E0                MOVX    A,@DPTR
0282 FE                MOV     R6,A
0283 A3                INC     DPTR
0284 E0                MOVX    A,@DPTR
0285 FF                MOV     R7,A
0286 EE                MOV     A,R6
0287 33                RLC     A
0288 95E0              SUBB    A,ACC
028A FD                MOV     R5,A
028B FC                MOV     R4,A
028C 900000      R     MOV     DPTR,#curr_estimate
028F E0                MOVX    A,@DPTR
0290 F8                MOV     R0,A
0291 A3                INC     DPTR
0292 E0                MOVX    A,@DPTR
0293 F9                MOV     R1,A
0294 A3                INC     DPTR
0295 E0                MOVX    A,@DPTR
0296 FA                MOV     R2,A
0297 A3                INC     DPTR
0298 E0                MOVX    A,@DPTR
0299 FB                MOV     R3,A
C51 COMPILER V9.51   UTILS                                                                 02/27/2019 11:22:32 PAGE 18  

029A D3                SETB    C
029B 120000      E     LCALL   ?C?SLCMP
029E 4016              JC      ?C0006
                                           ; SOURCE LINE # 73
02A0 900000      E     MOV     DPTR,#c_mem+069H
02A3 E0                MOVX    A,@DPTR
02A4 FE                MOV     R6,A
02A5 A3                INC     DPTR
02A6 E0                MOVX    A,@DPTR
02A7 FF                MOV     R7,A
02A8 EE                MOV     A,R6
02A9 33                RLC     A
02AA 95E0              SUBB    A,ACC
02AC FD                MOV     R5,A
02AD FC                MOV     R4,A
02AE 900000      R     MOV     DPTR,#curr_estimate
02B1 120000      E     LCALL   ?C?LSTXDATA
02B4 8042              SJMP    ?C0007
02B6         ?C0006:
                                           ; SOURCE LINE # 74
                                           ; SOURCE LINE # 75
02B6 900000      E     MOV     DPTR,#c_mem+069H
02B9 E0                MOVX    A,@DPTR
02BA FE                MOV     R6,A
02BB A3                INC     DPTR
02BC E0                MOVX    A,@DPTR
02BD FF                MOV     R7,A
02BE C3                CLR     C
02BF E4                CLR     A
02C0 9F                SUBB    A,R7
02C1 FF                MOV     R7,A
02C2 E4                CLR     A
02C3 9E                SUBB    A,R6
02C4 FE                MOV     R6,A
02C5 33                RLC     A
02C6 95E0              SUBB    A,ACC
02C8 FD                MOV     R5,A
02C9 FC                MOV     R4,A
02CA 900000      R     MOV     DPTR,#curr_estimate
02CD E0                MOVX    A,@DPTR
02CE F8                MOV     R0,A
02CF A3                INC     DPTR
02D0 E0                MOVX    A,@DPTR
02D1 F9                MOV     R1,A
02D2 A3                INC     DPTR
02D3 E0                MOVX    A,@DPTR
02D4 FA                MOV     R2,A
02D5 A3                INC     DPTR
02D6 E0                MOVX    A,@DPTR
02D7 FB                MOV     R3,A
02D8 C3                CLR     C
02D9 120000      E     LCALL   ?C?SLCMP
02DC 501A              JNC     ?C0007
                                           ; SOURCE LINE # 76
02DE 900000      E     MOV     DPTR,#c_mem+069H
02E1 E0                MOVX    A,@DPTR
02E2 FE                MOV     R6,A
02E3 A3                INC     DPTR
02E4 E0                MOVX    A,@DPTR
02E5 FF                MOV     R7,A
02E6 C3                CLR     C
02E7 E4                CLR     A
C51 COMPILER V9.51   UTILS                                                                 02/27/2019 11:22:32 PAGE 19  

02E8 9F                SUBB    A,R7
02E9 FF                MOV     R7,A
02EA E4                CLR     A
02EB 9E                SUBB    A,R6
02EC FE                MOV     R6,A
02ED 33                RLC     A
02EE 95E0              SUBB    A,ACC
02F0 FD                MOV     R5,A
02F1 FC                MOV     R4,A
02F2 900000      R     MOV     DPTR,#curr_estimate
02F5 120000      E     LCALL   ?C?LSTXDATA
                                           ; SOURCE LINE # 77
02F8         ?C0007:
                                           ; SOURCE LINE # 79
02F8 E4                CLR     A
02F9 7FEC              MOV     R7,#0ECH
02FB 7E03              MOV     R6,#03H
02FD FD                MOV     R5,A
02FE FC                MOV     R4,A
02FF 900000      R     MOV     DPTR,#err_pos_dt
0302 E0                MOVX    A,@DPTR
0303 F8                MOV     R0,A
0304 A3                INC     DPTR
0305 E0                MOVX    A,@DPTR
0306 F9                MOV     R1,A
0307 A3                INC     DPTR
0308 E0                MOVX    A,@DPTR
0309 FA                MOV     R2,A
030A A3                INC     DPTR
030B E0                MOVX    A,@DPTR
030C FB                MOV     R3,A
030D 120000      E     LCALL   ?C?LMUL
0310 C004              PUSH    AR4
0312 C005              PUSH    AR5
0314 C006              PUSH    AR6
0316 C007              PUSH    AR7
0318 E4                CLR     A
0319 7F14              MOV     R7,#014H
031B FE                MOV     R6,A
031C FD                MOV     R5,A
031D FC                MOV     R4,A
031E 900000      R     MOV     DPTR,#ref
0321 E0                MOVX    A,@DPTR
0322 F8                MOV     R0,A
0323 A3                INC     DPTR
0324 E0                MOVX    A,@DPTR
0325 F9                MOV     R1,A
0326 A3                INC     DPTR
0327 E0                MOVX    A,@DPTR
0328 FA                MOV     R2,A
0329 A3                INC     DPTR
032A E0                MOVX    A,@DPTR
032B FB                MOV     R3,A
032C 120000      E     LCALL   ?C?LMUL
032F D003              POP     AR3
0331 D002              POP     AR2
0333 D001              POP     AR1
0335 D000              POP     AR0
0337 EF                MOV     A,R7
0338 2B                ADD     A,R3
0339 FF                MOV     R7,A
033A EE                MOV     A,R6
C51 COMPILER V9.51   UTILS                                                                 02/27/2019 11:22:32 PAGE 20  

033B 3A                ADDC    A,R2
033C FE                MOV     R6,A
033D ED                MOV     A,R5
033E 39                ADDC    A,R1
033F FD                MOV     R5,A
0340 EC                MOV     A,R4
0341 38                ADDC    A,R0
0342 FC                MOV     R4,A
0343 E4                CLR     A
0344 FB                MOV     R3,A
0345 7A04              MOV     R2,#04H
0347 F9                MOV     R1,A
0348 F8                MOV     R0,A
0349 120000      E     LCALL   ?C?SLDIV
034C 900000      R     MOV     DPTR,#err_pos_dt
034F 120000      E     LCALL   ?C?LSTXDATA
                                           ; SOURCE LINE # 81
0352 900000      R     MOV     DPTR,#curr_estimate
0355 E0                MOVX    A,@DPTR
0356 FC                MOV     R4,A
0357 A3                INC     DPTR
0358 E0                MOVX    A,@DPTR
0359 FD                MOV     R5,A
035A A3                INC     DPTR
035B E0                MOVX    A,@DPTR
035C FE                MOV     R6,A
035D A3                INC     DPTR
035E E0                MOVX    A,@DPTR
035F FF                MOV     R7,A
                                           ; SOURCE LINE # 82
0360         ?C0009:
0360 22                RET     
             ; FUNCTION _curr_estim (END)

             ; FUNCTION _filter_v (BEGIN)
                                           ; SOURCE LINE # 88
;---- Variable 'new_value' assigned to Register 'R4/R5/R6/R7' ----
                                           ; SOURCE LINE # 92
0000 7806              MOV     R0,#06H
0002 120000      E     LCALL   ?C?LSHL
0005 E4                CLR     A
0006 7B20              MOV     R3,#020H
0008 FA                MOV     R2,A
0009 F9                MOV     R1,A
000A F8                MOV     R0,A
000B 120000      E     LCALL   ?C?LMUL
000E C004              PUSH    AR4
0010 C005              PUSH    AR5
0012 C006              PUSH    AR6
0014 C007              PUSH    AR7
0016 E4                CLR     A
0017 7FE0              MOV     R7,#0E0H
0019 7E03              MOV     R6,#03H
001B FD                MOV     R5,A
001C FC                MOV     R4,A
001D 900000      R     MOV     DPTR,#old_value
0020 E0                MOVX    A,@DPTR
0021 F8                MOV     R0,A
0022 A3                INC     DPTR
0023 E0                MOVX    A,@DPTR
0024 F9                MOV     R1,A
0025 A3                INC     DPTR
C51 COMPILER V9.51   UTILS                                                                 02/27/2019 11:22:32 PAGE 21  

0026 E0                MOVX    A,@DPTR
0027 FA                MOV     R2,A
0028 A3                INC     DPTR
0029 E0                MOVX    A,@DPTR
002A FB                MOV     R3,A
002B 120000      E     LCALL   ?C?LMUL
002E D003              POP     AR3
0030 D002              POP     AR2
0032 D001              POP     AR1
0034 D000              POP     AR0
0036 EF                MOV     A,R7
0037 2B                ADD     A,R3
0038 FF                MOV     R7,A
0039 EE                MOV     A,R6
003A 3A                ADDC    A,R2
003B FE                MOV     R6,A
003C ED                MOV     A,R5
003D 39                ADDC    A,R1
003E FD                MOV     R5,A
003F EC                MOV     A,R4
0040 38                ADDC    A,R0
0041 FC                MOV     R4,A
0042 E4                CLR     A
0043 FB                MOV     R3,A
0044 7A04              MOV     R2,#04H
0046 F9                MOV     R1,A
0047 F8                MOV     R0,A
0048 120000      E     LCALL   ?C?SLDIV
004B 900000      R     MOV     DPTR,#aux
004E 120000      E     LCALL   ?C?LSTXDATA
                                           ; SOURCE LINE # 94
0051 900000      R     MOV     DPTR,#aux
0054 E0                MOVX    A,@DPTR
0055 FC                MOV     R4,A
0056 A3                INC     DPTR
0057 E0                MOVX    A,@DPTR
0058 FD                MOV     R5,A
0059 A3                INC     DPTR
005A E0                MOVX    A,@DPTR
005B FE                MOV     R6,A
005C A3                INC     DPTR
005D E0                MOVX    A,@DPTR
005E FF                MOV     R7,A
005F 900000      R     MOV     DPTR,#old_value
0062 120000      E     LCALL   ?C?LSTXDATA
                                           ; SOURCE LINE # 96
0065 E4                CLR     A
0066 7B40              MOV     R3,#040H
0068 FA                MOV     R2,A
0069 F9                MOV     R1,A
006A F8                MOV     R0,A
006B 900000      R     MOV     DPTR,#aux
006E E0                MOVX    A,@DPTR
006F FC                MOV     R4,A
0070 A3                INC     DPTR
0071 E0                MOVX    A,@DPTR
0072 FD                MOV     R5,A
0073 A3                INC     DPTR
0074 E0                MOVX    A,@DPTR
0075 FE                MOV     R6,A
0076 A3                INC     DPTR
0077 E0                MOVX    A,@DPTR
C51 COMPILER V9.51   UTILS                                                                 02/27/2019 11:22:32 PAGE 22  

0078 FF                MOV     R7,A
0079 120000      E     LCALL   ?C?SLDIV
                                           ; SOURCE LINE # 97
007C         ?C0010:
007C 22                RET     
             ; FUNCTION _filter_v (END)

             ; FUNCTION _filter_i1 (BEGIN)
                                           ; SOURCE LINE # 99
;---- Variable 'new_value' assigned to Register 'R4/R5/R6/R7' ----
                                           ; SOURCE LINE # 103
0000 7806              MOV     R0,#06H
0002 120000      E     LCALL   ?C?LSHL
0005 E4                CLR     A
0006 7B20              MOV     R3,#020H
0008 FA                MOV     R2,A
0009 F9                MOV     R1,A
000A F8                MOV     R0,A
000B 120000      E     LCALL   ?C?LMUL
000E C004              PUSH    AR4
0010 C005              PUSH    AR5
0012 C006              PUSH    AR6
0014 C007              PUSH    AR7
0016 E4                CLR     A
0017 7FE0              MOV     R7,#0E0H
0019 7E03              MOV     R6,#03H
001B FD                MOV     R5,A
001C FC                MOV     R4,A
001D 900000      R     MOV     DPTR,#old_value
0020 E0                MOVX    A,@DPTR
0021 F8                MOV     R0,A
0022 A3                INC     DPTR
0023 E0                MOVX    A,@DPTR
0024 F9                MOV     R1,A
0025 A3                INC     DPTR
0026 E0                MOVX    A,@DPTR
0027 FA                MOV     R2,A
0028 A3                INC     DPTR
0029 E0                MOVX    A,@DPTR
002A FB                MOV     R3,A
002B 120000      E     LCALL   ?C?LMUL
002E D003              POP     AR3
0030 D002              POP     AR2
0032 D001              POP     AR1
0034 D000              POP     AR0
0036 EF                MOV     A,R7
0037 2B                ADD     A,R3
0038 FF                MOV     R7,A
0039 EE                MOV     A,R6
003A 3A                ADDC    A,R2
003B FE                MOV     R6,A
003C ED                MOV     A,R5
003D 39                ADDC    A,R1
003E FD                MOV     R5,A
003F EC                MOV     A,R4
0040 38                ADDC    A,R0
0041 FC                MOV     R4,A
0042 E4                CLR     A
0043 FB                MOV     R3,A
0044 7A04              MOV     R2,#04H
0046 F9                MOV     R1,A
0047 F8                MOV     R0,A
C51 COMPILER V9.51   UTILS                                                                 02/27/2019 11:22:32 PAGE 23  

0048 120000      E     LCALL   ?C?SLDIV
004B 900000      R     MOV     DPTR,#aux
004E 120000      E     LCALL   ?C?LSTXDATA
                                           ; SOURCE LINE # 105
0051 900000      R     MOV     DPTR,#aux
0054 E0                MOVX    A,@DPTR
0055 FC                MOV     R4,A
0056 A3                INC     DPTR
0057 E0                MOVX    A,@DPTR
0058 FD                MOV     R5,A
0059 A3                INC     DPTR
005A E0                MOVX    A,@DPTR
005B FE                MOV     R6,A
005C A3                INC     DPTR
005D E0                MOVX    A,@DPTR
005E FF                MOV     R7,A
005F 900000      R     MOV     DPTR,#old_value
0062 120000      E     LCALL   ?C?LSTXDATA
                                           ; SOURCE LINE # 107
0065 E4                CLR     A
0066 7B40              MOV     R3,#040H
0068 FA                MOV     R2,A
0069 F9                MOV     R1,A
006A F8                MOV     R0,A
006B 900000      R     MOV     DPTR,#aux
006E E0                MOVX    A,@DPTR
006F FC                MOV     R4,A
0070 A3                INC     DPTR
0071 E0                MOVX    A,@DPTR
0072 FD                MOV     R5,A
0073 A3                INC     DPTR
0074 E0                MOVX    A,@DPTR
0075 FE                MOV     R6,A
0076 A3                INC     DPTR
0077 E0                MOVX    A,@DPTR
0078 FF                MOV     R7,A
0079 120000      E     LCALL   ?C?SLDIV
                                           ; SOURCE LINE # 108
007C         ?C0011:
007C 22                RET     
             ; FUNCTION _filter_i1 (END)

             ; FUNCTION _filter_ch1 (BEGIN)
                                           ; SOURCE LINE # 114
0000 900000      R     MOV     DPTR,#new_value
0003 120000      E     LCALL   ?C?LSTXDATA
                                           ; SOURCE LINE # 118
0006 E4                CLR     A
0007 FF                MOV     R7,A
0008 FE                MOV     R6,A
0009 FD                MOV     R5,A
000A FC                MOV     R4,A
000B 900000      R     MOV     DPTR,#new_value
000E E0                MOVX    A,@DPTR
000F F8                MOV     R0,A
0010 A3                INC     DPTR
0011 E0                MOVX    A,@DPTR
0012 F9                MOV     R1,A
0013 A3                INC     DPTR
0014 E0                MOVX    A,@DPTR
0015 FA                MOV     R2,A
0016 A3                INC     DPTR
C51 COMPILER V9.51   UTILS                                                                 02/27/2019 11:22:32 PAGE 24  

0017 E0                MOVX    A,@DPTR
0018 FB                MOV     R3,A
0019 C3                CLR     C
001A 120000      E     LCALL   ?C?SLCMP
001D 500B              JNC     ?C0012
                                           ; SOURCE LINE # 119
001F E4                CLR     A
0020 FF                MOV     R7,A
0021 FE                MOV     R6,A
0022 FD                MOV     R5,A
0023 FC                MOV     R4,A
0024 900000      R     MOV     DPTR,#new_value
0027 120000      E     LCALL   ?C?LSTXDATA
002A         ?C0012:
                                           ; SOURCE LINE # 121
002A 900000      R     MOV     DPTR,#new_value
002D E0                MOVX    A,@DPTR
002E FC                MOV     R4,A
002F A3                INC     DPTR
0030 E0                MOVX    A,@DPTR
0031 FD                MOV     R5,A
0032 A3                INC     DPTR
0033 E0                MOVX    A,@DPTR
0034 FE                MOV     R6,A
0035 A3                INC     DPTR
0036 E0                MOVX    A,@DPTR
0037 FF                MOV     R7,A
0038 7806              MOV     R0,#06H
003A 120000      E     LCALL   ?C?LSHL
003D E4                CLR     A
003E 7B32              MOV     R3,#032H
0040 FA                MOV     R2,A
0041 F9                MOV     R1,A
0042 F8                MOV     R0,A
0043 120000      E     LCALL   ?C?LMUL
0046 C004              PUSH    AR4
0048 C005              PUSH    AR5
004A C006              PUSH    AR6
004C C007              PUSH    AR7
004E E4                CLR     A
004F 7FCE              MOV     R7,#0CEH
0051 7E03              MOV     R6,#03H
0053 FD                MOV     R5,A
0054 FC                MOV     R4,A
0055 900000      R     MOV     DPTR,#old_value
0058 E0                MOVX    A,@DPTR
0059 F8                MOV     R0,A
005A A3                INC     DPTR
005B E0                MOVX    A,@DPTR
005C F9                MOV     R1,A
005D A3                INC     DPTR
005E E0                MOVX    A,@DPTR
005F FA                MOV     R2,A
0060 A3                INC     DPTR
0061 E0                MOVX    A,@DPTR
0062 FB                MOV     R3,A
0063 120000      E     LCALL   ?C?LMUL
0066 D003              POP     AR3
0068 D002              POP     AR2
006A D001              POP     AR1
006C D000              POP     AR0
006E EF                MOV     A,R7
C51 COMPILER V9.51   UTILS                                                                 02/27/2019 11:22:32 PAGE 25  

006F 2B                ADD     A,R3
0070 FF                MOV     R7,A
0071 EE                MOV     A,R6
0072 3A                ADDC    A,R2
0073 FE                MOV     R6,A
0074 ED                MOV     A,R5
0075 39                ADDC    A,R1
0076 FD                MOV     R5,A
0077 EC                MOV     A,R4
0078 38                ADDC    A,R0
0079 FC                MOV     R4,A
007A E4                CLR     A
007B FB                MOV     R3,A
007C 7A04              MOV     R2,#04H
007E F9                MOV     R1,A
007F F8                MOV     R0,A
0080 120000      E     LCALL   ?C?SLDIV
0083 900000      R     MOV     DPTR,#aux
0086 120000      E     LCALL   ?C?LSTXDATA
                                           ; SOURCE LINE # 123
0089 900000      R     MOV     DPTR,#aux
008C E0                MOVX    A,@DPTR
008D FC                MOV     R4,A
008E A3                INC     DPTR
008F E0                MOVX    A,@DPTR
0090 FD                MOV     R5,A
0091 A3                INC     DPTR
0092 E0                MOVX    A,@DPTR
0093 FE                MOV     R6,A
0094 A3                INC     DPTR
0095 E0                MOVX    A,@DPTR
0096 FF                MOV     R7,A
0097 900000      R     MOV     DPTR,#old_value
009A 120000      E     LCALL   ?C?LSTXDATA
                                           ; SOURCE LINE # 125
009D E4                CLR     A
009E 7B40              MOV     R3,#040H
00A0 FA                MOV     R2,A
00A1 F9                MOV     R1,A
00A2 F8                MOV     R0,A
00A3 900000      R     MOV     DPTR,#aux
00A6 E0                MOVX    A,@DPTR
00A7 FC                MOV     R4,A
00A8 A3                INC     DPTR
00A9 E0                MOVX    A,@DPTR
00AA FD                MOV     R5,A
00AB A3                INC     DPTR
00AC E0                MOVX    A,@DPTR
00AD FE                MOV     R6,A
00AE A3                INC     DPTR
00AF E0                MOVX    A,@DPTR
00B0 FF                MOV     R7,A
00B1 120000      E     LCALL   ?C?SLDIV
                                           ; SOURCE LINE # 126
00B4         ?C0013:
00B4 22                RET     
             ; FUNCTION _filter_ch1 (END)

             ; FUNCTION _filter_ch2 (BEGIN)
                                           ; SOURCE LINE # 132
0000 900000      R     MOV     DPTR,#new_value
0003 120000      E     LCALL   ?C?LSTXDATA
C51 COMPILER V9.51   UTILS                                                                 02/27/2019 11:22:32 PAGE 26  

                                           ; SOURCE LINE # 136
0006 E4                CLR     A
0007 FF                MOV     R7,A
0008 FE                MOV     R6,A
0009 FD                MOV     R5,A
000A FC                MOV     R4,A
000B 900000      R     MOV     DPTR,#new_value
000E E0                MOVX    A,@DPTR
000F F8                MOV     R0,A
0010 A3                INC     DPTR
0011 E0                MOVX    A,@DPTR
0012 F9                MOV     R1,A
0013 A3                INC     DPTR
0014 E0                MOVX    A,@DPTR
0015 FA                MOV     R2,A
0016 A3                INC     DPTR
0017 E0                MOVX    A,@DPTR
0018 FB                MOV     R3,A
0019 C3                CLR     C
001A 120000      E     LCALL   ?C?SLCMP
001D 500B              JNC     ?C0014
                                           ; SOURCE LINE # 137
001F E4                CLR     A
0020 FF                MOV     R7,A
0021 FE                MOV     R6,A
0022 FD                MOV     R5,A
0023 FC                MOV     R4,A
0024 900000      R     MOV     DPTR,#new_value
0027 120000      E     LCALL   ?C?LSTXDATA
002A         ?C0014:
                                           ; SOURCE LINE # 139
002A 900000      R     MOV     DPTR,#new_value
002D E0                MOVX    A,@DPTR
002E FC                MOV     R4,A
002F A3                INC     DPTR
0030 E0                MOVX    A,@DPTR
0031 FD                MOV     R5,A
0032 A3                INC     DPTR
0033 E0                MOVX    A,@DPTR
0034 FE                MOV     R6,A
0035 A3                INC     DPTR
0036 E0                MOVX    A,@DPTR
0037 FF                MOV     R7,A
0038 7806              MOV     R0,#06H
003A 120000      E     LCALL   ?C?LSHL
003D E4                CLR     A
003E 7B32              MOV     R3,#032H
0040 FA                MOV     R2,A
0041 F9                MOV     R1,A
0042 F8                MOV     R0,A
0043 120000      E     LCALL   ?C?LMUL
0046 C004              PUSH    AR4
0048 C005              PUSH    AR5
004A C006              PUSH    AR6
004C C007              PUSH    AR7
004E E4                CLR     A
004F 7FCE              MOV     R7,#0CEH
0051 7E03              MOV     R6,#03H
0053 FD                MOV     R5,A
0054 FC                MOV     R4,A
0055 900000      R     MOV     DPTR,#old_value
0058 E0                MOVX    A,@DPTR
C51 COMPILER V9.51   UTILS                                                                 02/27/2019 11:22:32 PAGE 27  

0059 F8                MOV     R0,A
005A A3                INC     DPTR
005B E0                MOVX    A,@DPTR
005C F9                MOV     R1,A
005D A3                INC     DPTR
005E E0                MOVX    A,@DPTR
005F FA                MOV     R2,A
0060 A3                INC     DPTR
0061 E0                MOVX    A,@DPTR
0062 FB                MOV     R3,A
0063 120000      E     LCALL   ?C?LMUL
0066 D003              POP     AR3
0068 D002              POP     AR2
006A D001              POP     AR1
006C D000              POP     AR0
006E EF                MOV     A,R7
006F 2B                ADD     A,R3
0070 FF                MOV     R7,A
0071 EE                MOV     A,R6
0072 3A                ADDC    A,R2
0073 FE                MOV     R6,A
0074 ED                MOV     A,R5
0075 39                ADDC    A,R1
0076 FD                MOV     R5,A
0077 EC                MOV     A,R4
0078 38                ADDC    A,R0
0079 FC                MOV     R4,A
007A E4                CLR     A
007B FB                MOV     R3,A
007C 7A04              MOV     R2,#04H
007E F9                MOV     R1,A
007F F8                MOV     R0,A
0080 120000      E     LCALL   ?C?SLDIV
0083 900000      R     MOV     DPTR,#aux
0086 120000      E     LCALL   ?C?LSTXDATA
                                           ; SOURCE LINE # 141
0089 900000      R     MOV     DPTR,#aux
008C E0                MOVX    A,@DPTR
008D FC                MOV     R4,A
008E A3                INC     DPTR
008F E0                MOVX    A,@DPTR
0090 FD                MOV     R5,A
0091 A3                INC     DPTR
0092 E0                MOVX    A,@DPTR
0093 FE                MOV     R6,A
0094 A3                INC     DPTR
0095 E0                MOVX    A,@DPTR
0096 FF                MOV     R7,A
0097 900000      R     MOV     DPTR,#old_value
009A 120000      E     LCALL   ?C?LSTXDATA
                                           ; SOURCE LINE # 143
009D E4                CLR     A
009E 7B40              MOV     R3,#040H
00A0 FA                MOV     R2,A
00A1 F9                MOV     R1,A
00A2 F8                MOV     R0,A
00A3 900000      R     MOV     DPTR,#aux
00A6 E0                MOVX    A,@DPTR
00A7 FC                MOV     R4,A
00A8 A3                INC     DPTR
00A9 E0                MOVX    A,@DPTR
00AA FD                MOV     R5,A
C51 COMPILER V9.51   UTILS                                                                 02/27/2019 11:22:32 PAGE 28  

00AB A3                INC     DPTR
00AC E0                MOVX    A,@DPTR
00AD FE                MOV     R6,A
00AE A3                INC     DPTR
00AF E0                MOVX    A,@DPTR
00B0 FF                MOV     R7,A
00B1 120000      E     LCALL   ?C?SLDIV
                                           ; SOURCE LINE # 144
00B4         ?C0015:
00B4 22                RET     
             ; FUNCTION _filter_ch2 (END)

             ; FUNCTION _filter_vel_1 (BEGIN)
                                           ; SOURCE LINE # 150
;---- Variable 'new_value' assigned to Register 'R4/R5/R6/R7' ----
                                           ; SOURCE LINE # 154
0000 7806              MOV     R0,#06H
0002 120000      E     LCALL   ?C?LSHL
0005 E4                CLR     A
0006 7B80              MOV     R3,#080H
0008 FA                MOV     R2,A
0009 F9                MOV     R1,A
000A F8                MOV     R0,A
000B 120000      E     LCALL   ?C?LMUL
000E C004              PUSH    AR4
0010 C005              PUSH    AR5
0012 C006              PUSH    AR6
0014 C007              PUSH    AR7
0016 E4                CLR     A
0017 7F80              MOV     R7,#080H
0019 7E03              MOV     R6,#03H
001B FD                MOV     R5,A
001C FC                MOV     R4,A
001D 900000      R     MOV     DPTR,#old_value
0020 E0                MOVX    A,@DPTR
0021 F8                MOV     R0,A
0022 A3                INC     DPTR
0023 E0                MOVX    A,@DPTR
0024 F9                MOV     R1,A
0025 A3                INC     DPTR
0026 E0                MOVX    A,@DPTR
0027 FA                MOV     R2,A
0028 A3                INC     DPTR
0029 E0                MOVX    A,@DPTR
002A FB                MOV     R3,A
002B 120000      E     LCALL   ?C?LMUL
002E D003              POP     AR3
0030 D002              POP     AR2
0032 D001              POP     AR1
0034 D000              POP     AR0
0036 EF                MOV     A,R7
0037 2B                ADD     A,R3
0038 FF                MOV     R7,A
0039 EE                MOV     A,R6
003A 3A                ADDC    A,R2
003B FE                MOV     R6,A
003C ED                MOV     A,R5
003D 39                ADDC    A,R1
003E FD                MOV     R5,A
003F EC                MOV     A,R4
0040 38                ADDC    A,R0
0041 FC                MOV     R4,A
C51 COMPILER V9.51   UTILS                                                                 02/27/2019 11:22:32 PAGE 29  

0042 E4                CLR     A
0043 FB                MOV     R3,A
0044 7A04              MOV     R2,#04H
0046 F9                MOV     R1,A
0047 F8                MOV     R0,A
0048 120000      E     LCALL   ?C?SLDIV
004B 900000      R     MOV     DPTR,#aux
004E 120000      E     LCALL   ?C?LSTXDATA
                                           ; SOURCE LINE # 156
0051 900000      R     MOV     DPTR,#aux
0054 E0                MOVX    A,@DPTR
0055 FC                MOV     R4,A
0056 A3                INC     DPTR
0057 E0                MOVX    A,@DPTR
0058 FD                MOV     R5,A
0059 A3                INC     DPTR
005A E0                MOVX    A,@DPTR
005B FE                MOV     R6,A
005C A3                INC     DPTR
005D E0                MOVX    A,@DPTR
005E FF                MOV     R7,A
005F 900000      R     MOV     DPTR,#old_value
0062 120000      E     LCALL   ?C?LSTXDATA
                                           ; SOURCE LINE # 158
0065 E4                CLR     A
0066 7B40              MOV     R3,#040H
0068 FA                MOV     R2,A
0069 F9                MOV     R1,A
006A F8                MOV     R0,A
006B 900000      R     MOV     DPTR,#aux
006E E0                MOVX    A,@DPTR
006F FC                MOV     R4,A
0070 A3                INC     DPTR
0071 E0                MOVX    A,@DPTR
0072 FD                MOV     R5,A
0073 A3                INC     DPTR
0074 E0                MOVX    A,@DPTR
0075 FE                MOV     R6,A
0076 A3                INC     DPTR
0077 E0                MOVX    A,@DPTR
0078 FF                MOV     R7,A
0079 120000      E     LCALL   ?C?SLDIV
                                           ; SOURCE LINE # 159
007C         ?C0016:
007C 22                RET     
             ; FUNCTION _filter_vel_1 (END)

             ; FUNCTION _filter_vel_2 (BEGIN)
                                           ; SOURCE LINE # 161
;---- Variable 'new_value' assigned to Register 'R4/R5/R6/R7' ----
                                           ; SOURCE LINE # 165
0000 7806              MOV     R0,#06H
0002 120000      E     LCALL   ?C?LSHL
0005 E4                CLR     A
0006 7B80              MOV     R3,#080H
0008 FA                MOV     R2,A
0009 F9                MOV     R1,A
000A F8                MOV     R0,A
000B 120000      E     LCALL   ?C?LMUL
000E C004              PUSH    AR4
0010 C005              PUSH    AR5
0012 C006              PUSH    AR6
C51 COMPILER V9.51   UTILS                                                                 02/27/2019 11:22:32 PAGE 30  

0014 C007              PUSH    AR7
0016 E4                CLR     A
0017 7F80              MOV     R7,#080H
0019 7E03              MOV     R6,#03H
001B FD                MOV     R5,A
001C FC                MOV     R4,A
001D 900000      R     MOV     DPTR,#old_value
0020 E0                MOVX    A,@DPTR
0021 F8                MOV     R0,A
0022 A3                INC     DPTR
0023 E0                MOVX    A,@DPTR
0024 F9                MOV     R1,A
0025 A3                INC     DPTR
0026 E0                MOVX    A,@DPTR
0027 FA                MOV     R2,A
0028 A3                INC     DPTR
0029 E0                MOVX    A,@DPTR
002A FB                MOV     R3,A
002B 120000      E     LCALL   ?C?LMUL
002E D003              POP     AR3
0030 D002              POP     AR2
0032 D001              POP     AR1
0034 D000              POP     AR0
0036 EF                MOV     A,R7
0037 2B                ADD     A,R3
0038 FF                MOV     R7,A
0039 EE                MOV     A,R6
003A 3A                ADDC    A,R2
003B FE                MOV     R6,A
003C ED                MOV     A,R5
003D 39                ADDC    A,R1
003E FD                MOV     R5,A
003F EC                MOV     A,R4
0040 38                ADDC    A,R0
0041 FC                MOV     R4,A
0042 E4                CLR     A
0043 FB                MOV     R3,A
0044 7A04              MOV     R2,#04H
0046 F9                MOV     R1,A
0047 F8                MOV     R0,A
0048 120000      E     LCALL   ?C?SLDIV
004B 900000      R     MOV     DPTR,#aux
004E 120000      E     LCALL   ?C?LSTXDATA
                                           ; SOURCE LINE # 167
0051 900000      R     MOV     DPTR,#aux
0054 E0                MOVX    A,@DPTR
0055 FC                MOV     R4,A
0056 A3                INC     DPTR
0057 E0                MOVX    A,@DPTR
0058 FD                MOV     R5,A
0059 A3                INC     DPTR
005A E0                MOVX    A,@DPTR
005B FE                MOV     R6,A
005C A3                INC     DPTR
005D E0                MOVX    A,@DPTR
005E FF                MOV     R7,A
005F 900000      R     MOV     DPTR,#old_value
0062 120000      E     LCALL   ?C?LSTXDATA
                                           ; SOURCE LINE # 169
0065 E4                CLR     A
0066 7B40              MOV     R3,#040H
0068 FA                MOV     R2,A
C51 COMPILER V9.51   UTILS                                                                 02/27/2019 11:22:32 PAGE 31  

0069 F9                MOV     R1,A
006A F8                MOV     R0,A
006B 900000      R     MOV     DPTR,#aux
006E E0                MOVX    A,@DPTR
006F FC                MOV     R4,A
0070 A3                INC     DPTR
0071 E0                MOVX    A,@DPTR
0072 FD                MOV     R5,A
0073 A3                INC     DPTR
0074 E0                MOVX    A,@DPTR
0075 FE                MOV     R6,A
0076 A3                INC     DPTR
0077 E0                MOVX    A,@DPTR
0078 FF                MOV     R7,A
0079 120000      E     LCALL   ?C?SLDIV
                                           ; SOURCE LINE # 170
007C         ?C0017:
007C 22                RET     
             ; FUNCTION _filter_vel_2 (END)

             ; FUNCTION _filter_vel_3 (BEGIN)
                                           ; SOURCE LINE # 172
;---- Variable 'new_value' assigned to Register 'R4/R5/R6/R7' ----
                                           ; SOURCE LINE # 176
0000 7806              MOV     R0,#06H
0002 120000      E     LCALL   ?C?LSHL
0005 E4                CLR     A
0006 7B80              MOV     R3,#080H
0008 FA                MOV     R2,A
0009 F9                MOV     R1,A
000A F8                MOV     R0,A
000B 120000      E     LCALL   ?C?LMUL
000E C004              PUSH    AR4
0010 C005              PUSH    AR5
0012 C006              PUSH    AR6
0014 C007              PUSH    AR7
0016 E4                CLR     A
0017 7F80              MOV     R7,#080H
0019 7E03              MOV     R6,#03H
001B FD                MOV     R5,A
001C FC                MOV     R4,A
001D 900000      R     MOV     DPTR,#old_value
0020 E0                MOVX    A,@DPTR
0021 F8                MOV     R0,A
0022 A3                INC     DPTR
0023 E0                MOVX    A,@DPTR
0024 F9                MOV     R1,A
0025 A3                INC     DPTR
0026 E0                MOVX    A,@DPTR
0027 FA                MOV     R2,A
0028 A3                INC     DPTR
0029 E0                MOVX    A,@DPTR
002A FB                MOV     R3,A
002B 120000      E     LCALL   ?C?LMUL
002E D003              POP     AR3
0030 D002              POP     AR2
0032 D001              POP     AR1
0034 D000              POP     AR0
0036 EF                MOV     A,R7
0037 2B                ADD     A,R3
0038 FF                MOV     R7,A
0039 EE                MOV     A,R6
C51 COMPILER V9.51   UTILS                                                                 02/27/2019 11:22:32 PAGE 32  

003A 3A                ADDC    A,R2
003B FE                MOV     R6,A
003C ED                MOV     A,R5
003D 39                ADDC    A,R1
003E FD                MOV     R5,A
003F EC                MOV     A,R4
0040 38                ADDC    A,R0
0041 FC                MOV     R4,A
0042 E4                CLR     A
0043 FB                MOV     R3,A
0044 7A04              MOV     R2,#04H
0046 F9                MOV     R1,A
0047 F8                MOV     R0,A
0048 120000      E     LCALL   ?C?SLDIV
004B 900000      R     MOV     DPTR,#aux
004E 120000      E     LCALL   ?C?LSTXDATA
                                           ; SOURCE LINE # 178
0051 900000      R     MOV     DPTR,#aux
0054 E0                MOVX    A,@DPTR
0055 FC                MOV     R4,A
0056 A3                INC     DPTR
0057 E0                MOVX    A,@DPTR
0058 FD                MOV     R5,A
0059 A3                INC     DPTR
005A E0                MOVX    A,@DPTR
005B FE                MOV     R6,A
005C A3                INC     DPTR
005D E0                MOVX    A,@DPTR
005E FF                MOV     R7,A
005F 900000      R     MOV     DPTR,#old_value
0062 120000      E     LCALL   ?C?LSTXDATA
                                           ; SOURCE LINE # 180
0065 E4                CLR     A
0066 7B40              MOV     R3,#040H
0068 FA                MOV     R2,A
0069 F9                MOV     R1,A
006A F8                MOV     R0,A
006B 900000      R     MOV     DPTR,#aux
006E E0                MOVX    A,@DPTR
006F FC                MOV     R4,A
0070 A3                INC     DPTR
0071 E0                MOVX    A,@DPTR
0072 FD                MOV     R5,A
0073 A3                INC     DPTR
0074 E0                MOVX    A,@DPTR
0075 FE                MOV     R6,A
0076 A3                INC     DPTR
0077 E0                MOVX    A,@DPTR
0078 FF                MOV     R7,A
0079 120000      E     LCALL   ?C?SLDIV
                                           ; SOURCE LINE # 181
007C         ?C0018:
007C 22                RET     
             ; FUNCTION _filter_vel_3 (END)

             ; FUNCTION _filter_acc_1 (BEGIN)
                                           ; SOURCE LINE # 187
;---- Variable 'new_value' assigned to Register 'R4/R5/R6/R7' ----
                                           ; SOURCE LINE # 191
0000 7806              MOV     R0,#06H
0002 120000      E     LCALL   ?C?LSHL
0005 E4                CLR     A
C51 COMPILER V9.51   UTILS                                                                 02/27/2019 11:22:32 PAGE 33  

0006 7B08              MOV     R3,#08H
0008 FA                MOV     R2,A
0009 F9                MOV     R1,A
000A F8                MOV     R0,A
000B 120000      E     LCALL   ?C?LMUL
000E C004              PUSH    AR4
0010 C005              PUSH    AR5
0012 C006              PUSH    AR6
0014 C007              PUSH    AR7
0016 E4                CLR     A
0017 7FF8              MOV     R7,#0F8H
0019 7E03              MOV     R6,#03H
001B FD                MOV     R5,A
001C FC                MOV     R4,A
001D 900000      R     MOV     DPTR,#old_value
0020 E0                MOVX    A,@DPTR
0021 F8                MOV     R0,A
0022 A3                INC     DPTR
0023 E0                MOVX    A,@DPTR
0024 F9                MOV     R1,A
0025 A3                INC     DPTR
0026 E0                MOVX    A,@DPTR
0027 FA                MOV     R2,A
0028 A3                INC     DPTR
0029 E0                MOVX    A,@DPTR
002A FB                MOV     R3,A
002B 120000      E     LCALL   ?C?LMUL
002E D003              POP     AR3
0030 D002              POP     AR2
0032 D001              POP     AR1
0034 D000              POP     AR0
0036 EF                MOV     A,R7
0037 2B                ADD     A,R3
0038 FF                MOV     R7,A
0039 EE                MOV     A,R6
003A 3A                ADDC    A,R2
003B FE                MOV     R6,A
003C ED                MOV     A,R5
003D 39                ADDC    A,R1
003E FD                MOV     R5,A
003F EC                MOV     A,R4
0040 38                ADDC    A,R0
0041 FC                MOV     R4,A
0042 E4                CLR     A
0043 FB                MOV     R3,A
0044 7A04              MOV     R2,#04H
0046 F9                MOV     R1,A
0047 F8                MOV     R0,A
0048 120000      E     LCALL   ?C?SLDIV
004B 900000      R     MOV     DPTR,#aux
004E 120000      E     LCALL   ?C?LSTXDATA
                                           ; SOURCE LINE # 193
0051 900000      R     MOV     DPTR,#aux
0054 E0                MOVX    A,@DPTR
0055 FC                MOV     R4,A
0056 A3                INC     DPTR
0057 E0                MOVX    A,@DPTR
0058 FD                MOV     R5,A
0059 A3                INC     DPTR
005A E0                MOVX    A,@DPTR
005B FE                MOV     R6,A
005C A3                INC     DPTR
C51 COMPILER V9.51   UTILS                                                                 02/27/2019 11:22:32 PAGE 34  

005D E0                MOVX    A,@DPTR
005E FF                MOV     R7,A
005F 900000      R     MOV     DPTR,#old_value
0062 120000      E     LCALL   ?C?LSTXDATA
                                           ; SOURCE LINE # 195
0065 E4                CLR     A
0066 7B40              MOV     R3,#040H
0068 FA                MOV     R2,A
0069 F9                MOV     R1,A
006A F8                MOV     R0,A
006B 900000      R     MOV     DPTR,#aux
006E E0                MOVX    A,@DPTR
006F FC                MOV     R4,A
0070 A3                INC     DPTR
0071 E0                MOVX    A,@DPTR
0072 FD                MOV     R5,A
0073 A3                INC     DPTR
0074 E0                MOVX    A,@DPTR
0075 FE                MOV     R6,A
0076 A3                INC     DPTR
0077 E0                MOVX    A,@DPTR
0078 FF                MOV     R7,A
0079 120000      E     LCALL   ?C?SLDIV
                                           ; SOURCE LINE # 196
007C         ?C0019:
007C 22                RET     
             ; FUNCTION _filter_acc_1 (END)

             ; FUNCTION _filter_acc_2 (BEGIN)
                                           ; SOURCE LINE # 198
;---- Variable 'new_value' assigned to Register 'R4/R5/R6/R7' ----
                                           ; SOURCE LINE # 202
0000 7806              MOV     R0,#06H
0002 120000      E     LCALL   ?C?LSHL
0005 E4                CLR     A
0006 7B08              MOV     R3,#08H
0008 FA                MOV     R2,A
0009 F9                MOV     R1,A
000A F8                MOV     R0,A
000B 120000      E     LCALL   ?C?LMUL
000E C004              PUSH    AR4
0010 C005              PUSH    AR5
0012 C006              PUSH    AR6
0014 C007              PUSH    AR7
0016 E4                CLR     A
0017 7FF8              MOV     R7,#0F8H
0019 7E03              MOV     R6,#03H
001B FD                MOV     R5,A
001C FC                MOV     R4,A
001D 900000      R     MOV     DPTR,#old_value
0020 E0                MOVX    A,@DPTR
0021 F8                MOV     R0,A
0022 A3                INC     DPTR
0023 E0                MOVX    A,@DPTR
0024 F9                MOV     R1,A
0025 A3                INC     DPTR
0026 E0                MOVX    A,@DPTR
0027 FA                MOV     R2,A
0028 A3                INC     DPTR
0029 E0                MOVX    A,@DPTR
002A FB                MOV     R3,A
002B 120000      E     LCALL   ?C?LMUL
C51 COMPILER V9.51   UTILS                                                                 02/27/2019 11:22:32 PAGE 35  

002E D003              POP     AR3
0030 D002              POP     AR2
0032 D001              POP     AR1
0034 D000              POP     AR0
0036 EF                MOV     A,R7
0037 2B                ADD     A,R3
0038 FF                MOV     R7,A
0039 EE                MOV     A,R6
003A 3A                ADDC    A,R2
003B FE                MOV     R6,A
003C ED                MOV     A,R5
003D 39                ADDC    A,R1
003E FD                MOV     R5,A
003F EC                MOV     A,R4
0040 38                ADDC    A,R0
0041 FC                MOV     R4,A
0042 E4                CLR     A
0043 FB                MOV     R3,A
0044 7A04              MOV     R2,#04H
0046 F9                MOV     R1,A
0047 F8                MOV     R0,A
0048 120000      E     LCALL   ?C?SLDIV
004B 900000      R     MOV     DPTR,#aux
004E 120000      E     LCALL   ?C?LSTXDATA
                                           ; SOURCE LINE # 204
0051 900000      R     MOV     DPTR,#aux
0054 E0                MOVX    A,@DPTR
0055 FC                MOV     R4,A
0056 A3                INC     DPTR
0057 E0                MOVX    A,@DPTR
0058 FD                MOV     R5,A
0059 A3                INC     DPTR
005A E0                MOVX    A,@DPTR
005B FE                MOV     R6,A
005C A3                INC     DPTR
005D E0                MOVX    A,@DPTR
005E FF                MOV     R7,A
005F 900000      R     MOV     DPTR,#old_value
0062 120000      E     LCALL   ?C?LSTXDATA
                                           ; SOURCE LINE # 206
0065 E4                CLR     A
0066 7B40              MOV     R3,#040H
0068 FA                MOV     R2,A
0069 F9                MOV     R1,A
006A F8                MOV     R0,A
006B 900000      R     MOV     DPTR,#aux
006E E0                MOVX    A,@DPTR
006F FC                MOV     R4,A
0070 A3                INC     DPTR
0071 E0                MOVX    A,@DPTR
0072 FD                MOV     R5,A
0073 A3                INC     DPTR
0074 E0                MOVX    A,@DPTR
0075 FE                MOV     R6,A
0076 A3                INC     DPTR
0077 E0                MOVX    A,@DPTR
0078 FF                MOV     R7,A
0079 120000      E     LCALL   ?C?SLDIV
                                           ; SOURCE LINE # 207
007C         ?C0020:
007C 22                RET     
             ; FUNCTION _filter_acc_2 (END)
C51 COMPILER V9.51   UTILS                                                                 02/27/2019 11:22:32 PAGE 36  


             ; FUNCTION _filter_acc_3 (BEGIN)
                                           ; SOURCE LINE # 209
;---- Variable 'new_value' assigned to Register 'R4/R5/R6/R7' ----
                                           ; SOURCE LINE # 213
0000 7806              MOV     R0,#06H
0002 120000      E     LCALL   ?C?LSHL
0005 E4                CLR     A
0006 7B08              MOV     R3,#08H
0008 FA                MOV     R2,A
0009 F9                MOV     R1,A
000A F8                MOV     R0,A
000B 120000      E     LCALL   ?C?LMUL
000E C004              PUSH    AR4
0010 C005              PUSH    AR5
0012 C006              PUSH    AR6
0014 C007              PUSH    AR7
0016 E4                CLR     A
0017 7FF8              MOV     R7,#0F8H
0019 7E03              MOV     R6,#03H
001B FD                MOV     R5,A
001C FC                MOV     R4,A
001D 900000      R     MOV     DPTR,#old_value
0020 E0                MOVX    A,@DPTR
0021 F8                MOV     R0,A
0022 A3                INC     DPTR
0023 E0                MOVX    A,@DPTR
0024 F9                MOV     R1,A
0025 A3                INC     DPTR
0026 E0                MOVX    A,@DPTR
0027 FA                MOV     R2,A
0028 A3                INC     DPTR
0029 E0                MOVX    A,@DPTR
002A FB                MOV     R3,A
002B 120000      E     LCALL   ?C?LMUL
002E D003              POP     AR3
0030 D002              POP     AR2
0032 D001              POP     AR1
0034 D000              POP     AR0
0036 EF                MOV     A,R7
0037 2B                ADD     A,R3
0038 FF                MOV     R7,A
0039 EE                MOV     A,R6
003A 3A                ADDC    A,R2
003B FE                MOV     R6,A
003C ED                MOV     A,R5
003D 39                ADDC    A,R1
003E FD                MOV     R5,A
003F EC                MOV     A,R4
0040 38                ADDC    A,R0
0041 FC                MOV     R4,A
0042 E4                CLR     A
0043 FB                MOV     R3,A
0044 7A04              MOV     R2,#04H
0046 F9                MOV     R1,A
0047 F8                MOV     R0,A
0048 120000      E     LCALL   ?C?SLDIV
004B 900000      R     MOV     DPTR,#aux
004E 120000      E     LCALL   ?C?LSTXDATA
                                           ; SOURCE LINE # 215
0051 900000      R     MOV     DPTR,#aux
0054 E0                MOVX    A,@DPTR
C51 COMPILER V9.51   UTILS                                                                 02/27/2019 11:22:32 PAGE 37  

0055 FC                MOV     R4,A
0056 A3                INC     DPTR
0057 E0                MOVX    A,@DPTR
0058 FD                MOV     R5,A
0059 A3                INC     DPTR
005A E0                MOVX    A,@DPTR
005B FE                MOV     R6,A
005C A3                INC     DPTR
005D E0                MOVX    A,@DPTR
005E FF                MOV     R7,A
005F 900000      R     MOV     DPTR,#old_value
0062 120000      E     LCALL   ?C?LSTXDATA
                                           ; SOURCE LINE # 217
0065 E4                CLR     A
0066 7B40              MOV     R3,#040H
0068 FA                MOV     R2,A
0069 F9                MOV     R1,A
006A F8                MOV     R0,A
006B 900000      R     MOV     DPTR,#aux
006E E0                MOVX    A,@DPTR
006F FC                MOV     R4,A
0070 A3                INC     DPTR
0071 E0                MOVX    A,@DPTR
0072 FD                MOV     R5,A
0073 A3                INC     DPTR
0074 E0                MOVX    A,@DPTR
0075 FE                MOV     R6,A
0076 A3                INC     DPTR
0077 E0                MOVX    A,@DPTR
0078 FF                MOV     R7,A
0079 120000      E     LCALL   ?C?SLDIV
                                           ; SOURCE LINE # 218
007C         ?C0021:
007C 22                RET     
             ; FUNCTION _filter_acc_3 (END)

             ; FUNCTION _filter_curr_diff (BEGIN)
                                           ; SOURCE LINE # 224
;---- Variable 'new_value' assigned to Register 'R4/R5/R6/R7' ----
                                           ; SOURCE LINE # 231
0000 7806              MOV     R0,#06H
0002 120000      E     LCALL   ?C?LSHL
0005 E4                CLR     A
0006 7B10              MOV     R3,#010H
0008 FA                MOV     R2,A
0009 F9                MOV     R1,A
000A F8                MOV     R0,A
000B 120000      E     LCALL   ?C?LMUL
000E C004              PUSH    AR4
0010 C005              PUSH    AR5
0012 C006              PUSH    AR6
0014 C007              PUSH    AR7
0016 E4                CLR     A
0017 7FF0              MOV     R7,#0F0H
0019 7E03              MOV     R6,#03H
001B FD                MOV     R5,A
001C FC                MOV     R4,A
001D 900000      R     MOV     DPTR,#old_value
0020 E0                MOVX    A,@DPTR
0021 F8                MOV     R0,A
0022 A3                INC     DPTR
0023 E0                MOVX    A,@DPTR
C51 COMPILER V9.51   UTILS                                                                 02/27/2019 11:22:32 PAGE 38  

0024 F9                MOV     R1,A
0025 A3                INC     DPTR
0026 E0                MOVX    A,@DPTR
0027 FA                MOV     R2,A
0028 A3                INC     DPTR
0029 E0                MOVX    A,@DPTR
002A FB                MOV     R3,A
002B 120000      E     LCALL   ?C?LMUL
002E D003              POP     AR3
0030 D002              POP     AR2
0032 D001              POP     AR1
0034 D000              POP     AR0
0036 EF                MOV     A,R7
0037 2B                ADD     A,R3
0038 FF                MOV     R7,A
0039 EE                MOV     A,R6
003A 3A                ADDC    A,R2
003B FE                MOV     R6,A
003C ED                MOV     A,R5
003D 39                ADDC    A,R1
003E FD                MOV     R5,A
003F EC                MOV     A,R4
0040 38                ADDC    A,R0
0041 FC                MOV     R4,A
0042 E4                CLR     A
0043 FB                MOV     R3,A
0044 7A04              MOV     R2,#04H
0046 F9                MOV     R1,A
0047 F8                MOV     R0,A
0048 120000      E     LCALL   ?C?SLDIV
004B 900000      R     MOV     DPTR,#aux
004E 120000      E     LCALL   ?C?LSTXDATA
                                           ; SOURCE LINE # 233
0051 900000      R     MOV     DPTR,#aux
0054 E0                MOVX    A,@DPTR
0055 FC                MOV     R4,A
0056 A3                INC     DPTR
0057 E0                MOVX    A,@DPTR
0058 FD                MOV     R5,A
0059 A3                INC     DPTR
005A E0                MOVX    A,@DPTR
005B FE                MOV     R6,A
005C A3                INC     DPTR
005D E0                MOVX    A,@DPTR
005E FF                MOV     R7,A
005F 900000      R     MOV     DPTR,#old_value
0062 120000      E     LCALL   ?C?LSTXDATA
                                           ; SOURCE LINE # 235
0065 E4                CLR     A
0066 7B40              MOV     R3,#040H
0068 FA                MOV     R2,A
0069 F9                MOV     R1,A
006A F8                MOV     R0,A
006B 900000      R     MOV     DPTR,#aux
006E E0                MOVX    A,@DPTR
006F FC                MOV     R4,A
0070 A3                INC     DPTR
0071 E0                MOVX    A,@DPTR
0072 FD                MOV     R5,A
0073 A3                INC     DPTR
0074 E0                MOVX    A,@DPTR
0075 FE                MOV     R6,A
C51 COMPILER V9.51   UTILS                                                                 02/27/2019 11:22:32 PAGE 39  

0076 A3                INC     DPTR
0077 E0                MOVX    A,@DPTR
0078 FF                MOV     R7,A
0079 120000      E     LCALL   ?C?SLDIV
                                           ; SOURCE LINE # 237
007C         ?C0022:
007C 22                RET     
             ; FUNCTION _filter_curr_diff (END)

             ; FUNCTION _filter_voltage (BEGIN)
                                           ; SOURCE LINE # 243
;---- Variable 'new_value' assigned to Register 'R4/R5/R6/R7' ----
                                           ; SOURCE LINE # 248
0000 7806              MOV     R0,#06H
0002 120000      E     LCALL   ?C?LSHL
0005 E4                CLR     A
0006 7B08              MOV     R3,#08H
0008 FA                MOV     R2,A
0009 F9                MOV     R1,A
000A F8                MOV     R0,A
000B 120000      E     LCALL   ?C?LMUL
000E C004              PUSH    AR4
0010 C005              PUSH    AR5
0012 C006              PUSH    AR6
0014 C007              PUSH    AR7
0016 E4                CLR     A
0017 7FF8              MOV     R7,#0F8H
0019 7E03              MOV     R6,#03H
001B FD                MOV     R5,A
001C FC                MOV     R4,A
001D 900000      R     MOV     DPTR,#old_value
0020 E0                MOVX    A,@DPTR
0021 F8                MOV     R0,A
0022 A3                INC     DPTR
0023 E0                MOVX    A,@DPTR
0024 F9                MOV     R1,A
0025 A3                INC     DPTR
0026 E0                MOVX    A,@DPTR
0027 FA                MOV     R2,A
0028 A3                INC     DPTR
0029 E0                MOVX    A,@DPTR
002A FB                MOV     R3,A
002B 120000      E     LCALL   ?C?LMUL
002E D003              POP     AR3
0030 D002              POP     AR2
0032 D001              POP     AR1
0034 D000              POP     AR0
0036 EF                MOV     A,R7
0037 2B                ADD     A,R3
0038 FF                MOV     R7,A
0039 EE                MOV     A,R6
003A 3A                ADDC    A,R2
003B FE                MOV     R6,A
003C ED                MOV     A,R5
003D 39                ADDC    A,R1
003E FD                MOV     R5,A
003F EC                MOV     A,R4
0040 38                ADDC    A,R0
0041 FC                MOV     R4,A
0042 E4                CLR     A
0043 FB                MOV     R3,A
0044 7A04              MOV     R2,#04H
C51 COMPILER V9.51   UTILS                                                                 02/27/2019 11:22:32 PAGE 40  

0046 F9                MOV     R1,A
0047 F8                MOV     R0,A
0048 120000      E     LCALL   ?C?SLDIV
004B 900000      R     MOV     DPTR,#aux
004E 120000      E     LCALL   ?C?LSTXDATA
                                           ; SOURCE LINE # 250
0051 900000      R     MOV     DPTR,#aux
0054 E0                MOVX    A,@DPTR
0055 FC                MOV     R4,A
0056 A3                INC     DPTR
0057 E0                MOVX    A,@DPTR
0058 FD                MOV     R5,A
0059 A3                INC     DPTR
005A E0                MOVX    A,@DPTR
005B FE                MOV     R6,A
005C A3                INC     DPTR
005D E0                MOVX    A,@DPTR
005E FF                MOV     R7,A
005F 900000      R     MOV     DPTR,#old_value
0062 120000      E     LCALL   ?C?LSTXDATA
                                           ; SOURCE LINE # 252
0065 E4                CLR     A
0066 7B40              MOV     R3,#040H
0068 FA                MOV     R2,A
0069 F9                MOV     R1,A
006A F8                MOV     R0,A
006B 900000      R     MOV     DPTR,#aux
006E E0                MOVX    A,@DPTR
006F FC                MOV     R4,A
0070 A3                INC     DPTR
0071 E0                MOVX    A,@DPTR
0072 FD                MOV     R5,A
0073 A3                INC     DPTR
0074 E0                MOVX    A,@DPTR
0075 FE                MOV     R6,A
0076 A3                INC     DPTR
0077 E0                MOVX    A,@DPTR
0078 FF                MOV     R7,A
0079 120000      E     LCALL   ?C?SLDIV
                                           ; SOURCE LINE # 253
007C         ?C0023:
007C 22                RET     
             ; FUNCTION _filter_voltage (END)

             ; FUNCTION _check_enc_data (BEGIN)
                                           ; SOURCE LINE # 261
;---- Variable 'value' assigned to Register 'R1/R2/R3' ----
                                           ; SOURCE LINE # 263
0000 7800        R     MOV     R0,#LOW p
0002 A603              MOV     @R0,AR3
0004 08                INC     R0
0005 A602              MOV     @R0,AR2
0007 08                INC     R0
0008 A601              MOV     @R0,AR1
                                           ; SOURCE LINE # 264
000A 120000      E     LCALL   ?C?CLDPTR
000D F500        R     MOV     a,A
                                           ; SOURCE LINE # 266
000F 7800        R     MOV     R0,#LOW p
0011 8603              MOV     AR3,@R0
0013 08                INC     R0
0014 08                INC     R0
C51 COMPILER V9.51   UTILS                                                                 02/27/2019 11:22:32 PAGE 41  

0015 06                INC     @R0
0016 E6                MOV     A,@R0
0017 18                DEC     R0
0018 7001              JNZ     ?C0066
001A 06                INC     @R0
001B         ?C0066:
001B F9                MOV     R1,A
001C 8602              MOV     AR2,@R0
001E 120000      E     LCALL   ?C?CLDPTR
0021 6200        R     XRL     a,A
                                           ; SOURCE LINE # 267
0023 7800        R     MOV     R0,#LOW p
0025 8603              MOV     AR3,@R0
0027 08                INC     R0
0028 08                INC     R0
0029 06                INC     @R0
002A E6                MOV     A,@R0
002B 18                DEC     R0
002C 7001              JNZ     ?C0067
002E 06                INC     @R0
002F         ?C0067:
002F F9                MOV     R1,A
0030 8602              MOV     AR2,@R0
0032 120000      E     LCALL   ?C?CLDPTR
0035 6200        R     XRL     a,A
                                           ; SOURCE LINE # 268
0037 7800        R     MOV     R0,#LOW p
0039 8603              MOV     AR3,@R0
003B 08                INC     R0
003C 08                INC     R0
003D 06                INC     @R0
003E E6                MOV     A,@R0
003F 18                DEC     R0
0040 7001              JNZ     ?C0068
0042 06                INC     @R0
0043         ?C0068:
0043 F9                MOV     R1,A
0044 8602              MOV     AR2,@R0
0046 120000      E     LCALL   ?C?CLDPTR
0049 6200        R     XRL     a,A
                                           ; SOURCE LINE # 269
004B E500        R     MOV     A,a
004D C4                SWAP    A
004E 540F              ANL     A,#0FH
0050 FF                MOV     R7,A
0051 E500        R     MOV     A,a
0053 540F              ANL     A,#0FH
0055 6F                XRL     A,R7
0056 F500        R     MOV     a,A
                                           ; SOURCE LINE # 271
0058 FF                MOV     R7,A
0059 7469              MOV     A,#069H
005B 7E96              MOV     R6,#096H
005D A807              MOV     R0,AR7
005F 08                INC     R0
0060 8005              SJMP    ?C0070
0062         ?C0069:
0062 CE                XCH     A,R6
0063 C3                CLR     C
0064 13                RRC     A
0065 CE                XCH     A,R6
0066 13                RRC     A
C51 COMPILER V9.51   UTILS                                                                 02/27/2019 11:22:32 PAGE 42  

0067         ?C0070:
0067 D8F9              DJNZ    R0,?C0069
0069 13                RRC     A
                                           ; SOURCE LINE # 273
006A         ?C0024:
006A 22                RET     
             ; FUNCTION _check_enc_data (END)

             ; FUNCTION _my_round (BEGIN)
                                           ; SOURCE LINE # 279
0000 900000      R     MOV     DPTR,#x
0003 120000      E     LCALL   ?C?LSTXDATA
                                           ; SOURCE LINE # 281
0006 E4                CLR     A
0007 FF                MOV     R7,A
0008 FE                MOV     R6,A
0009 FD                MOV     R5,A
000A FC                MOV     R4,A
000B 900000      R     MOV     DPTR,#x
000E E0                MOVX    A,@DPTR
000F F8                MOV     R0,A
0010 A3                INC     DPTR
0011 E0                MOVX    A,@DPTR
0012 F9                MOV     R1,A
0013 A3                INC     DPTR
0014 E0                MOVX    A,@DPTR
0015 FA                MOV     R2,A
0016 A3                INC     DPTR
0017 E0                MOVX    A,@DPTR
0018 FB                MOV     R3,A
0019 120000      E     LCALL   ?C?FPCMP3
001C 501B              JNC     ?C0025
                                           ; SOURCE LINE # 282
001E E4                CLR     A
001F FF                MOV     R7,A
0020 FE                MOV     R6,A
0021 FD                MOV     R5,A
0022 7CBF              MOV     R4,#0BFH
0024 900000      R     MOV     DPTR,#x
0027 E0                MOVX    A,@DPTR
0028 F8                MOV     R0,A
0029 A3                INC     DPTR
002A E0                MOVX    A,@DPTR
002B F9                MOV     R1,A
002C A3                INC     DPTR
002D E0                MOVX    A,@DPTR
002E FA                MOV     R2,A
002F A3                INC     DPTR
0030 E0                MOVX    A,@DPTR
0031 FB                MOV     R3,A
0032 120000      E     LCALL   ?C?FPADD
0035 120000      E     LCALL   ?C?CASTF
0038 22                RET     
0039         ?C0025:
                                           ; SOURCE LINE # 284
0039 E4                CLR     A
003A FF                MOV     R7,A
003B FE                MOV     R6,A
003C FD                MOV     R5,A
003D 7C3F              MOV     R4,#03FH
003F 900000      R     MOV     DPTR,#x
0042 E0                MOVX    A,@DPTR
C51 COMPILER V9.51   UTILS                                                                 02/27/2019 11:22:32 PAGE 43  

0043 F8                MOV     R0,A
0044 A3                INC     DPTR
0045 E0                MOVX    A,@DPTR
0046 F9                MOV     R1,A
0047 A3                INC     DPTR
0048 E0                MOVX    A,@DPTR
0049 FA                MOV     R2,A
004A A3                INC     DPTR
004B E0                MOVX    A,@DPTR
004C FB                MOV     R3,A
004D 120000      E     LCALL   ?C?FPADD
0050 120000      E     LCALL   ?C?CASTF
                                           ; SOURCE LINE # 285
0053         ?C0026:
0053 22                RET     
             ; FUNCTION _my_round (END)

             ; FUNCTION _my_mod (BEGIN)
                                           ; SOURCE LINE # 291
0000 900000      R     MOV     DPTR,#val
0003 120000      E     LCALL   ?C?LSTXDATA
                                           ; SOURCE LINE # 293
0006 E4                CLR     A
0007 FF                MOV     R7,A
0008 FE                MOV     R6,A
0009 FD                MOV     R5,A
000A FC                MOV     R4,A
000B 900000      R     MOV     DPTR,#val
000E E0                MOVX    A,@DPTR
000F F8                MOV     R0,A
0010 A3                INC     DPTR
0011 E0                MOVX    A,@DPTR
0012 F9                MOV     R1,A
0013 A3                INC     DPTR
0014 E0                MOVX    A,@DPTR
0015 FA                MOV     R2,A
0016 A3                INC     DPTR
0017 E0                MOVX    A,@DPTR
0018 FB                MOV     R3,A
0019 C3                CLR     C
001A 120000      E     LCALL   ?C?SLCMP
001D 4028              JC      ?C0028
                                           ; SOURCE LINE # 294
001F 900000      R     MOV     DPTR,#divisor
0022 E0                MOVX    A,@DPTR
0023 F8                MOV     R0,A
0024 A3                INC     DPTR
0025 E0                MOVX    A,@DPTR
0026 F9                MOV     R1,A
0027 A3                INC     DPTR
0028 E0                MOVX    A,@DPTR
0029 FA                MOV     R2,A
002A A3                INC     DPTR
002B E0                MOVX    A,@DPTR
002C FB                MOV     R3,A
002D 900000      R     MOV     DPTR,#val
0030 E0                MOVX    A,@DPTR
0031 FC                MOV     R4,A
0032 A3                INC     DPTR
0033 E0                MOVX    A,@DPTR
0034 FD                MOV     R5,A
0035 A3                INC     DPTR
C51 COMPILER V9.51   UTILS                                                                 02/27/2019 11:22:32 PAGE 44  

0036 E0                MOVX    A,@DPTR
0037 FE                MOV     R6,A
0038 A3                INC     DPTR
0039 E0                MOVX    A,@DPTR
003A FF                MOV     R7,A
003B 120000      E     LCALL   ?C?SLDIV
003E AC00              MOV     R4,AR0
0040 AD01              MOV     R5,AR1
0042 AE02              MOV     R6,AR2
0044 AF03              MOV     R7,AR3
0046 22                RET     
                                           ; SOURCE LINE # 295
0047         ?C0028:
                                           ; SOURCE LINE # 296
0047 900000      R     MOV     DPTR,#val
004A E0                MOVX    A,@DPTR
004B FC                MOV     R4,A
004C A3                INC     DPTR
004D E0                MOVX    A,@DPTR
004E FD                MOV     R5,A
004F A3                INC     DPTR
0050 E0                MOVX    A,@DPTR
0051 FE                MOV     R6,A
0052 A3                INC     DPTR
0053 E0                MOVX    A,@DPTR
0054 FF                MOV     R7,A
0055 120000      E     LCALL   ?C?LNEG
0058 A3                INC     DPTR
0059 E0                MOVX    A,@DPTR
005A F8                MOV     R0,A
005B A3                INC     DPTR
005C E0                MOVX    A,@DPTR
005D F9                MOV     R1,A
005E A3                INC     DPTR
005F E0                MOVX    A,@DPTR
0060 FA                MOV     R2,A
0061 A3                INC     DPTR
0062 E0                MOVX    A,@DPTR
0063 FB                MOV     R3,A
0064 120000      E     LCALL   ?C?SLDIV
0067 900000      R     MOV     DPTR,#divisor
006A E0                MOVX    A,@DPTR
006B FC                MOV     R4,A
006C A3                INC     DPTR
006D E0                MOVX    A,@DPTR
006E FD                MOV     R5,A
006F A3                INC     DPTR
0070 E0                MOVX    A,@DPTR
0071 FE                MOV     R6,A
0072 A3                INC     DPTR
0073 E0                MOVX    A,@DPTR
0074 C3                CLR     C
0075 9B                SUBB    A,R3
0076 FF                MOV     R7,A
0077 EE                MOV     A,R6
0078 9A                SUBB    A,R2
0079 FE                MOV     R6,A
007A ED                MOV     A,R5
007B 99                SUBB    A,R1
007C FD                MOV     R5,A
007D EC                MOV     A,R4
007E 98                SUBB    A,R0
C51 COMPILER V9.51   UTILS                                                                 02/27/2019 11:22:32 PAGE 45  

007F FC                MOV     R4,A
                                           ; SOURCE LINE # 297
                                           ; SOURCE LINE # 298
0080         ?C0029:
0080 22                RET     
             ; FUNCTION _my_mod (END)

             ; FUNCTION calibration (BEGIN)
                                           ; SOURCE LINE # 305
                                           ; SOURCE LINE # 311
0000 900000      R     MOV     DPTR,#direction
0003 E0                MOVX    A,@DPTR
0004 707B              JNZ     ?C0031
                                           ; SOURCE LINE # 312
0006 900000      E     MOV     DPTR,#g_refNew
0009 E0                MOVX    A,@DPTR
000A F8                MOV     R0,A
000B A3                INC     DPTR
000C E0                MOVX    A,@DPTR
000D F9                MOV     R1,A
000E A3                INC     DPTR
000F E0                MOVX    A,@DPTR
0010 FA                MOV     R2,A
0011 A3                INC     DPTR
0012 E0                MOVX    A,@DPTR
0013 FB                MOV     R3,A
0014 C000              PUSH    AR0
0016 C001              PUSH    AR1
0018 C002              PUSH    AR2
001A C003              PUSH    AR3
001C 900000      E     MOV     DPTR,#g_mem+035H
001F E0                MOVX    A,@DPTR
0020 FF                MOV     R7,A
0021 900000      E     MOV     DPTR,#calib+02H
0024 E0                MOVX    A,@DPTR
0025 FE                MOV     R6,A
0026 A3                INC     DPTR
0027 E0                MOVX    A,@DPTR
0028 A807              MOV     R0,AR7
002A 08                INC     R0
002B 8005              SJMP    ?C0072
002D         ?C0071:
002D C3                CLR     C
002E 33                RLC     A
002F CE                XCH     A,R6
0030 33                RLC     A
0031 CE                XCH     A,R6
0032         ?C0072:
0032 D8F9              DJNZ    R0,?C0071
0034 FF                MOV     R7,A
0035 EE                MOV     A,R6
0036 33                RLC     A
0037 95E0              SUBB    A,ACC
0039 FD                MOV     R5,A
003A FC                MOV     R4,A
003B D003              POP     AR3
003D D002              POP     AR2
003F D001              POP     AR1
0041 D000              POP     AR0
0043 EB                MOV     A,R3
0044 2F                ADD     A,R7
0045 FF                MOV     R7,A
C51 COMPILER V9.51   UTILS                                                                 02/27/2019 11:22:32 PAGE 46  

0046 EA                MOV     A,R2
0047 3E                ADDC    A,R6
0048 FE                MOV     R6,A
0049 E9                MOV     A,R1
004A 3D                ADDC    A,R5
004B FD                MOV     R5,A
004C E8                MOV     A,R0
004D 3C                ADDC    A,R4
004E FC                MOV     R4,A
004F 900000      E     MOV     DPTR,#g_refNew
0052 120000      E     LCALL   ?C?LSTXDATA
                                           ; SOURCE LINE # 313
0055 900000      E     MOV     DPTR,#g_mem+059H
0058 E0                MOVX    A,@DPTR
0059 FC                MOV     R4,A
005A A3                INC     DPTR
005B E0                MOVX    A,@DPTR
005C FD                MOV     R5,A
005D A3                INC     DPTR
005E E0                MOVX    A,@DPTR
005F FE                MOV     R6,A
0060 A3                INC     DPTR
0061 E0                MOVX    A,@DPTR
0062 FF                MOV     R7,A
0063 900000      E     MOV     DPTR,#g_refNew
0066 E0                MOVX    A,@DPTR
0067 F8                MOV     R0,A
0068 A3                INC     DPTR
0069 E0                MOVX    A,@DPTR
006A F9                MOV     R1,A
006B A3                INC     DPTR
006C E0                MOVX    A,@DPTR
006D FA                MOV     R2,A
006E A3                INC     DPTR
006F E0                MOVX    A,@DPTR
0070 FB                MOV     R3,A
0071 D3                SETB    C
0072 120000      E     LCALL   ?C?SLCMP
0075 5003              JNC     $ + 5H
0077 020000      R     LJMP    ?C0038
                                           ; SOURCE LINE # 314
007A 900000      R     MOV     DPTR,#direction
007D 7401              MOV     A,#01H
007F F0                MOVX    @DPTR,A
                                           ; SOURCE LINE # 315
                                           ; SOURCE LINE # 316
0080 22                RET     
0081         ?C0031:
                                           ; SOURCE LINE # 317
0081 900000      E     MOV     DPTR,#g_refNew
0084 E0                MOVX    A,@DPTR
0085 FC                MOV     R4,A
0086 A3                INC     DPTR
0087 E0                MOVX    A,@DPTR
0088 FD                MOV     R5,A
0089 A3                INC     DPTR
008A E0                MOVX    A,@DPTR
008B FE                MOV     R6,A
008C A3                INC     DPTR
008D E0                MOVX    A,@DPTR
008E FF                MOV     R7,A
008F C004              PUSH    AR4
C51 COMPILER V9.51   UTILS                                                                 02/27/2019 11:22:32 PAGE 47  

0091 C005              PUSH    AR5
0093 C006              PUSH    AR6
0095 C007              PUSH    AR7
0097 900000      E     MOV     DPTR,#g_mem+035H
009A E0                MOVX    A,@DPTR
009B FF                MOV     R7,A
009C 900000      E     MOV     DPTR,#calib+02H
009F E0                MOVX    A,@DPTR
00A0 FE                MOV     R6,A
00A1 A3                INC     DPTR
00A2 E0                MOVX    A,@DPTR
00A3 A807              MOV     R0,AR7
00A5 08                INC     R0
00A6 8005              SJMP    ?C0074
00A8         ?C0073:
00A8 C3                CLR     C
00A9 33                RLC     A
00AA CE                XCH     A,R6
00AB 33                RLC     A
00AC CE                XCH     A,R6
00AD         ?C0074:
00AD D8F9              DJNZ    R0,?C0073
00AF FF                MOV     R7,A
00B0 FB                MOV     R3,A
00B1 AA06              MOV     R2,AR6
00B3 EA                MOV     A,R2
00B4 33                RLC     A
00B5 95E0              SUBB    A,ACC
00B7 F9                MOV     R1,A
00B8 F8                MOV     R0,A
00B9 D007              POP     AR7
00BB D006              POP     AR6
00BD D005              POP     AR5
00BF D004              POP     AR4
00C1 C3                CLR     C
00C2 EF                MOV     A,R7
00C3 9B                SUBB    A,R3
00C4 FF                MOV     R7,A
00C5 EE                MOV     A,R6
00C6 9A                SUBB    A,R2
00C7 FE                MOV     R6,A
00C8 ED                MOV     A,R5
00C9 99                SUBB    A,R1
00CA FD                MOV     R5,A
00CB EC                MOV     A,R4
00CC 98                SUBB    A,R0
00CD FC                MOV     R4,A
00CE 900000      E     MOV     DPTR,#g_refNew
00D1 120000      E     LCALL   ?C?LSTXDATA
                                           ; SOURCE LINE # 318
00D4 E4                CLR     A
00D5 FF                MOV     R7,A
00D6 FE                MOV     R6,A
00D7 FD                MOV     R5,A
00D8 FC                MOV     R4,A
00D9 900000      E     MOV     DPTR,#g_refNew
00DC E0                MOVX    A,@DPTR
00DD F8                MOV     R0,A
00DE A3                INC     DPTR
00DF E0                MOVX    A,@DPTR
00E0 F9                MOV     R1,A
00E1 A3                INC     DPTR
C51 COMPILER V9.51   UTILS                                                                 02/27/2019 11:22:32 PAGE 48  

00E2 E0                MOVX    A,@DPTR
00E3 FA                MOV     R2,A
00E4 A3                INC     DPTR
00E5 E0                MOVX    A,@DPTR
00E6 FB                MOV     R3,A
00E7 C3                CLR     C
00E8 120000      E     LCALL   ?C?SLCMP
00EB 4006              JC      ?C0035
00ED 7E00              MOV     R6,#00H
00EF 7F01              MOV     R7,#01H
00F1 8004              SJMP    ?C0036
00F3         ?C0035:
00F3 7EFF              MOV     R6,#0FFH
00F5 7FFF              MOV     R7,#0FFH
00F7         ?C0036:
00F7 EF                MOV     A,R7
00F8 6401              XRL     A,#01H
00FA 4E                ORL     A,R6
00FB 6032              JZ      ?C0038
                                           ; SOURCE LINE # 319
00FD E4                CLR     A
00FE 900000      R     MOV     DPTR,#direction
0101 F0                MOVX    @DPTR,A
                                           ; SOURCE LINE # 320
0102 900000      R     MOV     DPTR,#closure_counter+01H
0105 E0                MOVX    A,@DPTR
0106 04                INC     A
0107 F0                MOVX    @DPTR,A
0108 7006              JNZ     ?C0075
010A 900000      R     MOV     DPTR,#closure_counter
010D E0                MOVX    A,@DPTR
010E 04                INC     A
010F F0                MOVX    @DPTR,A
0110         ?C0075:
                                           ; SOURCE LINE # 321
0110 900000      R     MOV     DPTR,#closure_counter
0113 E0                MOVX    A,@DPTR
0114 FE                MOV     R6,A
0115 A3                INC     DPTR
0116 E0                MOVX    A,@DPTR
0117 FF                MOV     R7,A
0118 900000      E     MOV     DPTR,#calib+04H
011B E0                MOVX    A,@DPTR
011C B50610            CJNE    A,AR6,?C0038
011F A3                INC     DPTR
0120 E0                MOVX    A,@DPTR
0121 B5070B            CJNE    A,AR7,?C0038
                                           ; SOURCE LINE # 322
0124 E4                CLR     A
0125 900000      R     MOV     DPTR,#closure_counter
0128 F0                MOVX    @DPTR,A
0129 A3                INC     DPTR
012A F0                MOVX    @DPTR,A
                                           ; SOURCE LINE # 323
012B 900000      E     MOV     DPTR,#calib
012E F0                MOVX    @DPTR,A
                                           ; SOURCE LINE # 324
                                           ; SOURCE LINE # 325
                                           ; SOURCE LINE # 326
                                           ; SOURCE LINE # 327
012F         ?C0038:
012F 22                RET     
C51 COMPILER V9.51   UTILS                                                                 02/27/2019 11:22:32 PAGE 49  

             ; FUNCTION calibration (END)

             ; FUNCTION _calc_turns_fcn (BEGIN)
                                           ; SOURCE LINE # 363
0000 900000      R     MOV     DPTR,#pos1
0003 120000      E     LCALL   ?C?LSTXDATA
                                           ; SOURCE LINE # 365
0006 E4                CLR     A
0007 7F0F              MOV     R7,#0FH
0009 FE                MOV     R6,A
000A FD                MOV     R5,A
000B FC                MOV     R4,A
000C 900000      R     MOV     DPTR,#pos1
000F E0                MOVX    A,@DPTR
0010 F8                MOV     R0,A
0011 A3                INC     DPTR
0012 E0                MOVX    A,@DPTR
0013 F9                MOV     R1,A
0014 A3                INC     DPTR
0015 E0                MOVX    A,@DPTR
0016 FA                MOV     R2,A
0017 A3                INC     DPTR
0018 E0                MOVX    A,@DPTR
0019 FB                MOV     R3,A
001A 120000      E     LCALL   ?C?LMUL
001D C004              PUSH    AR4
001F C005              PUSH    AR5
0021 C006              PUSH    AR6
0023 C007              PUSH    AR7
0025 74FF              MOV     A,#0FFH
0027 7FF2              MOV     R7,#0F2H
0029 FE                MOV     R6,A
002A FD                MOV     R5,A
002B FC                MOV     R4,A
002C 900000      R     MOV     DPTR,#pos2
002F E0                MOVX    A,@DPTR
0030 F8                MOV     R0,A
0031 A3                INC     DPTR
0032 E0                MOVX    A,@DPTR
0033 F9                MOV     R1,A
0034 A3                INC     DPTR
0035 E0                MOVX    A,@DPTR
0036 FA                MOV     R2,A
0037 A3                INC     DPTR
0038 E0                MOVX    A,@DPTR
0039 FB                MOV     R3,A
003A 120000      E     LCALL   ?C?LMUL
003D D003              POP     AR3
003F D002              POP     AR2
0041 D001              POP     AR1
0043 D000              POP     AR0
0045 C3                CLR     C
0046 EF                MOV     A,R7
0047 9B                SUBB    A,R3
0048 FF                MOV     R7,A
0049 EE                MOV     A,R6
004A 9A                SUBB    A,R2
004B FE                MOV     R6,A
004C ED                MOV     A,R5
004D 99                SUBB    A,R1
004E FD                MOV     R5,A
004F EC                MOV     A,R4
C51 COMPILER V9.51   UTILS                                                                 02/27/2019 11:22:32 PAGE 50  

0050 98                SUBB    A,R0
0051 FC                MOV     R4,A
0052 C004              PUSH    AR4
0054 C005              PUSH    AR5
0056 C006              PUSH    AR6
0058 C007              PUSH    AR7
005A E4                CLR     A
005B FF                MOV     R7,A
005C FE                MOV     R6,A
005D 7D0E              MOV     R5,#0EH
005F FC                MOV     R4,A
0060 900000      R     MOV     DPTR,#?_my_mod?BYTE+04H
0063 120000      E     LCALL   ?C?LSTXDATA
0066 D007              POP     AR7
0068 D006              POP     AR6
006A D005              POP     AR5
006C D004              POP     AR4
006E 120000      R     LCALL   _my_mod
0071 E4                CLR     A
0072 2F                ADD     A,R7
0073 FF                MOV     R7,A
0074 EE                MOV     A,R6
0075 3480              ADDC    A,#080H
0077 FE                MOV     R6,A
0078 E4                CLR     A
0079 3D                ADDC    A,R5
007A FD                MOV     R5,A
007B E4                CLR     A
007C 3C                ADDC    A,R4
007D FC                MOV     R4,A
007E E4                CLR     A
007F FB                MOV     R3,A
0080 FA                MOV     R2,A
0081 7901              MOV     R1,#01H
0083 F8                MOV     R0,A
0084 120000      E     LCALL   ?C?ULDIV
;---- Variable 'x' assigned to Register 'R4/R5/R6/R7' ----
                                           ; SOURCE LINE # 367
0087 C004              PUSH    AR4
0089 C005              PUSH    AR5
008B C006              PUSH    AR6
008D C007              PUSH    AR7
008F E4                CLR     A
0090 7F0E              MOV     R7,#0EH
0092 FE                MOV     R6,A
0093 FD                MOV     R5,A
0094 FC                MOV     R4,A
0095 900000      R     MOV     DPTR,#?_my_mod?BYTE+04H
0098 120000      E     LCALL   ?C?LSTXDATA
009B D007              POP     AR7
009D D006              POP     AR6
009F D005              POP     AR5
00A1 D004              POP     AR4
00A3 120000      R     LCALL   _my_mod
;---- Variable 'aux' assigned to Register 'R4/R5/R6/R7' ----
                                           ; SOURCE LINE # 369
00A6 EF                MOV     A,R7
00A7 2407              ADD     A,#07H
00A9 FF                MOV     R7,A
00AA E4                CLR     A
00AB 3E                ADDC    A,R6
00AC FE                MOV     R6,A
C51 COMPILER V9.51   UTILS                                                                 02/27/2019 11:22:32 PAGE 51  

00AD E4                CLR     A
00AE 3D                ADDC    A,R5
00AF FD                MOV     R5,A
00B0 E4                CLR     A
00B1 3C                ADDC    A,R4
00B2 FC                MOV     R4,A
00B3 C004              PUSH    AR4
00B5 C005              PUSH    AR5
00B7 C006              PUSH    AR6
00B9 C007              PUSH    AR7
00BB E4                CLR     A
00BC 7F0E              MOV     R7,#0EH
00BE FE                MOV     R6,A
00BF FD                MOV     R5,A
00C0 FC                MOV     R4,A
00C1 900000      R     MOV     DPTR,#?_my_mod?BYTE+04H
00C4 120000      E     LCALL   ?C?LSTXDATA
00C7 D007              POP     AR7
00C9 D006              POP     AR6
00CB D005              POP     AR5
00CD D004              POP     AR4
00CF 120000      R     LCALL   _my_mod
00D2 EF                MOV     A,R7
00D3 24F9              ADD     A,#0F9H
00D5 FF                MOV     R7,A
00D6 EE                MOV     A,R6
00D7 34FF              ADDC    A,#0FFH
00D9 FE                MOV     R6,A
                                           ; SOURCE LINE # 370
00DA         ?C0039:
00DA 22                RET     
             ; FUNCTION _calc_turns_fcn (END)

             ; FUNCTION check_rest_position (BEGIN)
                                           ; SOURCE LINE # 377
                                           ; SOURCE LINE # 385
0000 E4                CLR     A
0001 FF                MOV     R7,A
0002 FE                MOV     R6,A
0003 FD                MOV     R5,A
0004 FC                MOV     R4,A
0005 900000      R     MOV     DPTR,#curr_pos
0008 120000      E     LCALL   ?C?LSTXDATA
                                           ; SOURCE LINE # 387
000B 900000      E     MOV     DPTR,#g_mem+09EH
000E E0                MOVX    A,@DPTR
000F FC                MOV     R4,A
0010 A3                INC     DPTR
0011 E0                MOVX    A,@DPTR
0012 FD                MOV     R5,A
0013 A3                INC     DPTR
0014 E0                MOVX    A,@DPTR
0015 FE                MOV     R6,A
0016 A3                INC     DPTR
0017 E0                MOVX    A,@DPTR
0018 FF                MOV     R7,A
0019 EC                MOV     A,R4
001A 120000      E     LCALL   ?C?FCASTL
001D E4                CLR     A
001E FB                MOV     R3,A
001F FA                MOV     R2,A
0020 797A              MOV     R1,#07AH
C51 COMPILER V9.51   UTILS                                                                 02/27/2019 11:22:32 PAGE 52  

0022 7844              MOV     R0,#044H
0024 120000      E     LCALL   ?C?FPDIV
0027 900000      R     MOV     DPTR,#rest_vel_ticks_ms
002A 120000      E     LCALL   ?C?LSTXDATA
                                           ; SOURCE LINE # 389
002D 900000      R     MOV     DPTR,#first_time
0030 E0                MOVX    A,@DPTR
0031 6010              JZ      ?C0040
                                           ; SOURCE LINE # 390
0033 E4                CLR     A
0034 FF                MOV     R7,A
0035 FE                MOV     R6,A
0036 FD                MOV     R5,A
0037 FC                MOV     R4,A
0038 900000      R     MOV     DPTR,#count
003B 120000      E     LCALL   ?C?LSTXDATA
                                           ; SOURCE LINE # 391
003E E4                CLR     A
003F 900000      R     MOV     DPTR,#first_time
0042 F0                MOVX    @DPTR,A
                                           ; SOURCE LINE # 392
0043         ?C0040:
                                           ; SOURCE LINE # 394
0043 900000      E     MOV     DPTR,#g_meas
0046 E0                MOVX    A,@DPTR
0047 FC                MOV     R4,A
0048 A3                INC     DPTR
0049 E0                MOVX    A,@DPTR
004A FD                MOV     R5,A
004B A3                INC     DPTR
004C E0                MOVX    A,@DPTR
004D FE                MOV     R6,A
004E A3                INC     DPTR
004F E0                MOVX    A,@DPTR
0050 FF                MOV     R7,A
0051 900000      E     MOV     DPTR,#g_mem+035H
0054 E0                MOVX    A,@DPTR
0055 F9                MOV     R1,A
0056 F8                MOV     R0,A
0057 120000      E     LCALL   ?C?SLSHR
005A 900000      R     MOV     DPTR,#curr_pos
005D 120000      E     LCALL   ?C?LSTXDATA
                                           ; SOURCE LINE # 396
0060 900000      E     MOV     DPTR,#c_mem+033H
0063 E0                MOVX    A,@DPTR
0064 C3                CLR     C
0065 9402              SUBB    A,#02H
0067 4076              JC      ?C0041
0069 E4                CLR     A
006A 7FC8              MOV     R7,#0C8H
006C FE                MOV     R6,A
006D FD                MOV     R5,A
006E FC                MOV     R4,A
006F 900000      E     MOV     DPTR,#g_meas+017H
0072 E0                MOVX    A,@DPTR
0073 F8                MOV     R0,A
0074 A3                INC     DPTR
0075 E0                MOVX    A,@DPTR
0076 F9                MOV     R1,A
0077 A3                INC     DPTR
0078 E0                MOVX    A,@DPTR
0079 FA                MOV     R2,A
C51 COMPILER V9.51   UTILS                                                                 02/27/2019 11:22:32 PAGE 53  

007A A3                INC     DPTR
007B E0                MOVX    A,@DPTR
007C FB                MOV     R3,A
007D 120000      E     LCALL   ?C?SLCMP
0080 505D              JNC     ?C0041
0082 E4                CLR     A
0083 7FC8              MOV     R7,#0C8H
0085 FE                MOV     R6,A
0086 FD                MOV     R5,A
0087 FC                MOV     R4,A
0088 900000      E     MOV     DPTR,#g_meas+01BH
008B E0                MOVX    A,@DPTR
008C F8                MOV     R0,A
008D A3                INC     DPTR
008E E0                MOVX    A,@DPTR
008F F9                MOV     R1,A
0090 A3                INC     DPTR
0091 E0                MOVX    A,@DPTR
0092 FA                MOV     R2,A
0093 A3                INC     DPTR
0094 E0                MOVX    A,@DPTR
0095 FB                MOV     R3,A
0096 C3                CLR     C
0097 120000      E     LCALL   ?C?SLCMP
009A 5043              JNC     ?C0041
009C E4                CLR     A
009D 7F10              MOV     R7,#010H
009F 7E27              MOV     R6,#027H
00A1 FD                MOV     R5,A
00A2 FC                MOV     R4,A
00A3 900000      R     MOV     DPTR,#curr_pos
00A6 E0                MOVX    A,@DPTR
00A7 F8                MOV     R0,A
00A8 A3                INC     DPTR
00A9 E0                MOVX    A,@DPTR
00AA F9                MOV     R1,A
00AB A3                INC     DPTR
00AC E0                MOVX    A,@DPTR
00AD FA                MOV     R2,A
00AE A3                INC     DPTR
00AF E0                MOVX    A,@DPTR
00B0 FB                MOV     R3,A
00B1 C3                CLR     C
00B2 120000      E     LCALL   ?C?SLCMP
00B5 5028              JNC     ?C0041
                                           ; SOURCE LINE # 397
00B7 900000      R     MOV     DPTR,#flag_count
00BA E0                MOVX    A,@DPTR
00BB B40136            CJNE    A,#01H,?C0043
                                           ; SOURCE LINE # 398
00BE 900000      R     MOV     DPTR,#count
00C1 E0                MOVX    A,@DPTR
00C2 FC                MOV     R4,A
00C3 A3                INC     DPTR
00C4 E0                MOVX    A,@DPTR
00C5 FD                MOV     R5,A
00C6 A3                INC     DPTR
00C7 E0                MOVX    A,@DPTR
00C8 FE                MOV     R6,A
00C9 A3                INC     DPTR
00CA E0                MOVX    A,@DPTR
00CB 2401              ADD     A,#01H
C51 COMPILER V9.51   UTILS                                                                 02/27/2019 11:22:32 PAGE 54  

00CD FF                MOV     R7,A
00CE E4                CLR     A
00CF 3E                ADDC    A,R6
00D0 FE                MOV     R6,A
00D1 E4                CLR     A
00D2 3D                ADDC    A,R5
00D3 FD                MOV     R5,A
00D4 E4                CLR     A
00D5 3C                ADDC    A,R4
00D6 FC                MOV     R4,A
00D7 900000      R     MOV     DPTR,#count
00DA 120000      E     LCALL   ?C?LSTXDATA
                                           ; SOURCE LINE # 399
                                           ; SOURCE LINE # 400
00DD 8015              SJMP    ?C0043
00DF         ?C0041:
                                           ; SOURCE LINE # 401
                                           ; SOURCE LINE # 402
00DF E4                CLR     A
00E0 FF                MOV     R7,A
00E1 FE                MOV     R6,A
00E2 FD                MOV     R5,A
00E3 FC                MOV     R4,A
00E4 900000      R     MOV     DPTR,#count
00E7 120000      E     LCALL   ?C?LSTXDATA
                                           ; SOURCE LINE # 403
00EA E4                CLR     A
00EB 900000      E     MOV     DPTR,#rest_enabled
00EE F0                MOVX    @DPTR,A
                                           ; SOURCE LINE # 404
00EF 900000      R     MOV     DPTR,#flag_count
00F2 04                INC     A
00F3 F0                MOVX    @DPTR,A
                                           ; SOURCE LINE # 405
00F4         ?C0043:
                                           ; SOURCE LINE # 413
00F4 E4                CLR     A
00F5 7B0A              MOV     R3,#0AH
00F7 FA                MOV     R2,A
00F8 F9                MOV     R1,A
00F9 F8                MOV     R0,A
00FA 900000      E     MOV     DPTR,#g_mem+09AH
00FD E0                MOVX    A,@DPTR
00FE FC                MOV     R4,A
00FF A3                INC     DPTR
0100 E0                MOVX    A,@DPTR
0101 FD                MOV     R5,A
0102 A3                INC     DPTR
0103 E0                MOVX    A,@DPTR
0104 FE                MOV     R6,A
0105 A3                INC     DPTR
0106 E0                MOVX    A,@DPTR
0107 FF                MOV     R7,A
0108 120000      E     LCALL   ?C?SLDIV
010B 900000      R     MOV     DPTR,#count
010E E0                MOVX    A,@DPTR
010F F8                MOV     R0,A
0110 A3                INC     DPTR
0111 E0                MOVX    A,@DPTR
0112 F9                MOV     R1,A
0113 A3                INC     DPTR
0114 E0                MOVX    A,@DPTR
C51 COMPILER V9.51   UTILS                                                                 02/27/2019 11:22:32 PAGE 55  

0115 FA                MOV     R2,A
0116 A3                INC     DPTR
0117 E0                MOVX    A,@DPTR
0118 FB                MOV     R3,A
0119 C3                CLR     C
011A 120000      E     LCALL   ?C?ULCMP
011D 6003              JZ      $ + 5H
011F 020000      R     LJMP    ?C0044
                                           ; SOURCE LINE # 415
0122 900000      E     MOV     DPTR,#rest_enabled
0125 04                INC     A
0126 F0                MOVX    @DPTR,A
                                           ; SOURCE LINE # 416
0127 900000      E     MOV     DPTR,#g_meas
012A E0                MOVX    A,@DPTR
012B FC                MOV     R4,A
012C A3                INC     DPTR
012D E0                MOVX    A,@DPTR
012E FD                MOV     R5,A
012F A3                INC     DPTR
0130 E0                MOVX    A,@DPTR
0131 FE                MOV     R6,A
0132 A3                INC     DPTR
0133 E0                MOVX    A,@DPTR
0134 FF                MOV     R7,A
0135 900000      E     MOV     DPTR,#rest_pos_curr_ref
0138 120000      E     LCALL   ?C?LSTXDATA
                                           ; SOURCE LINE # 419
013B 900000      E     MOV     DPTR,#g_meas
013E E0                MOVX    A,@DPTR
013F F8                MOV     R0,A
0140 A3                INC     DPTR
0141 E0                MOVX    A,@DPTR
0142 F9                MOV     R1,A
0143 A3                INC     DPTR
0144 E0                MOVX    A,@DPTR
0145 FA                MOV     R2,A
0146 A3                INC     DPTR
0147 E0                MOVX    A,@DPTR
0148 FB                MOV     R3,A
0149 900000      E     MOV     DPTR,#g_mem+096H
014C E0                MOVX    A,@DPTR
014D FC                MOV     R4,A
014E A3                INC     DPTR
014F E0                MOVX    A,@DPTR
0150 FD                MOV     R5,A
0151 A3                INC     DPTR
0152 E0                MOVX    A,@DPTR
0153 FE                MOV     R6,A
0154 A3                INC     DPTR
0155 E0                MOVX    A,@DPTR
0156 C3                CLR     C
0157 9B                SUBB    A,R3
0158 FF                MOV     R7,A
0159 EE                MOV     A,R6
015A 9A                SUBB    A,R2
015B FE                MOV     R6,A
015C ED                MOV     A,R5
015D 99                SUBB    A,R1
015E FD                MOV     R5,A
015F EC                MOV     A,R4
0160 98                SUBB    A,R0
C51 COMPILER V9.51   UTILS                                                                 02/27/2019 11:22:32 PAGE 56  

0161 FC                MOV     R4,A
0162 120000      E     LCALL   ?C?FCASTL
0165 C004              PUSH    AR4
0167 C005              PUSH    AR5
0169 C006              PUSH    AR6
016B C007              PUSH    AR7
016D 900000      E     MOV     DPTR,#g_mem+096H
0170 E0                MOVX    A,@DPTR
0171 FC                MOV     R4,A
0172 A3                INC     DPTR
0173 E0                MOVX    A,@DPTR
0174 FD                MOV     R5,A
0175 A3                INC     DPTR
0176 E0                MOVX    A,@DPTR
0177 FE                MOV     R6,A
0178 A3                INC     DPTR
0179 E0                MOVX    A,@DPTR
017A FF                MOV     R7,A
017B EC                MOV     A,R4
017C 120000      E     LCALL   ?C?FCASTL
017F A804              MOV     R0,AR4
0181 A905              MOV     R1,AR5
0183 AA06              MOV     R2,AR6
0185 AB07              MOV     R3,AR7
0187 D007              POP     AR7
0189 D006              POP     AR6
018B D005              POP     AR5
018D D004              POP     AR4
018F 120000      E     LCALL   ?C?FPDIV
0192 900000      R     MOV     DPTR,#rest_vel_ticks_ms
0195 E0                MOVX    A,@DPTR
0196 F8                MOV     R0,A
0197 A3                INC     DPTR
0198 E0                MOVX    A,@DPTR
0199 F9                MOV     R1,A
019A A3                INC     DPTR
019B E0                MOVX    A,@DPTR
019C FA                MOV     R2,A
019D A3                INC     DPTR
019E E0                MOVX    A,@DPTR
019F FB                MOV     R3,A
01A0 120000      E     LCALL   ?C?FPMUL
01A3 900000      R     MOV     DPTR,#m
01A6 120000      E     LCALL   ?C?LSTXDATA
                                           ; SOURCE LINE # 422
01A9 E4                CLR     A
01AA FF                MOV     R7,A
01AB FE                MOV     R6,A
01AC 7DC8              MOV     R5,#0C8H
01AE 7C42              MOV     R4,#042H
01B0 900000      R     MOV     DPTR,#m
01B3 E0                MOVX    A,@DPTR
01B4 F8                MOV     R0,A
01B5 A3                INC     DPTR
01B6 E0                MOVX    A,@DPTR
01B7 F9                MOV     R1,A
01B8 A3                INC     DPTR
01B9 E0                MOVX    A,@DPTR
01BA FA                MOV     R2,A
01BB A3                INC     DPTR
01BC E0                MOVX    A,@DPTR
01BD FB                MOV     R3,A
C51 COMPILER V9.51   UTILS                                                                 02/27/2019 11:22:32 PAGE 57  

01BE 120000      E     LCALL   ?C?FPMUL
01C1 120000      E     LCALL   ?C?CASTF
01C4 900000      E     MOV     DPTR,#g_mem+035H
01C7 E0                MOVX    A,@DPTR
01C8 F9                MOV     R1,A
01C9 F8                MOV     R0,A
01CA 120000      E     LCALL   ?C?LSHL
01CD 900000      R     MOV     DPTR,#abs_err_thr
01D0 120000      E     LCALL   ?C?LSTXDATA
                                           ; SOURCE LINE # 423
01D3 E4                CLR     A
01D4 FF                MOV     R7,A
01D5 FE                MOV     R6,A
01D6 FD                MOV     R5,A
01D7 FC                MOV     R4,A
01D8 900000      R     MOV     DPTR,#abs_err_thr
01DB E0                MOVX    A,@DPTR
01DC F8                MOV     R0,A
01DD A3                INC     DPTR
01DE E0                MOVX    A,@DPTR
01DF F9                MOV     R1,A
01E0 A3                INC     DPTR
01E1 E0                MOVX    A,@DPTR
01E2 FA                MOV     R2,A
01E3 A3                INC     DPTR
01E4 E0                MOVX    A,@DPTR
01E5 FB                MOV     R3,A
01E6 D3                SETB    C
01E7 120000      E     LCALL   ?C?SLCMP
01EA 4010              JC      ?C0045
01EC 900000      R     MOV     DPTR,#abs_err_thr
01EF E0                MOVX    A,@DPTR
01F0 FC                MOV     R4,A
01F1 A3                INC     DPTR
01F2 E0                MOVX    A,@DPTR
01F3 FD                MOV     R5,A
01F4 A3                INC     DPTR
01F5 E0                MOVX    A,@DPTR
01F6 FE                MOV     R6,A
01F7 A3                INC     DPTR
01F8 E0                MOVX    A,@DPTR
01F9 FF                MOV     R7,A
01FA 8011              SJMP    ?C0046
01FC         ?C0045:
01FC 900000      R     MOV     DPTR,#abs_err_thr
01FF E0                MOVX    A,@DPTR
0200 FC                MOV     R4,A
0201 A3                INC     DPTR
0202 E0                MOVX    A,@DPTR
0203 FD                MOV     R5,A
0204 A3                INC     DPTR
0205 E0                MOVX    A,@DPTR
0206 FE                MOV     R6,A
0207 A3                INC     DPTR
0208 E0                MOVX    A,@DPTR
0209 FF                MOV     R7,A
020A 120000      E     LCALL   ?C?LNEG
020D         ?C0046:
020D 900000      R     MOV     DPTR,#abs_err_thr
0210 120000      E     LCALL   ?C?LSTXDATA
                                           ; SOURCE LINE # 425
0213 900000      E     MOV     DPTR,#g_meas
C51 COMPILER V9.51   UTILS                                                                 02/27/2019 11:22:32 PAGE 58  

0216 E0                MOVX    A,@DPTR
0217 F8                MOV     R0,A
0218 A3                INC     DPTR
0219 E0                MOVX    A,@DPTR
021A F9                MOV     R1,A
021B A3                INC     DPTR
021C E0                MOVX    A,@DPTR
021D FA                MOV     R2,A
021E A3                INC     DPTR
021F E0                MOVX    A,@DPTR
0220 FB                MOV     R3,A
0221 900000      E     MOV     DPTR,#g_mem+096H
0224 E0                MOVX    A,@DPTR
0225 FC                MOV     R4,A
0226 A3                INC     DPTR
0227 E0                MOVX    A,@DPTR
0228 FD                MOV     R5,A
0229 A3                INC     DPTR
022A E0                MOVX    A,@DPTR
022B FE                MOV     R6,A
022C A3                INC     DPTR
022D E0                MOVX    A,@DPTR
022E C3                CLR     C
022F 9B                SUBB    A,R3
0230 FF                MOV     R7,A
0231 EE                MOV     A,R6
0232 9A                SUBB    A,R2
0233 FE                MOV     R6,A
0234 ED                MOV     A,R5
0235 99                SUBB    A,R1
0236 FD                MOV     R5,A
0237 EC                MOV     A,R4
0238 98                SUBB    A,R0
0239 FC                MOV     R4,A
023A 900000      R     MOV     DPTR,#rest_error
023D 120000      E     LCALL   ?C?LSTXDATA
                                           ; SOURCE LINE # 427
0240 E4                CLR     A
0241 FF                MOV     R7,A
0242 FE                MOV     R6,A
0243 7D20              MOV     R5,#020H
0245 7C41              MOV     R4,#041H
0247 900000      R     MOV     DPTR,#m
024A E0                MOVX    A,@DPTR
024B F8                MOV     R0,A
024C A3                INC     DPTR
024D E0                MOVX    A,@DPTR
024E F9                MOV     R1,A
024F A3                INC     DPTR
0250 E0                MOVX    A,@DPTR
0251 FA                MOV     R2,A
0252 A3                INC     DPTR
0253 E0                MOVX    A,@DPTR
0254 FB                MOV     R3,A
0255 120000      E     LCALL   ?C?FPMUL
0258 120000      E     LCALL   ?C?CASTF
025B 900000      E     MOV     DPTR,#g_mem+035H
025E E0                MOVX    A,@DPTR
025F F9                MOV     R1,A
0260 F8                MOV     R0,A
0261 120000      E     LCALL   ?C?LSHL
0264 900000      R     MOV     DPTR,#delta_inc
C51 COMPILER V9.51   UTILS                                                                 02/27/2019 11:22:32 PAGE 59  

0267 120000      E     LCALL   ?C?LSTXDATA
                                           ; SOURCE LINE # 428
026A E4                CLR     A
026B FF                MOV     R7,A
026C FE                MOV     R6,A
026D FD                MOV     R5,A
026E FC                MOV     R4,A
026F 900000      R     MOV     DPTR,#delta_inc
0272 E0                MOVX    A,@DPTR
0273 F8                MOV     R0,A
0274 A3                INC     DPTR
0275 E0                MOVX    A,@DPTR
0276 F9                MOV     R1,A
0277 A3                INC     DPTR
0278 E0                MOVX    A,@DPTR
0279 FA                MOV     R2,A
027A A3                INC     DPTR
027B E0                MOVX    A,@DPTR
027C FB                MOV     R3,A
027D D3                SETB    C
027E 120000      E     LCALL   ?C?SLCMP
0281 4010              JC      ?C0047
0283 900000      R     MOV     DPTR,#delta_inc
0286 E0                MOVX    A,@DPTR
0287 FC                MOV     R4,A
0288 A3                INC     DPTR
0289 E0                MOVX    A,@DPTR
028A FD                MOV     R5,A
028B A3                INC     DPTR
028C E0                MOVX    A,@DPTR
028D FE                MOV     R6,A
028E A3                INC     DPTR
028F E0                MOVX    A,@DPTR
0290 FF                MOV     R7,A
0291 8011              SJMP    ?C0048
0293         ?C0047:
0293 900000      R     MOV     DPTR,#delta_inc
0296 E0                MOVX    A,@DPTR
0297 FC                MOV     R4,A
0298 A3                INC     DPTR
0299 E0                MOVX    A,@DPTR
029A FD                MOV     R5,A
029B A3                INC     DPTR
029C E0                MOVX    A,@DPTR
029D FE                MOV     R6,A
029E A3                INC     DPTR
029F E0                MOVX    A,@DPTR
02A0 FF                MOV     R7,A
02A1 120000      E     LCALL   ?C?LNEG
02A4         ?C0048:
02A4 900000      R     MOV     DPTR,#delta_inc
02A7 120000      E     LCALL   ?C?LSTXDATA
                                           ; SOURCE LINE # 430
02AA E4                CLR     A
02AB FF                MOV     R7,A
02AC FE                MOV     R6,A
02AD FD                MOV     R5,A
02AE FC                MOV     R4,A
02AF 900000      R     MOV     DPTR,#count
02B2 120000      E     LCALL   ?C?LSTXDATA
                                           ; SOURCE LINE # 431
02B5 E4                CLR     A
C51 COMPILER V9.51   UTILS                                                                 02/27/2019 11:22:32 PAGE 60  

02B6 900000      R     MOV     DPTR,#flag_count
02B9 F0                MOVX    @DPTR,A
                                           ; SOURCE LINE # 432
02BA         ?C0044:
                                           ; SOURCE LINE # 434
02BA 900000      E     MOV     DPTR,#rest_enabled
02BD E0                MOVX    A,@DPTR
02BE 7003              JNZ     $ + 5H
02C0 020000      R     LJMP    ?C0049
                                           ; SOURCE LINE # 436
02C3 900000      R     MOV     DPTR,#abs_err_thr
02C6 E0                MOVX    A,@DPTR
02C7 FC                MOV     R4,A
02C8 A3                INC     DPTR
02C9 E0                MOVX    A,@DPTR
02CA FD                MOV     R5,A
02CB A3                INC     DPTR
02CC E0                MOVX    A,@DPTR
02CD FE                MOV     R6,A
02CE A3                INC     DPTR
02CF E0                MOVX    A,@DPTR
02D0 FF                MOV     R7,A
02D1 900000      R     MOV     DPTR,#rest_error
02D4 E0                MOVX    A,@DPTR
02D5 F8                MOV     R0,A
02D6 A3                INC     DPTR
02D7 E0                MOVX    A,@DPTR
02D8 F9                MOV     R1,A
02D9 A3                INC     DPTR
02DA E0                MOVX    A,@DPTR
02DB FA                MOV     R2,A
02DC A3                INC     DPTR
02DD E0                MOVX    A,@DPTR
02DE FB                MOV     R3,A
02DF C3                CLR     C
02E0 120000      E     LCALL   ?C?SLCMP
02E3 5053              JNC     ?C0050
02E5 900000      R     MOV     DPTR,#abs_err_thr
02E8 E0                MOVX    A,@DPTR
02E9 FC                MOV     R4,A
02EA A3                INC     DPTR
02EB E0                MOVX    A,@DPTR
02EC FD                MOV     R5,A
02ED A3                INC     DPTR
02EE E0                MOVX    A,@DPTR
02EF FE                MOV     R6,A
02F0 A3                INC     DPTR
02F1 E0                MOVX    A,@DPTR
02F2 FF                MOV     R7,A
02F3 120000      E     LCALL   ?C?LNEG
02F6 900000      R     MOV     DPTR,#rest_error
02F9 E0                MOVX    A,@DPTR
02FA F8                MOV     R0,A
02FB A3                INC     DPTR
02FC E0                MOVX    A,@DPTR
02FD A3                INC     DPTR
02FE E0                MOVX    A,@DPTR
02FF A3                INC     DPTR
0300 E0                MOVX    A,@DPTR
0301 D3                SETB    C
0302 120000      E     LCALL   ?C?SLCMP
0305 4031              JC      ?C0050
C51 COMPILER V9.51   UTILS                                                                 02/27/2019 11:22:32 PAGE 61  

                                           ; SOURCE LINE # 438
0307 900000      E     MOV     DPTR,#g_mem+096H
030A E0                MOVX    A,@DPTR
030B FC                MOV     R4,A
030C A3                INC     DPTR
030D E0                MOVX    A,@DPTR
030E FD                MOV     R5,A
030F A3                INC     DPTR
0310 E0                MOVX    A,@DPTR
0311 FE                MOV     R6,A
0312 A3                INC     DPTR
0313 E0                MOVX    A,@DPTR
0314 FF                MOV     R7,A
0315 900000      E     MOV     DPTR,#rest_pos_curr_ref
0318 120000      E     LCALL   ?C?LSTXDATA
                                           ; SOURCE LINE # 440
031B 900000      E     MOV     DPTR,#c_mem+033H
031E E0                MOVX    A,@DPTR
031F C3                CLR     C
0320 9402              SUBB    A,#02H
0322 4006              JC      ?C0051
                                           ; SOURCE LINE # 441
0324 900000      E     MOV     DPTR,#forced_open
0327 7401              MOV     A,#01H
0329 F0                MOVX    @DPTR,A
032A         ?C0051:
                                           ; SOURCE LINE # 443
032A E4                CLR     A
032B FF                MOV     R7,A
032C FE                MOV     R6,A
032D FD                MOV     R5,A
032E FC                MOV     R4,A
032F 900000      R     MOV     DPTR,#count
0332 120000      E     LCALL   ?C?LSTXDATA
                                           ; SOURCE LINE # 444
0335 020000      R     LJMP    ?C0049
0338         ?C0050:
                                           ; SOURCE LINE # 445
                                           ; SOURCE LINE # 446
0338 900000      E     MOV     DPTR,#g_meas
033B E0                MOVX    A,@DPTR
033C F8                MOV     R0,A
033D A3                INC     DPTR
033E E0                MOVX    A,@DPTR
033F F9                MOV     R1,A
0340 A3                INC     DPTR
0341 E0                MOVX    A,@DPTR
0342 FA                MOV     R2,A
0343 A3                INC     DPTR
0344 E0                MOVX    A,@DPTR
0345 FB                MOV     R3,A
0346 900000      E     MOV     DPTR,#g_mem+096H
0349 E0                MOVX    A,@DPTR
034A FC                MOV     R4,A
034B A3                INC     DPTR
034C E0                MOVX    A,@DPTR
034D FD                MOV     R5,A
034E A3                INC     DPTR
034F E0                MOVX    A,@DPTR
0350 FE                MOV     R6,A
0351 A3                INC     DPTR
0352 E0                MOVX    A,@DPTR
C51 COMPILER V9.51   UTILS                                                                 02/27/2019 11:22:32 PAGE 62  

0353 C3                CLR     C
0354 9B                SUBB    A,R3
0355 FF                MOV     R7,A
0356 EE                MOV     A,R6
0357 9A                SUBB    A,R2
0358 FE                MOV     R6,A
0359 ED                MOV     A,R5
035A 99                SUBB    A,R1
035B FD                MOV     R5,A
035C EC                MOV     A,R4
035D 98                SUBB    A,R0
035E FC                MOV     R4,A
035F 900000      R     MOV     DPTR,#rest_error
0362 120000      E     LCALL   ?C?LSTXDATA
                                           ; SOURCE LINE # 448
0365 E4                CLR     A
0366 FF                MOV     R7,A
0367 FE                MOV     R6,A
0368 FD                MOV     R5,A
0369 FC                MOV     R4,A
036A 900000      R     MOV     DPTR,#rest_error
036D E0                MOVX    A,@DPTR
036E F8                MOV     R0,A
036F A3                INC     DPTR
0370 E0                MOVX    A,@DPTR
0371 F9                MOV     R1,A
0372 A3                INC     DPTR
0373 E0                MOVX    A,@DPTR
0374 FA                MOV     R2,A
0375 A3                INC     DPTR
0376 E0                MOVX    A,@DPTR
0377 FB                MOV     R3,A
0378 D3                SETB    C
0379 120000      E     LCALL   ?C?SLCMP
037C 402E              JC      ?C0053
                                           ; SOURCE LINE # 449
037E 900000      E     MOV     DPTR,#rest_pos_curr_ref
0381 E0                MOVX    A,@DPTR
0382 FC                MOV     R4,A
0383 A3                INC     DPTR
0384 E0                MOVX    A,@DPTR
0385 FD                MOV     R5,A
0386 A3                INC     DPTR
0387 E0                MOVX    A,@DPTR
0388 FE                MOV     R6,A
0389 A3                INC     DPTR
038A E0                MOVX    A,@DPTR
038B FF                MOV     R7,A
038C 900000      R     MOV     DPTR,#delta_inc
038F E0                MOVX    A,@DPTR
0390 F8                MOV     R0,A
0391 A3                INC     DPTR
0392 E0                MOVX    A,@DPTR
0393 F9                MOV     R1,A
0394 A3                INC     DPTR
0395 E0                MOVX    A,@DPTR
0396 FA                MOV     R2,A
0397 A3                INC     DPTR
0398 E0                MOVX    A,@DPTR
0399 FB                MOV     R3,A
039A EF                MOV     A,R7
039B 2B                ADD     A,R3
C51 COMPILER V9.51   UTILS                                                                 02/27/2019 11:22:32 PAGE 63  

039C FF                MOV     R7,A
039D EE                MOV     A,R6
039E 3A                ADDC    A,R2
039F FE                MOV     R6,A
03A0 ED                MOV     A,R5
03A1 39                ADDC    A,R1
03A2 FD                MOV     R5,A
03A3 EC                MOV     A,R4
03A4 38                ADDC    A,R0
03A5 FC                MOV     R4,A
03A6 900000      E     MOV     DPTR,#rest_pos_curr_ref
03A9 120000      E     LCALL   ?C?LSTXDATA
                                           ; SOURCE LINE # 450
03AC         ?C0053:
                                           ; SOURCE LINE # 451
03AC E4                CLR     A
03AD FF                MOV     R7,A
03AE FE                MOV     R6,A
03AF FD                MOV     R5,A
03B0 FC                MOV     R4,A
03B1 900000      R     MOV     DPTR,#rest_error
03B4 E0                MOVX    A,@DPTR
03B5 F8                MOV     R0,A
03B6 A3                INC     DPTR
03B7 E0                MOVX    A,@DPTR
03B8 F9                MOV     R1,A
03B9 A3                INC     DPTR
03BA E0                MOVX    A,@DPTR
03BB FA                MOV     R2,A
03BC A3                INC     DPTR
03BD E0                MOVX    A,@DPTR
03BE FB                MOV     R3,A
03BF C3                CLR     C
03C0 120000      E     LCALL   ?C?SLCMP
03C3 502F              JNC     ?C0049
                                           ; SOURCE LINE # 452
03C5 900000      E     MOV     DPTR,#rest_pos_curr_ref
03C8 E0                MOVX    A,@DPTR
03C9 FC                MOV     R4,A
03CA A3                INC     DPTR
03CB E0                MOVX    A,@DPTR
03CC FD                MOV     R5,A
03CD A3                INC     DPTR
03CE E0                MOVX    A,@DPTR
03CF FE                MOV     R6,A
03D0 A3                INC     DPTR
03D1 E0                MOVX    A,@DPTR
03D2 FF                MOV     R7,A
03D3 900000      R     MOV     DPTR,#delta_inc
03D6 E0                MOVX    A,@DPTR
03D7 F8                MOV     R0,A
03D8 A3                INC     DPTR
03D9 E0                MOVX    A,@DPTR
03DA F9                MOV     R1,A
03DB A3                INC     DPTR
03DC E0                MOVX    A,@DPTR
03DD FA                MOV     R2,A
03DE A3                INC     DPTR
03DF E0                MOVX    A,@DPTR
03E0 FB                MOV     R3,A
03E1 C3                CLR     C
03E2 EF                MOV     A,R7
C51 COMPILER V9.51   UTILS                                                                 02/27/2019 11:22:32 PAGE 64  

03E3 9B                SUBB    A,R3
03E4 FF                MOV     R7,A
03E5 EE                MOV     A,R6
03E6 9A                SUBB    A,R2
03E7 FE                MOV     R6,A
03E8 ED                MOV     A,R5
03E9 99                SUBB    A,R1
03EA FD                MOV     R5,A
03EB EC                MOV     A,R4
03EC 98                SUBB    A,R0
03ED FC                MOV     R4,A
03EE 900000      E     MOV     DPTR,#rest_pos_curr_ref
03F1 120000      E     LCALL   ?C?LSTXDATA
                                           ; SOURCE LINE # 453
                                           ; SOURCE LINE # 454
                                           ; SOURCE LINE # 455
03F4         ?C0049:
                                           ; SOURCE LINE # 458
03F4 900000      E     MOV     DPTR,#c_mem+050H
03F7 E0                MOVX    A,@DPTR
03F8 606A              JZ      ?C0058
                                           ; SOURCE LINE # 459
03FA A3                INC     DPTR
03FB E0                MOVX    A,@DPTR
03FC FC                MOV     R4,A
03FD A3                INC     DPTR
03FE E0                MOVX    A,@DPTR
03FF FD                MOV     R5,A
0400 A3                INC     DPTR
0401 E0                MOVX    A,@DPTR
0402 FE                MOV     R6,A
0403 A3                INC     DPTR
0404 E0                MOVX    A,@DPTR
0405 FF                MOV     R7,A
0406 900000      E     MOV     DPTR,#rest_pos_curr_ref
0409 E0                MOVX    A,@DPTR
040A F8                MOV     R0,A
040B A3                INC     DPTR
040C E0                MOVX    A,@DPTR
040D F9                MOV     R1,A
040E A3                INC     DPTR
040F E0                MOVX    A,@DPTR
0410 FA                MOV     R2,A
0411 A3                INC     DPTR
0412 E0                MOVX    A,@DPTR
0413 FB                MOV     R3,A
0414 C3                CLR     C
0415 120000      E     LCALL   ?C?SLCMP
0418 5014              JNC     ?C0056
                                           ; SOURCE LINE # 460
041A 900000      E     MOV     DPTR,#c_mem+051H
041D E0                MOVX    A,@DPTR
041E FC                MOV     R4,A
041F A3                INC     DPTR
0420 E0                MOVX    A,@DPTR
0421 FD                MOV     R5,A
0422 A3                INC     DPTR
0423 E0                MOVX    A,@DPTR
0424 FE                MOV     R6,A
0425 A3                INC     DPTR
0426 E0                MOVX    A,@DPTR
0427 FF                MOV     R7,A
C51 COMPILER V9.51   UTILS                                                                 02/27/2019 11:22:32 PAGE 65  

0428 900000      E     MOV     DPTR,#rest_pos_curr_ref
042B 120000      E     LCALL   ?C?LSTXDATA
042E         ?C0056:
                                           ; SOURCE LINE # 461
042E 900000      E     MOV     DPTR,#c_mem+059H
0431 E0                MOVX    A,@DPTR
0432 FC                MOV     R4,A
0433 A3                INC     DPTR
0434 E0                MOVX    A,@DPTR
0435 FD                MOV     R5,A
0436 A3                INC     DPTR
0437 E0                MOVX    A,@DPTR
0438 FE                MOV     R6,A
0439 A3                INC     DPTR
043A E0                MOVX    A,@DPTR
043B FF                MOV     R7,A
043C 900000      E     MOV     DPTR,#rest_pos_curr_ref
043F E0                MOVX    A,@DPTR
0440 F8                MOV     R0,A
0441 A3                INC     DPTR
0442 E0                MOVX    A,@DPTR
0443 F9                MOV     R1,A
0444 A3                INC     DPTR
0445 E0                MOVX    A,@DPTR
0446 FA                MOV     R2,A
0447 A3                INC     DPTR
0448 E0                MOVX    A,@DPTR
0449 FB                MOV     R3,A
044A D3                SETB    C
044B 120000      E     LCALL   ?C?SLCMP
044E 4014              JC      ?C0058
                                           ; SOURCE LINE # 462
0450 900000      E     MOV     DPTR,#c_mem+059H
0453 E0                MOVX    A,@DPTR
0454 FC                MOV     R4,A
0455 A3                INC     DPTR
0456 E0                MOVX    A,@DPTR
0457 FD                MOV     R5,A
0458 A3                INC     DPTR
0459 E0                MOVX    A,@DPTR
045A FE                MOV     R6,A
045B A3                INC     DPTR
045C E0                MOVX    A,@DPTR
045D FF                MOV     R7,A
045E 900000      E     MOV     DPTR,#rest_pos_curr_ref
0461 120000      E     LCALL   ?C?LSTXDATA
                                           ; SOURCE LINE # 463
                                           ; SOURCE LINE # 465
0464         ?C0058:
0464 22                RET     
             ; FUNCTION check_rest_position (END)

             ; FUNCTION reset_counters (BEGIN)
                                           ; SOURCE LINE # 470
                                           ; SOURCE LINE # 474
0000 E4                CLR     A
0001 FF                MOV     R7,A
0002 FE                MOV     R6,A
0003 FD                MOV     R5,A
0004 FC                MOV     R4,A
0005 900000      E     MOV     DPTR,#g_mem+0B4H
0008 120000      E     LCALL   ?C?LSTXDATA
C51 COMPILER V9.51   UTILS                                                                 02/27/2019 11:22:32 PAGE 66  

000B E4                CLR     A
000C FF                MOV     R7,A
000D FE                MOV     R6,A
000E FD                MOV     R5,A
000F FC                MOV     R4,A
0010 900000      E     MOV     DPTR,#g_mem+0B0H
0013 120000      E     LCALL   ?C?LSTXDATA
                                           ; SOURCE LINE # 475
;---- Variable 'i' assigned to Register 'R3' ----
0016 E4                CLR     A
0017 FB                MOV     R3,A
0018         ?C0059:
0018 EB                MOV     A,R3
0019 C3                CLR     C
001A 940A              SUBB    A,#0AH
001C 5019              JNC     ?C0060
                                           ; SOURCE LINE # 476
001E E4                CLR     A
001F FF                MOV     R7,A
0020 FE                MOV     R6,A
0021 FD                MOV     R5,A
0022 FC                MOV     R4,A
0023 EB                MOV     A,R3
0024 25E0              ADD     A,ACC
0026 25E0              ADD     A,ACC
0028 2400        E     ADD     A,#LOW g_mem+0B8H
002A F582              MOV     DPL,A
002C E4                CLR     A
002D 3400        E     ADDC    A,#HIGH g_mem+0B8H
002F F583              MOV     DPH,A
0031 120000      E     LCALL   ?C?LSTXDATA
                                           ; SOURCE LINE # 477
0034 0B                INC     R3
0035 80E1              SJMP    ?C0059
0037         ?C0060:
                                           ; SOURCE LINE # 478
0037 E4                CLR     A
0038 FB                MOV     R3,A
0039         ?C0062:
0039 EB                MOV     A,R3
003A C3                CLR     C
003B 9404              SUBB    A,#04H
003D 5019              JNC     ?C0063
                                           ; SOURCE LINE # 479
003F E4                CLR     A
0040 FF                MOV     R7,A
0041 FE                MOV     R6,A
0042 FD                MOV     R5,A
0043 FC                MOV     R4,A
0044 EB                MOV     A,R3
0045 25E0              ADD     A,ACC
0047 25E0              ADD     A,ACC
0049 2400        E     ADD     A,#LOW g_mem+0E0H
004B F582              MOV     DPL,A
004D E4                CLR     A
004E 3400        E     ADDC    A,#HIGH g_mem+0E0H
0050 F583              MOV     DPH,A
0052 120000      E     LCALL   ?C?LSTXDATA
                                           ; SOURCE LINE # 480
0055 0B                INC     R3
0056 80E1              SJMP    ?C0062
0058         ?C0063:
C51 COMPILER V9.51   UTILS                                                                 02/27/2019 11:22:32 PAGE 67  

                                           ; SOURCE LINE # 481
0058 E4                CLR     A
0059 FF                MOV     R7,A
005A FE                MOV     R6,A
005B FD                MOV     R5,A
005C FC                MOV     R4,A
005D 900000      E     MOV     DPTR,#g_mem+0F0H
0060 120000      E     LCALL   ?C?LSTXDATA
                                           ; SOURCE LINE # 482
0063 E4                CLR     A
0064 FF                MOV     R7,A
0065 FE                MOV     R6,A
0066 FD                MOV     R5,A
0067 FC                MOV     R4,A
0068 900000      E     MOV     DPTR,#g_mem+0F4H
006B 120000      E     LCALL   ?C?LSTXDATA
                                           ; SOURCE LINE # 483
006E E4                CLR     A
006F FF                MOV     R7,A
0070 FE                MOV     R6,A
0071 FD                MOV     R5,A
0072 FC                MOV     R4,A
0073 900000      E     MOV     DPTR,#g_mem+0F8H
0076 120000      E     LCALL   ?C?LSTXDATA
                                           ; SOURCE LINE # 484
0079 E4                CLR     A
007A FF                MOV     R7,A
007B FE                MOV     R6,A
007C FD                MOV     R5,A
007D FC                MOV     R4,A
007E 900000      E     MOV     DPTR,#g_mem+0FCH
0081 120000      E     LCALL   ?C?LSTXDATA
                                           ; SOURCE LINE # 485
0084 22                RET     
             ; FUNCTION reset_counters (END)



MODULE INFORMATION:   STATIC OVERLAYABLE
   CODE SIZE        =   4578    ----
   CONSTANT SIZE    =   ----    ----
   XDATA SIZE       =    129      52
   PDATA SIZE       =   ----    ----
   DATA SIZE        =   ----       1
   IDATA SIZE       =   ----       3
   BIT SIZE         =   ----    ----
   EDATA SIZE       =   ----    ----
   HDATA SIZE       =   ----    ----
   XDATA CONST SIZE =   ----    ----
   FAR CONST SIZE   =   ----    ----
END OF MODULE INFORMATION.


C51 COMPILATION COMPLETE.  0 WARNING(S),  0 ERROR(S)
